TMS320C2000 Assembler PC v18.1.2 Fri Dec 14 19:43:25 2018

Tools Copyright (c) 1996-2017 Texas Instruments Incorporated
main.asm                                                             PAGE    1

       1              ;***************************************************************
       2              ;* TMS320C2000 C/C++ Codegen                    PC v18.1.2.LTS *
       3              ;* Date/Time created: Fri Dec 14 19:43:25 2018                 *
       4              ;***************************************************************
       5                      .compiler_opts --abi=coffabi --cla_support=cla1 --diag_wrap=off --float_support=fpu32 --hll_source=on
       6                      .asg    XAR2, FP
       7              
       8              $C$DW$CU        .dwtag  DW_TAG_compile_unit
       9                      .dwattr $C$DW$CU, DW_AT_name("../main.c")
      10                      .dwattr $C$DW$CU, DW_AT_producer("TI TMS320C2000 C/C++ Codegen PC v18.1.2.LTS Copyright (c) 1996-2017
      11                      .dwattr $C$DW$CU, DW_AT_TI_version(0x01)
      12                      .dwattr $C$DW$CU, DW_AT_comp_dir("D:\WorkSpace\CCS_WorkSpace\CanTest\Debug")
      13              
      14              $C$DW$1 .dwtag  DW_TAG_subprogram
      15                      .dwattr $C$DW$1, DW_AT_name("InitGpio")
      16                      .dwattr $C$DW$1, DW_AT_TI_symbol_name("_InitGpio")
      17                      .dwattr $C$DW$1, DW_AT_declaration
      18                      .dwattr $C$DW$1, DW_AT_external
      19                      .dwendtag $C$DW$1
      20              
      21              
      22              $C$DW$2 .dwtag  DW_TAG_subprogram
      23                      .dwattr $C$DW$2, DW_AT_name("InitSysCtrl")
      24                      .dwattr $C$DW$2, DW_AT_TI_symbol_name("_InitSysCtrl")
      25                      .dwattr $C$DW$2, DW_AT_declaration
      26                      .dwattr $C$DW$2, DW_AT_external
      27                      .dwendtag $C$DW$2
      28              
      29              
      30              $C$DW$3 .dwtag  DW_TAG_subprogram
      31                      .dwattr $C$DW$3, DW_AT_name("InitPieVectTable")
      32                      .dwattr $C$DW$3, DW_AT_TI_symbol_name("_InitPieVectTable")
      33                      .dwattr $C$DW$3, DW_AT_declaration
      34                      .dwattr $C$DW$3, DW_AT_external
      35                      .dwendtag $C$DW$3
      36              
      37              
      38              $C$DW$4 .dwtag  DW_TAG_subprogram
      39                      .dwattr $C$DW$4, DW_AT_name("InitPieCtrl")
      40                      .dwattr $C$DW$4, DW_AT_TI_symbol_name("_InitPieCtrl")
      41                      .dwattr $C$DW$4, DW_AT_declaration
      42                      .dwattr $C$DW$4, DW_AT_external
      43                      .dwendtag $C$DW$4
      44              
      45              ;       D:\ProgramFiles\ti\ccsv8\tools\compiler\ti-cgt-c2000_18.1.2.LTS\bin\ac2000.exe -@C:\\Users\\qd\\AppDa
      46 00000000               .sect   ".text"
      47                      .clink
      48                      .global _main
      49              
      50              $C$DW$5 .dwtag  DW_TAG_subprogram
      51                      .dwattr $C$DW$5, DW_AT_name("main")
      52                      .dwattr $C$DW$5, DW_AT_low_pc(_main)
      53                      .dwattr $C$DW$5, DW_AT_high_pc(0x00)
      54                      .dwattr $C$DW$5, DW_AT_TI_symbol_name("_main")
      55                      .dwattr $C$DW$5, DW_AT_external
TMS320C2000 Assembler PC v18.1.2 Fri Dec 14 19:43:25 2018

Tools Copyright (c) 1996-2017 Texas Instruments Incorporated
main.asm                                                             PAGE    2

      56                      .dwattr $C$DW$5, DW_AT_type(*$C$DW$T$10)
      57                      .dwattr $C$DW$5, DW_AT_TI_begin_file("../main.c")
      58                      .dwattr $C$DW$5, DW_AT_TI_begin_line(0x09)
      59                      .dwattr $C$DW$5, DW_AT_TI_begin_column(0x05)
      60                      .dwattr $C$DW$5, DW_AT_TI_max_frame_size(-2)
      61                      .dwpsn  file "../main.c",line 10,column 1,is_stmt,address _main,isa 0
      62              
      63                      .dwfde $C$DW$CIE, _main
      64              
      65              ;***************************************************************
      66              ;* FNAME: _main                         FR SIZE:   0           *
      67              ;*                                                             *
      68              ;* FUNCTION ENVIRONMENT                                        *
      69              ;*                                                             *
      70              ;* FUNCTION PROPERTIES                                         *
      71              ;*                            0 Parameter,  0 Auto,  0 SOE     *
      72              ;***************************************************************
      73              
      74 00000000       _main:
      75                      .dwcfi  cfa_offset, -2
      76                      .dwcfi  save_reg_to_mem, 26, 0
      77                      .dwpsn  file "../main.c",line 11,column 5,is_stmt,isa 0
      78              $C$DW$6 .dwtag  DW_TAG_TI_branch
      79                      .dwattr $C$DW$6, DW_AT_low_pc(0x00)
      80                      .dwattr $C$DW$6, DW_AT_name("_InitSysCtrl")
      81                      .dwattr $C$DW$6, DW_AT_TI_call
      82              
      83 00000000 7640!         LCR       #_InitSysCtrl         ; [CPU_ALU] |11| 
         00000001 0000 
      84                      ; call occurs [#_InitSysCtrl] ; [] |11| 
      85                      .dwpsn  file "../main.c",line 13,column 5,is_stmt,isa 0
      86              $C$DW$7 .dwtag  DW_TAG_TI_branch
      87                      .dwattr $C$DW$7, DW_AT_low_pc(0x00)
      88                      .dwattr $C$DW$7, DW_AT_name("_InitGpio")
      89                      .dwattr $C$DW$7, DW_AT_TI_call
      90              
      91 00000002 7640!         LCR       #_InitGpio            ; [CPU_ALU] |13| 
         00000003 0000 
      92                      ; call occurs [#_InitGpio] ; [] |13| 
      93                      .dwpsn  file "../main.c",line 15,column 5,is_stmt,isa 0
      94 00000004 3B10   setc INTM
      95                      .dwpsn  file "../main.c",line 16,column 5,is_stmt,isa 0
      96 00000005 FF69          SPM       #0                    ; [CPU_ALU] 
      97              $C$DW$8 .dwtag  DW_TAG_TI_branch
      98                      .dwattr $C$DW$8, DW_AT_low_pc(0x00)
      99                      .dwattr $C$DW$8, DW_AT_name("_InitPieCtrl")
     100                      .dwattr $C$DW$8, DW_AT_TI_call
     101              
     102 00000006 7640!         LCR       #_InitPieCtrl         ; [CPU_ALU] |16| 
         00000007 0000 
     103                      ; call occurs [#_InitPieCtrl] ; [] |16| 
     104                      .dwpsn  file "../main.c",line 17,column 5,is_stmt,isa 0
     105 00000008 7626          AND       IER,#0x0000           ; [CPU_ALU] |17| 
         00000009 0000 
     106                      .dwpsn  file "../main.c",line 18,column 5,is_stmt,isa 0
TMS320C2000 Assembler PC v18.1.2 Fri Dec 14 19:43:25 2018

Tools Copyright (c) 1996-2017 Texas Instruments Incorporated
main.asm                                                             PAGE    3

     107 0000000a 762F          AND       IFR,#0x0000           ; [CPU_ALU] |18| 
         0000000b 0000 
     108                      .dwpsn  file "../main.c",line 19,column 5,is_stmt,isa 0
     109              $C$DW$9 .dwtag  DW_TAG_TI_branch
     110                      .dwattr $C$DW$9, DW_AT_low_pc(0x00)
     111                      .dwattr $C$DW$9, DW_AT_name("_InitPieVectTable")
     112                      .dwattr $C$DW$9, DW_AT_TI_call
     113              
     114 0000000c 7640!         LCR       #_InitPieVectTable    ; [CPU_ALU] |19| 
         0000000d 0000 
     115                      ; call occurs [#_InitPieVectTable] ; [] |19| 
     116                      .dwpsn  file "../main.c",line 20,column 5,is_stmt,isa 0
     117 0000000e 2910   clrc INTM
     118                      .dwpsn  file "../main.c",line 22,column 11,is_stmt,isa 0
     119 0000000f       $C$L1:    
     120 0000000f 6F00          B         $C$L1,UNC             ; [CPU_ALU] |22| 
     121                      ; branch occurs ; [] |22| 
     122                      .dwattr $C$DW$5, DW_AT_TI_end_file("../main.c")
     123                      .dwattr $C$DW$5, DW_AT_TI_end_line(0x1a)
     124                      .dwattr $C$DW$5, DW_AT_TI_end_column(0x01)
     125                      .dwendentry
     126                      .dwendtag $C$DW$5
     127              
     128              ;**************************************************************
     129              ;* UNDEFINED EXTERNAL REFERENCES                              *
     130              ;**************************************************************
     131                      .global _InitGpio
     132                      .global _InitSysCtrl
     133                      .global _InitPieVectTable
     134                      .global _InitPieCtrl
     135              
     136              ;***************************************************************
     137              ;* TYPE INFORMATION                                            *
     138              ;***************************************************************
     139              $C$DW$T$2       .dwtag  DW_TAG_unspecified_type
     140                      .dwattr $C$DW$T$2, DW_AT_name("void")
     141              
     142              $C$DW$T$4       .dwtag  DW_TAG_base_type
     143                      .dwattr $C$DW$T$4, DW_AT_encoding(DW_ATE_boolean)
     144                      .dwattr $C$DW$T$4, DW_AT_name("bool")
     145                      .dwattr $C$DW$T$4, DW_AT_byte_size(0x01)
     146              
     147              $C$DW$T$5       .dwtag  DW_TAG_base_type
     148                      .dwattr $C$DW$T$5, DW_AT_encoding(DW_ATE_signed_char)
     149                      .dwattr $C$DW$T$5, DW_AT_name("signed char")
     150                      .dwattr $C$DW$T$5, DW_AT_byte_size(0x01)
     151              
     152              $C$DW$T$6       .dwtag  DW_TAG_base_type
     153                      .dwattr $C$DW$T$6, DW_AT_encoding(DW_ATE_unsigned_char)
     154                      .dwattr $C$DW$T$6, DW_AT_name("unsigned char")
     155                      .dwattr $C$DW$T$6, DW_AT_byte_size(0x01)
     156              
     157              $C$DW$T$7       .dwtag  DW_TAG_base_type
     158                      .dwattr $C$DW$T$7, DW_AT_encoding(DW_ATE_signed_char)
     159                      .dwattr $C$DW$T$7, DW_AT_name("wchar_t")
TMS320C2000 Assembler PC v18.1.2 Fri Dec 14 19:43:25 2018

Tools Copyright (c) 1996-2017 Texas Instruments Incorporated
main.asm                                                             PAGE    4

     160                      .dwattr $C$DW$T$7, DW_AT_byte_size(0x01)
     161              
     162              $C$DW$T$8       .dwtag  DW_TAG_base_type
     163                      .dwattr $C$DW$T$8, DW_AT_encoding(DW_ATE_signed)
     164                      .dwattr $C$DW$T$8, DW_AT_name("short")
     165                      .dwattr $C$DW$T$8, DW_AT_byte_size(0x01)
     166              
     167              $C$DW$T$9       .dwtag  DW_TAG_base_type
     168                      .dwattr $C$DW$T$9, DW_AT_encoding(DW_ATE_unsigned)
     169                      .dwattr $C$DW$T$9, DW_AT_name("unsigned short")
     170                      .dwattr $C$DW$T$9, DW_AT_byte_size(0x01)
     171              
     172              $C$DW$T$10      .dwtag  DW_TAG_base_type
     173                      .dwattr $C$DW$T$10, DW_AT_encoding(DW_ATE_signed)
     174                      .dwattr $C$DW$T$10, DW_AT_name("int")
     175                      .dwattr $C$DW$T$10, DW_AT_byte_size(0x01)
     176              
     177              $C$DW$T$11      .dwtag  DW_TAG_base_type
     178                      .dwattr $C$DW$T$11, DW_AT_encoding(DW_ATE_unsigned)
     179                      .dwattr $C$DW$T$11, DW_AT_name("unsigned int")
     180                      .dwattr $C$DW$T$11, DW_AT_byte_size(0x01)
     181              
     182              $C$DW$T$12      .dwtag  DW_TAG_base_type
     183                      .dwattr $C$DW$T$12, DW_AT_encoding(DW_ATE_signed)
     184                      .dwattr $C$DW$T$12, DW_AT_name("long")
     185                      .dwattr $C$DW$T$12, DW_AT_byte_size(0x02)
     186              
     187              $C$DW$T$13      .dwtag  DW_TAG_base_type
     188                      .dwattr $C$DW$T$13, DW_AT_encoding(DW_ATE_unsigned)
     189                      .dwattr $C$DW$T$13, DW_AT_name("unsigned long")
     190                      .dwattr $C$DW$T$13, DW_AT_byte_size(0x02)
     191              
     192              $C$DW$T$14      .dwtag  DW_TAG_base_type
     193                      .dwattr $C$DW$T$14, DW_AT_encoding(DW_ATE_signed)
     194                      .dwattr $C$DW$T$14, DW_AT_name("long long")
     195                      .dwattr $C$DW$T$14, DW_AT_byte_size(0x04)
     196              
     197              $C$DW$T$15      .dwtag  DW_TAG_base_type
     198                      .dwattr $C$DW$T$15, DW_AT_encoding(DW_ATE_unsigned)
     199                      .dwattr $C$DW$T$15, DW_AT_name("unsigned long long")
     200                      .dwattr $C$DW$T$15, DW_AT_byte_size(0x04)
     201              
     202              $C$DW$T$16      .dwtag  DW_TAG_base_type
     203                      .dwattr $C$DW$T$16, DW_AT_encoding(DW_ATE_float)
     204                      .dwattr $C$DW$T$16, DW_AT_name("float")
     205                      .dwattr $C$DW$T$16, DW_AT_byte_size(0x02)
     206              
     207              $C$DW$T$17      .dwtag  DW_TAG_base_type
     208                      .dwattr $C$DW$T$17, DW_AT_encoding(DW_ATE_float)
     209                      .dwattr $C$DW$T$17, DW_AT_name("double")
     210                      .dwattr $C$DW$T$17, DW_AT_byte_size(0x02)
     211              
     212              $C$DW$T$18      .dwtag  DW_TAG_base_type
     213                      .dwattr $C$DW$T$18, DW_AT_encoding(DW_ATE_float)
     214                      .dwattr $C$DW$T$18, DW_AT_name("long double")
TMS320C2000 Assembler PC v18.1.2 Fri Dec 14 19:43:25 2018

Tools Copyright (c) 1996-2017 Texas Instruments Incorporated
main.asm                                                             PAGE    5

     215                      .dwattr $C$DW$T$18, DW_AT_byte_size(0x04)
     216              
     217                      .dwattr $C$DW$CU, DW_AT_language(DW_LANG_C)
     218              
     219              ;***************************************************************
     220              ;* DWARF CIE ENTRIES                                           *
     221              ;***************************************************************
     222              
     223              $C$DW$CIE       .dwcie 26
     224                      .dwcfi  cfa_register, 20
     225                      .dwcfi  cfa_offset, 0
     226                      .dwcfi  same_value, 28
     227                      .dwcfi  same_value, 6
     228                      .dwcfi  same_value, 7
     229                      .dwcfi  same_value, 8
     230                      .dwcfi  same_value, 9
     231                      .dwcfi  same_value, 10
     232                      .dwcfi  same_value, 11
     233                      .dwcfi  same_value, 59
     234                      .dwcfi  same_value, 60
     235                      .dwcfi  same_value, 63
     236                      .dwcfi  same_value, 64
     237                      .dwcfi  same_value, 67
     238                      .dwcfi  same_value, 68
     239                      .dwcfi  same_value, 71
     240                      .dwcfi  same_value, 72
     241                      .dwendentry
     242              
     243              ;***************************************************************
     244              ;* DWARF REGISTER MAP                                          *
     245              ;***************************************************************
     246              
     247              $C$DW$10        .dwtag  DW_TAG_TI_assign_register
     248                      .dwattr $C$DW$10, DW_AT_name("AL")
     249                      .dwattr $C$DW$10, DW_AT_location[DW_OP_reg0]
     250              
     251              $C$DW$11        .dwtag  DW_TAG_TI_assign_register
     252                      .dwattr $C$DW$11, DW_AT_name("AH")
     253                      .dwattr $C$DW$11, DW_AT_location[DW_OP_reg1]
     254              
     255              $C$DW$12        .dwtag  DW_TAG_TI_assign_register
     256                      .dwattr $C$DW$12, DW_AT_name("PL")
     257                      .dwattr $C$DW$12, DW_AT_location[DW_OP_reg2]
     258              
     259              $C$DW$13        .dwtag  DW_TAG_TI_assign_register
     260                      .dwattr $C$DW$13, DW_AT_name("PH")
     261                      .dwattr $C$DW$13, DW_AT_location[DW_OP_reg3]
     262              
     263              $C$DW$14        .dwtag  DW_TAG_TI_assign_register
     264                      .dwattr $C$DW$14, DW_AT_name("SP")
     265                      .dwattr $C$DW$14, DW_AT_location[DW_OP_reg20]
     266              
     267              $C$DW$15        .dwtag  DW_TAG_TI_assign_register
     268                      .dwattr $C$DW$15, DW_AT_name("XT")
     269                      .dwattr $C$DW$15, DW_AT_location[DW_OP_reg21]
TMS320C2000 Assembler PC v18.1.2 Fri Dec 14 19:43:25 2018

Tools Copyright (c) 1996-2017 Texas Instruments Incorporated
main.asm                                                             PAGE    6

     270              
     271              $C$DW$16        .dwtag  DW_TAG_TI_assign_register
     272                      .dwattr $C$DW$16, DW_AT_name("T")
     273                      .dwattr $C$DW$16, DW_AT_location[DW_OP_reg22]
     274              
     275              $C$DW$17        .dwtag  DW_TAG_TI_assign_register
     276                      .dwattr $C$DW$17, DW_AT_name("ST0")
     277                      .dwattr $C$DW$17, DW_AT_location[DW_OP_reg23]
     278              
     279              $C$DW$18        .dwtag  DW_TAG_TI_assign_register
     280                      .dwattr $C$DW$18, DW_AT_name("ST1")
     281                      .dwattr $C$DW$18, DW_AT_location[DW_OP_reg24]
     282              
     283              $C$DW$19        .dwtag  DW_TAG_TI_assign_register
     284                      .dwattr $C$DW$19, DW_AT_name("PC")
     285                      .dwattr $C$DW$19, DW_AT_location[DW_OP_reg25]
     286              
     287              $C$DW$20        .dwtag  DW_TAG_TI_assign_register
     288                      .dwattr $C$DW$20, DW_AT_name("RPC")
     289                      .dwattr $C$DW$20, DW_AT_location[DW_OP_reg26]
     290              
     291              $C$DW$21        .dwtag  DW_TAG_TI_assign_register
     292                      .dwattr $C$DW$21, DW_AT_name("FP")
     293                      .dwattr $C$DW$21, DW_AT_location[DW_OP_reg28]
     294              
     295              $C$DW$22        .dwtag  DW_TAG_TI_assign_register
     296                      .dwattr $C$DW$22, DW_AT_name("DP")
     297                      .dwattr $C$DW$22, DW_AT_location[DW_OP_reg29]
     298              
     299              $C$DW$23        .dwtag  DW_TAG_TI_assign_register
     300                      .dwattr $C$DW$23, DW_AT_name("SXM")
     301                      .dwattr $C$DW$23, DW_AT_location[DW_OP_reg30]
     302              
     303              $C$DW$24        .dwtag  DW_TAG_TI_assign_register
     304                      .dwattr $C$DW$24, DW_AT_name("PM")
     305                      .dwattr $C$DW$24, DW_AT_location[DW_OP_reg31]
     306              
     307              $C$DW$25        .dwtag  DW_TAG_TI_assign_register
     308                      .dwattr $C$DW$25, DW_AT_name("OVM")
     309                      .dwattr $C$DW$25, DW_AT_location[DW_OP_regx 0x20]
     310              
     311              $C$DW$26        .dwtag  DW_TAG_TI_assign_register
     312                      .dwattr $C$DW$26, DW_AT_name("PAGE0")
     313                      .dwattr $C$DW$26, DW_AT_location[DW_OP_regx 0x21]
     314              
     315              $C$DW$27        .dwtag  DW_TAG_TI_assign_register
     316                      .dwattr $C$DW$27, DW_AT_name("AMODE")
     317                      .dwattr $C$DW$27, DW_AT_location[DW_OP_regx 0x22]
     318              
     319              $C$DW$28        .dwtag  DW_TAG_TI_assign_register
     320                      .dwattr $C$DW$28, DW_AT_name("EALLOW")
     321                      .dwattr $C$DW$28, DW_AT_location[DW_OP_regx 0x4e]
     322              
     323              $C$DW$29        .dwtag  DW_TAG_TI_assign_register
     324                      .dwattr $C$DW$29, DW_AT_name("INTM")
TMS320C2000 Assembler PC v18.1.2 Fri Dec 14 19:43:25 2018

Tools Copyright (c) 1996-2017 Texas Instruments Incorporated
main.asm                                                             PAGE    7

     325                      .dwattr $C$DW$29, DW_AT_location[DW_OP_regx 0x23]
     326              
     327              $C$DW$30        .dwtag  DW_TAG_TI_assign_register
     328                      .dwattr $C$DW$30, DW_AT_name("IFR")
     329                      .dwattr $C$DW$30, DW_AT_location[DW_OP_regx 0x24]
     330              
     331              $C$DW$31        .dwtag  DW_TAG_TI_assign_register
     332                      .dwattr $C$DW$31, DW_AT_name("IER")
     333                      .dwattr $C$DW$31, DW_AT_location[DW_OP_regx 0x25]
     334              
     335              $C$DW$32        .dwtag  DW_TAG_TI_assign_register
     336                      .dwattr $C$DW$32, DW_AT_name("V")
     337                      .dwattr $C$DW$32, DW_AT_location[DW_OP_regx 0x26]
     338              
     339              $C$DW$33        .dwtag  DW_TAG_TI_assign_register
     340                      .dwattr $C$DW$33, DW_AT_name("PSEUDOH")
     341                      .dwattr $C$DW$33, DW_AT_location[DW_OP_regx 0x4c]
     342              
     343              $C$DW$34        .dwtag  DW_TAG_TI_assign_register
     344                      .dwattr $C$DW$34, DW_AT_name("VOL")
     345                      .dwattr $C$DW$34, DW_AT_location[DW_OP_regx 0x4d]
     346              
     347              $C$DW$35        .dwtag  DW_TAG_TI_assign_register
     348                      .dwattr $C$DW$35, DW_AT_name("AR0")
     349                      .dwattr $C$DW$35, DW_AT_location[DW_OP_reg4]
     350              
     351              $C$DW$36        .dwtag  DW_TAG_TI_assign_register
     352                      .dwattr $C$DW$36, DW_AT_name("XAR0")
     353                      .dwattr $C$DW$36, DW_AT_location[DW_OP_reg5]
     354              
     355              $C$DW$37        .dwtag  DW_TAG_TI_assign_register
     356                      .dwattr $C$DW$37, DW_AT_name("AR1")
     357                      .dwattr $C$DW$37, DW_AT_location[DW_OP_reg6]
     358              
     359              $C$DW$38        .dwtag  DW_TAG_TI_assign_register
     360                      .dwattr $C$DW$38, DW_AT_name("XAR1")
     361                      .dwattr $C$DW$38, DW_AT_location[DW_OP_reg7]
     362              
     363              $C$DW$39        .dwtag  DW_TAG_TI_assign_register
     364                      .dwattr $C$DW$39, DW_AT_name("AR2")
     365                      .dwattr $C$DW$39, DW_AT_location[DW_OP_reg8]
     366              
     367              $C$DW$40        .dwtag  DW_TAG_TI_assign_register
     368                      .dwattr $C$DW$40, DW_AT_name("XAR2")
     369                      .dwattr $C$DW$40, DW_AT_location[DW_OP_reg9]
     370              
     371              $C$DW$41        .dwtag  DW_TAG_TI_assign_register
     372                      .dwattr $C$DW$41, DW_AT_name("AR3")
     373                      .dwattr $C$DW$41, DW_AT_location[DW_OP_reg10]
     374              
     375              $C$DW$42        .dwtag  DW_TAG_TI_assign_register
     376                      .dwattr $C$DW$42, DW_AT_name("XAR3")
     377                      .dwattr $C$DW$42, DW_AT_location[DW_OP_reg11]
     378              
     379              $C$DW$43        .dwtag  DW_TAG_TI_assign_register
TMS320C2000 Assembler PC v18.1.2 Fri Dec 14 19:43:25 2018

Tools Copyright (c) 1996-2017 Texas Instruments Incorporated
main.asm                                                             PAGE    8

     380                      .dwattr $C$DW$43, DW_AT_name("AR4")
     381                      .dwattr $C$DW$43, DW_AT_location[DW_OP_reg12]
     382              
     383              $C$DW$44        .dwtag  DW_TAG_TI_assign_register
     384                      .dwattr $C$DW$44, DW_AT_name("XAR4")
     385                      .dwattr $C$DW$44, DW_AT_location[DW_OP_reg13]
     386              
     387              $C$DW$45        .dwtag  DW_TAG_TI_assign_register
     388                      .dwattr $C$DW$45, DW_AT_name("AR5")
     389                      .dwattr $C$DW$45, DW_AT_location[DW_OP_reg14]
     390              
     391              $C$DW$46        .dwtag  DW_TAG_TI_assign_register
     392                      .dwattr $C$DW$46, DW_AT_name("XAR5")
     393                      .dwattr $C$DW$46, DW_AT_location[DW_OP_reg15]
     394              
     395              $C$DW$47        .dwtag  DW_TAG_TI_assign_register
     396                      .dwattr $C$DW$47, DW_AT_name("AR6")
     397                      .dwattr $C$DW$47, DW_AT_location[DW_OP_reg16]
     398              
     399              $C$DW$48        .dwtag  DW_TAG_TI_assign_register
     400                      .dwattr $C$DW$48, DW_AT_name("XAR6")
     401                      .dwattr $C$DW$48, DW_AT_location[DW_OP_reg17]
     402              
     403              $C$DW$49        .dwtag  DW_TAG_TI_assign_register
     404                      .dwattr $C$DW$49, DW_AT_name("AR7")
     405                      .dwattr $C$DW$49, DW_AT_location[DW_OP_reg18]
     406              
     407              $C$DW$50        .dwtag  DW_TAG_TI_assign_register
     408                      .dwattr $C$DW$50, DW_AT_name("XAR7")
     409                      .dwattr $C$DW$50, DW_AT_location[DW_OP_reg19]
     410              
     411              $C$DW$51        .dwtag  DW_TAG_TI_assign_register
     412                      .dwattr $C$DW$51, DW_AT_name("R0H")
     413                      .dwattr $C$DW$51, DW_AT_location[DW_OP_regx 0x2b]
     414              
     415              $C$DW$52        .dwtag  DW_TAG_TI_assign_register
     416                      .dwattr $C$DW$52, DW_AT_name("R0HH")
     417                      .dwattr $C$DW$52, DW_AT_location[DW_OP_regx 0x2c]
     418              
     419              $C$DW$53        .dwtag  DW_TAG_TI_assign_register
     420                      .dwattr $C$DW$53, DW_AT_name("R1H")
     421                      .dwattr $C$DW$53, DW_AT_location[DW_OP_regx 0x2f]
     422              
     423              $C$DW$54        .dwtag  DW_TAG_TI_assign_register
     424                      .dwattr $C$DW$54, DW_AT_name("R1HH")
     425                      .dwattr $C$DW$54, DW_AT_location[DW_OP_regx 0x30]
     426              
     427              $C$DW$55        .dwtag  DW_TAG_TI_assign_register
     428                      .dwattr $C$DW$55, DW_AT_name("R2H")
     429                      .dwattr $C$DW$55, DW_AT_location[DW_OP_regx 0x33]
     430              
     431              $C$DW$56        .dwtag  DW_TAG_TI_assign_register
     432                      .dwattr $C$DW$56, DW_AT_name("R2HH")
     433                      .dwattr $C$DW$56, DW_AT_location[DW_OP_regx 0x34]
     434              
TMS320C2000 Assembler PC v18.1.2 Fri Dec 14 19:43:25 2018

Tools Copyright (c) 1996-2017 Texas Instruments Incorporated
main.asm                                                             PAGE    9

     435              $C$DW$57        .dwtag  DW_TAG_TI_assign_register
     436                      .dwattr $C$DW$57, DW_AT_name("R3H")
     437                      .dwattr $C$DW$57, DW_AT_location[DW_OP_regx 0x37]
     438              
     439              $C$DW$58        .dwtag  DW_TAG_TI_assign_register
     440                      .dwattr $C$DW$58, DW_AT_name("R3HH")
     441                      .dwattr $C$DW$58, DW_AT_location[DW_OP_regx 0x38]
     442              
     443              $C$DW$59        .dwtag  DW_TAG_TI_assign_register
     444                      .dwattr $C$DW$59, DW_AT_name("R4H")
     445                      .dwattr $C$DW$59, DW_AT_location[DW_OP_regx 0x3b]
     446              
     447              $C$DW$60        .dwtag  DW_TAG_TI_assign_register
     448                      .dwattr $C$DW$60, DW_AT_name("R4HH")
     449                      .dwattr $C$DW$60, DW_AT_location[DW_OP_regx 0x3c]
     450              
     451              $C$DW$61        .dwtag  DW_TAG_TI_assign_register
     452                      .dwattr $C$DW$61, DW_AT_name("R5H")
     453                      .dwattr $C$DW$61, DW_AT_location[DW_OP_regx 0x3f]
     454              
     455              $C$DW$62        .dwtag  DW_TAG_TI_assign_register
     456                      .dwattr $C$DW$62, DW_AT_name("R5HH")
     457                      .dwattr $C$DW$62, DW_AT_location[DW_OP_regx 0x40]
     458              
     459              $C$DW$63        .dwtag  DW_TAG_TI_assign_register
     460                      .dwattr $C$DW$63, DW_AT_name("R6H")
     461                      .dwattr $C$DW$63, DW_AT_location[DW_OP_regx 0x43]
     462              
     463              $C$DW$64        .dwtag  DW_TAG_TI_assign_register
     464                      .dwattr $C$DW$64, DW_AT_name("R6HH")
     465                      .dwattr $C$DW$64, DW_AT_location[DW_OP_regx 0x44]
     466              
     467              $C$DW$65        .dwtag  DW_TAG_TI_assign_register
     468                      .dwattr $C$DW$65, DW_AT_name("R7H")
     469                      .dwattr $C$DW$65, DW_AT_location[DW_OP_regx 0x47]
     470              
     471              $C$DW$66        .dwtag  DW_TAG_TI_assign_register
     472                      .dwattr $C$DW$66, DW_AT_name("R7HH")
     473                      .dwattr $C$DW$66, DW_AT_location[DW_OP_regx 0x48]
     474              
     475              $C$DW$67        .dwtag  DW_TAG_TI_assign_register
     476                      .dwattr $C$DW$67, DW_AT_name("RBL")
     477                      .dwattr $C$DW$67, DW_AT_location[DW_OP_regx 0x49]
     478              
     479              $C$DW$68        .dwtag  DW_TAG_TI_assign_register
     480                      .dwattr $C$DW$68, DW_AT_name("RB")
     481                      .dwattr $C$DW$68, DW_AT_location[DW_OP_regx 0x4a]
     482              
     483              $C$DW$69        .dwtag  DW_TAG_TI_assign_register
     484                      .dwattr $C$DW$69, DW_AT_name("STFL")
     485                      .dwattr $C$DW$69, DW_AT_location[DW_OP_regx 0x27]
     486              
     487              $C$DW$70        .dwtag  DW_TAG_TI_assign_register
     488                      .dwattr $C$DW$70, DW_AT_name("STF")
     489                      .dwattr $C$DW$70, DW_AT_location[DW_OP_regx 0x28]
TMS320C2000 Assembler PC v18.1.2 Fri Dec 14 19:43:25 2018

Tools Copyright (c) 1996-2017 Texas Instruments Incorporated
main.asm                                                             PAGE   10

     490              
     491              $C$DW$71        .dwtag  DW_TAG_TI_assign_register
     492                      .dwattr $C$DW$71, DW_AT_name("FPUHAZ")
     493                      .dwattr $C$DW$71, DW_AT_location[DW_OP_reg27]
     494              
     495                      .dwendtag $C$DW$CU
     496              

No Assembly Errors, No Assembly Warnings
