TMS320C2000 Assembler PC v18.1.2 Fri Dec 14 17:55:26 2018

Tools Copyright (c) 1996-2017 Texas Instruments Incorporated
F2837xD_Gpio.asm                                                     PAGE    1

       1              ;***************************************************************
       2              ;* TMS320C2000 C/C++ Codegen                    PC v18.1.2.LTS *
       3              ;* Date/Time created: Fri Dec 14 17:55:25 2018                 *
       4              ;***************************************************************
       5                      .compiler_opts --abi=coffabi --cla_support=cla1 --diag_wrap=off --float_support=fpu32 --hll_source=on
       6                      .asg    XAR2, FP
       7              
       8              $C$DW$CU        .dwtag  DW_TAG_compile_unit
       9                      .dwattr $C$DW$CU, DW_AT_name("../F2837xD/F2837xD_Gpio.c")
      10                      .dwattr $C$DW$CU, DW_AT_producer("TI TMS320C2000 C/C++ Codegen PC v18.1.2.LTS Copyright (c) 1996-2017
      11                      .dwattr $C$DW$CU, DW_AT_TI_version(0x01)
      12                      .dwattr $C$DW$CU, DW_AT_comp_dir("D:\WorkSpace\CCS_WorkSpace\CanTest\Debug")
      13              $C$DW$1 .dwtag  DW_TAG_variable
      14                      .dwattr $C$DW$1, DW_AT_name("InputXbarRegs")
      15                      .dwattr $C$DW$1, DW_AT_TI_symbol_name("_InputXbarRegs")
      16                      .dwattr $C$DW$1, DW_AT_type(*$C$DW$T$404)
      17                      .dwattr $C$DW$1, DW_AT_declaration
      18                      .dwattr $C$DW$1, DW_AT_external
      19              
      20              $C$DW$2 .dwtag  DW_TAG_variable
      21                      .dwattr $C$DW$2, DW_AT_name("GpioDataRegs")
      22                      .dwattr $C$DW$2, DW_AT_TI_symbol_name("_GpioDataRegs")
      23                      .dwattr $C$DW$2, DW_AT_type(*$C$DW$T$402)
      24                      .dwattr $C$DW$2, DW_AT_declaration
      25                      .dwattr $C$DW$2, DW_AT_external
      26              
      27              $C$DW$3 .dwtag  DW_TAG_variable
      28                      .dwattr $C$DW$3, DW_AT_name("DevCfgRegs")
      29                      .dwattr $C$DW$3, DW_AT_TI_symbol_name("_DevCfgRegs")
      30                      .dwattr $C$DW$3, DW_AT_type(*$C$DW$T$387)
      31                      .dwattr $C$DW$3, DW_AT_declaration
      32                      .dwattr $C$DW$3, DW_AT_external
      33              
      34              $C$DW$4 .dwtag  DW_TAG_variable
      35                      .dwattr $C$DW$4, DW_AT_name("GpioCtrlRegs")
      36                      .dwattr $C$DW$4, DW_AT_TI_symbol_name("_GpioCtrlRegs")
      37                      .dwattr $C$DW$4, DW_AT_type(*$C$DW$T$400)
      38                      .dwattr $C$DW$4, DW_AT_declaration
      39                      .dwattr $C$DW$4, DW_AT_external
      40              
      41              ;       D:\ProgramFiles\ti\ccsv8\tools\compiler\ti-cgt-c2000_18.1.2.LTS\bin\ac2000.exe -@C:\\Users\\qd\\AppDa
      42 00000000               .sect   ".text"
      43                      .clink
      44                      .global _InitGpio
      45              
      46              $C$DW$5 .dwtag  DW_TAG_subprogram
      47                      .dwattr $C$DW$5, DW_AT_name("InitGpio")
      48                      .dwattr $C$DW$5, DW_AT_low_pc(_InitGpio)
      49                      .dwattr $C$DW$5, DW_AT_high_pc(0x00)
      50                      .dwattr $C$DW$5, DW_AT_TI_symbol_name("_InitGpio")
      51                      .dwattr $C$DW$5, DW_AT_external
      52                      .dwattr $C$DW$5, DW_AT_TI_begin_file("../F2837xD/F2837xD_Gpio.c")
      53                      .dwattr $C$DW$5, DW_AT_TI_begin_line(0x20)
      54                      .dwattr $C$DW$5, DW_AT_TI_begin_column(0x0a)
      55                      .dwattr $C$DW$5, DW_AT_TI_max_frame_size(-6)
TMS320C2000 Assembler PC v18.1.2 Fri Dec 14 17:55:26 2018

Tools Copyright (c) 1996-2017 Texas Instruments Incorporated
F2837xD_Gpio.asm                                                     PAGE    2

      56                      .dwpsn  file "../F2837xD/F2837xD_Gpio.c",line 33,column 5,is_stmt,address _InitGpio,isa 0
      57              
      58                      .dwfde $C$DW$CIE, _InitGpio
      59              
      60              ;***************************************************************
      61              ;* FNAME: _InitGpio                     FR SIZE:   4           *
      62              ;*                                                             *
      63              ;* FUNCTION ENVIRONMENT                                        *
      64              ;*                                                             *
      65              ;* FUNCTION PROPERTIES                                         *
      66              ;*                            0 Parameter,  3 Auto,  0 SOE     *
      67              ;***************************************************************
      68              
      69 00000000       _InitGpio:
      70                      .dwcfi  cfa_offset, -2
      71                      .dwcfi  save_reg_to_mem, 26, 0
      72 00000000 FE04          ADDB      SP,#4                 ; [CPU_ARAU] 
      73                      .dwcfi  cfa_offset, -6
      74              $C$DW$6 .dwtag  DW_TAG_variable
      75                      .dwattr $C$DW$6, DW_AT_name("gpioBaseAddr")
      76                      .dwattr $C$DW$6, DW_AT_TI_symbol_name("_gpioBaseAddr")
      77                      .dwattr $C$DW$6, DW_AT_type(*$C$DW$T$416)
      78                      .dwattr $C$DW$6, DW_AT_location[DW_OP_breg20 -2]
      79              
      80              $C$DW$7 .dwtag  DW_TAG_variable
      81                      .dwattr $C$DW$7, DW_AT_name("regOffset")
      82                      .dwattr $C$DW$7, DW_AT_TI_symbol_name("_regOffset")
      83                      .dwattr $C$DW$7, DW_AT_type(*$C$DW$T$19)
      84                      .dwattr $C$DW$7, DW_AT_location[DW_OP_breg20 -3]
      85              
      86                      .dwpsn  file "../F2837xD/F2837xD_Gpio.c",line 40,column 9,is_stmt,isa 0
      87 00000001 7622   EALLOW
      88                      .dwpsn  file "../F2837xD/F2837xD_Gpio.c",line 41,column 9,is_stmt,isa 0
      89 00000002 0200          MOVB      ACC,#0                ; [CPU_ALU] |41| 
      90 00000003 761F!         MOVW      DP,#_GpioCtrlRegs+60  ; [CPU_ARAU] 
         00000004 0000 
      91 00000005 1E3C!         MOVL      @_GpioCtrlRegs+60,ACC ; [CPU_ALU] |41| 
      92                      .dwpsn  file "../F2837xD/F2837xD_Gpio.c",line 42,column 9,is_stmt,isa 0
      93 00000006 761F!         MOVW      DP,#_GpioCtrlRegs+124 ; [CPU_ARAU] 
         00000007 0001 
      94 00000008 1E3C!         MOVL      @_GpioCtrlRegs+124,ACC ; [CPU_ALU] |42| 
      95                      .dwpsn  file "../F2837xD/F2837xD_Gpio.c",line 43,column 9,is_stmt,isa 0
      96 00000009 761F!         MOVW      DP,#_GpioCtrlRegs+188 ; [CPU_ARAU] 
         0000000a 0002 
      97 0000000b 1E3C!         MOVL      @_GpioCtrlRegs+188,ACC ; [CPU_ALU] |43| 
      98                      .dwpsn  file "../F2837xD/F2837xD_Gpio.c",line 44,column 9,is_stmt,isa 0
      99 0000000c 761F!         MOVW      DP,#_GpioCtrlRegs+252 ; [CPU_ARAU] 
         0000000d 0003 
     100 0000000e 1E3C!         MOVL      @_GpioCtrlRegs+252,ACC ; [CPU_ALU] |44| 
     101                      .dwpsn  file "../F2837xD/F2837xD_Gpio.c",line 45,column 9,is_stmt,isa 0
     102 0000000f 761F!         MOVW      DP,#_GpioCtrlRegs+316 ; [CPU_ARAU] 
         00000010 0004 
     103 00000011 1E3C!         MOVL      @_GpioCtrlRegs+316,ACC ; [CPU_ALU] |45| 
     104                      .dwpsn  file "../F2837xD/F2837xD_Gpio.c",line 46,column 9,is_stmt,isa 0
     105 00000012 761F!         MOVW      DP,#_GpioCtrlRegs+380 ; [CPU_ARAU] 
TMS320C2000 Assembler PC v18.1.2 Fri Dec 14 17:55:26 2018

Tools Copyright (c) 1996-2017 Texas Instruments Incorporated
F2837xD_Gpio.asm                                                     PAGE    3

         00000013 0005 
     106 00000014 1E3C!         MOVL      @_GpioCtrlRegs+380,ACC ; [CPU_ALU] |46| 
     107                      .dwpsn  file "../F2837xD/F2837xD_Gpio.c",line 54,column 9,is_stmt,isa 0
     108 00000015 8F00!         MOVL      XAR4,#_GpioCtrlRegs   ; [CPU_ARAU] |54| 
         00000016 0000 
     109 00000017 A842          MOVL      *-SP[2],XAR4          ; [CPU_ALU] |54| 
     110                      .dwpsn  file "../F2837xD/F2837xD_Gpio.c",line 55,column 14,is_stmt,isa 0
     111 00000018 2B43          MOV       *-SP[3],#0            ; [CPU_ALU] |55| 
     112                      .dwpsn  file "../F2837xD/F2837xD_Gpio.c",line 55,column 29,is_stmt,isa 0
     113 00000019 9243          MOV       AL,*-SP[3]            ; [CPU_ALU] |55| 
     114 0000001a 52C0          CMPB      AL,#192               ; [CPU_ALU] |55| 
     115 0000001b 670F          B         $C$L3,HIS             ; [CPU_ALU] |55| 
     116                      ; branchcc occurs ; [] |55| 
     117 0000001c 2901          CLRC      SXM                   ; [CPU_ALU] 
     118 0000001d BE00          MOVB      XAR6,#0               ; [CPU_ALU] |64| 
     119 0000001e       $C$L1:    
     120                      .dwpsn  file "../F2837xD/F2837xD_Gpio.c",line 62,column 13,is_stmt,isa 0
     121 0000001e 901F          ANDB      AL,#0x1f              ; [CPU_ALU] |62| 
     122 0000001f 5206          CMPB      AL,#6                 ; [CPU_ALU] |62| 
     123 00000020 6106          B         $C$L2,EQ              ; [CPU_ALU] |62| 
     124                      ; branchcc occurs ; [] |62| 
     125                      .dwpsn  file "../F2837xD/F2837xD_Gpio.c",line 64,column 17,is_stmt,isa 0
     126 00000021 5603          MOV       ACC,*-SP[3] << 1      ; [CPU_ALU] |64| 
         00000022 0143 
     127 00000023 0742          ADDL      ACC,*-SP[2]           ; [CPU_ALU] |64| 
     128 00000024 8AA9          MOVL      XAR4,ACC              ; [CPU_ALU] |64| 
     129 00000025 C2C4          MOVL      *+XAR4[0],XAR6        ; [CPU_ALU] |64| 
     130 00000026       $C$L2:    
     131                      .dwpsn  file "../F2837xD/F2837xD_Gpio.c",line 55,column 65,is_stmt,isa 0
     132 00000026 0A43          INC       *-SP[3]               ; [CPU_ALU] |55| 
     133                      .dwpsn  file "../F2837xD/F2837xD_Gpio.c",line 55,column 29,is_stmt,isa 0
     134 00000027 9243          MOV       AL,*-SP[3]            ; [CPU_ALU] |55| 
     135 00000028 52C0          CMPB      AL,#192               ; [CPU_ALU] |55| 
     136 00000029 68F5          B         $C$L1,LO              ; [CPU_ALU] |55| 
     137                      ; branchcc occurs ; [] |55| 
     138 0000002a       $C$L3:    
     139                      .dwpsn  file "../F2837xD/F2837xD_Gpio.c",line 68,column 9,is_stmt,isa 0
     140 0000002a 8F00!         MOVL      XAR4,#_GpioDataRegs   ; [CPU_ARAU] |68| 
         0000002b 0000 
     141 0000002c A842          MOVL      *-SP[2],XAR4          ; [CPU_ALU] |68| 
     142                      .dwpsn  file "../F2837xD/F2837xD_Gpio.c",line 69,column 14,is_stmt,isa 0
     143 0000002d 2B43          MOV       *-SP[3],#0            ; [CPU_ALU] |69| 
     144                      .dwpsn  file "../F2837xD/F2837xD_Gpio.c",line 69,column 29,is_stmt,isa 0
     145 0000002e 9243          MOV       AL,*-SP[3]            ; [CPU_ALU] |69| 
     146 0000002f 5218          CMPB      AL,#24                ; [CPU_ALU] |69| 
     147 00000030 670C          B         $C$L5,HIS             ; [CPU_ALU] |69| 
     148                      ; branchcc occurs ; [] |69| 
     149 00000031 2901          CLRC      SXM                   ; [CPU_ALU] 
     150 00000032 BE00          MOVB      XAR6,#0               ; [CPU_ALU] |71| 
     151 00000033       $C$L4:    
     152                      .dwpsn  file "../F2837xD/F2837xD_Gpio.c",line 71,column 13,is_stmt,isa 0
     153 00000033 5603          MOV       ACC,*-SP[3] << 1      ; [CPU_ALU] |71| 
         00000034 0143 
     154 00000035 0742          ADDL      ACC,*-SP[2]           ; [CPU_ALU] |71| 
     155 00000036 8AA9          MOVL      XAR4,ACC              ; [CPU_ALU] |71| 
TMS320C2000 Assembler PC v18.1.2 Fri Dec 14 17:55:26 2018

Tools Copyright (c) 1996-2017 Texas Instruments Incorporated
F2837xD_Gpio.asm                                                     PAGE    4

     156 00000037 C2C4          MOVL      *+XAR4[0],XAR6        ; [CPU_ALU] |71| 
     157                      .dwpsn  file "../F2837xD/F2837xD_Gpio.c",line 69,column 65,is_stmt,isa 0
     158 00000038 0A43          INC       *-SP[3]               ; [CPU_ALU] |69| 
     159                      .dwpsn  file "../F2837xD/F2837xD_Gpio.c",line 69,column 29,is_stmt,isa 0
     160 00000039 9243          MOV       AL,*-SP[3]            ; [CPU_ALU] |69| 
     161 0000003a 5218          CMPB      AL,#24                ; [CPU_ALU] |69| 
     162 0000003b 68F8          B         $C$L4,LO              ; [CPU_ALU] |69| 
     163                      ; branchcc occurs ; [] |69| 
     164 0000003c       $C$L5:    
     165                      .dwpsn  file "../F2837xD/F2837xD_Gpio.c",line 74,column 9,is_stmt,isa 0
     166 0000003c 761A   EDIS
     167                      .dwpsn  file "../F2837xD/F2837xD_Gpio.c",line 75,column 5,is_stmt,isa 0
     168 0000003d FE84          SUBB      SP,#4                 ; [CPU_ARAU] 
     169                      .dwcfi  cfa_offset, -2
     170 0000003e FF69          SPM       #0                    ; [CPU_ALU] 
     171              $C$DW$8 .dwtag  DW_TAG_TI_branch
     172                      .dwattr $C$DW$8, DW_AT_low_pc(0x00)
     173                      .dwattr $C$DW$8, DW_AT_TI_return
     174              
     175 0000003f 0006          LRETR     ; [CPU_ALU] 
     176                      ; return occurs ; [] 
     177                      .dwattr $C$DW$5, DW_AT_TI_end_file("../F2837xD/F2837xD_Gpio.c")
     178                      .dwattr $C$DW$5, DW_AT_TI_end_line(0x4b)
     179                      .dwattr $C$DW$5, DW_AT_TI_end_column(0x05)
     180                      .dwendentry
     181                      .dwendtag $C$DW$5
     182              
     183 00000040               .sect   ".text"
     184                      .clink
     185                      .global _GPIO_SetupPinMux
     186              
     187              $C$DW$9 .dwtag  DW_TAG_subprogram
     188                      .dwattr $C$DW$9, DW_AT_name("GPIO_SetupPinMux")
     189                      .dwattr $C$DW$9, DW_AT_low_pc(_GPIO_SetupPinMux)
     190                      .dwattr $C$DW$9, DW_AT_high_pc(0x00)
     191                      .dwattr $C$DW$9, DW_AT_TI_symbol_name("_GPIO_SetupPinMux")
     192                      .dwattr $C$DW$9, DW_AT_external
     193                      .dwattr $C$DW$9, DW_AT_TI_begin_file("../F2837xD/F2837xD_Gpio.c")
     194                      .dwattr $C$DW$9, DW_AT_TI_begin_line(0x53)
     195                      .dwattr $C$DW$9, DW_AT_TI_begin_column(0x0a)
     196                      .dwattr $C$DW$9, DW_AT_TI_max_frame_size(-16)
     197                      .dwpsn  file "../F2837xD/F2837xD_Gpio.c",line 84,column 5,is_stmt,address _GPIO_SetupPinMux,isa 0
     198              
     199                      .dwfde $C$DW$CIE, _GPIO_SetupPinMux
     200              $C$DW$10        .dwtag  DW_TAG_formal_parameter
     201                      .dwattr $C$DW$10, DW_AT_name("pin")
     202                      .dwattr $C$DW$10, DW_AT_TI_symbol_name("_pin")
     203                      .dwattr $C$DW$10, DW_AT_type(*$C$DW$T$19)
     204                      .dwattr $C$DW$10, DW_AT_location[DW_OP_reg0]
     205              
     206              $C$DW$11        .dwtag  DW_TAG_formal_parameter
     207                      .dwattr $C$DW$11, DW_AT_name("cpu")
     208                      .dwattr $C$DW$11, DW_AT_TI_symbol_name("_cpu")
     209                      .dwattr $C$DW$11, DW_AT_type(*$C$DW$T$19)
     210                      .dwattr $C$DW$11, DW_AT_location[DW_OP_reg1]
TMS320C2000 Assembler PC v18.1.2 Fri Dec 14 17:55:26 2018

Tools Copyright (c) 1996-2017 Texas Instruments Incorporated
F2837xD_Gpio.asm                                                     PAGE    5

     211              
     212              $C$DW$12        .dwtag  DW_TAG_formal_parameter
     213                      .dwattr $C$DW$12, DW_AT_name("peripheral")
     214                      .dwattr $C$DW$12, DW_AT_TI_symbol_name("_peripheral")
     215                      .dwattr $C$DW$12, DW_AT_type(*$C$DW$T$19)
     216                      .dwattr $C$DW$12, DW_AT_location[DW_OP_reg12]
     217              
     218              
     219              ;***************************************************************
     220              ;* FNAME: _GPIO_SetupPinMux             FR SIZE:  14           *
     221              ;*                                                             *
     222              ;* FUNCTION ENVIRONMENT                                        *
     223              ;*                                                             *
     224              ;* FUNCTION PROPERTIES                                         *
     225              ;*                            0 Parameter, 14 Auto,  0 SOE     *
     226              ;***************************************************************
     227              
     228 00000040       _GPIO_SetupPinMux:
     229                      .dwcfi  cfa_offset, -2
     230                      .dwcfi  save_reg_to_mem, 26, 0
     231 00000040 FE0E          ADDB      SP,#14                ; [CPU_ARAU] 
     232                      .dwcfi  cfa_offset, -16
     233              $C$DW$13        .dwtag  DW_TAG_variable
     234                      .dwattr $C$DW$13, DW_AT_name("gpioBaseAddr")
     235                      .dwattr $C$DW$13, DW_AT_TI_symbol_name("_gpioBaseAddr")
     236                      .dwattr $C$DW$13, DW_AT_type(*$C$DW$T$416)
     237                      .dwattr $C$DW$13, DW_AT_location[DW_OP_breg20 -2]
     238              
     239              $C$DW$14        .dwtag  DW_TAG_variable
     240                      .dwattr $C$DW$14, DW_AT_name("mux")
     241                      .dwattr $C$DW$14, DW_AT_TI_symbol_name("_mux")
     242                      .dwattr $C$DW$14, DW_AT_type(*$C$DW$T$416)
     243                      .dwattr $C$DW$14, DW_AT_location[DW_OP_breg20 -4]
     244              
     245              $C$DW$15        .dwtag  DW_TAG_variable
     246                      .dwattr $C$DW$15, DW_AT_name("gmux")
     247                      .dwattr $C$DW$15, DW_AT_TI_symbol_name("_gmux")
     248                      .dwattr $C$DW$15, DW_AT_type(*$C$DW$T$416)
     249                      .dwattr $C$DW$15, DW_AT_location[DW_OP_breg20 -6]
     250              
     251              $C$DW$16        .dwtag  DW_TAG_variable
     252                      .dwattr $C$DW$16, DW_AT_name("csel")
     253                      .dwattr $C$DW$16, DW_AT_TI_symbol_name("_csel")
     254                      .dwattr $C$DW$16, DW_AT_type(*$C$DW$T$416)
     255                      .dwattr $C$DW$16, DW_AT_location[DW_OP_breg20 -8]
     256              
     257              $C$DW$17        .dwtag  DW_TAG_variable
     258                      .dwattr $C$DW$17, DW_AT_name("pin")
     259                      .dwattr $C$DW$17, DW_AT_TI_symbol_name("_pin")
     260                      .dwattr $C$DW$17, DW_AT_type(*$C$DW$T$19)
     261                      .dwattr $C$DW$17, DW_AT_location[DW_OP_breg20 -9]
     262              
     263              $C$DW$18        .dwtag  DW_TAG_variable
     264                      .dwattr $C$DW$18, DW_AT_name("cpu")
     265                      .dwattr $C$DW$18, DW_AT_TI_symbol_name("_cpu")
TMS320C2000 Assembler PC v18.1.2 Fri Dec 14 17:55:26 2018

Tools Copyright (c) 1996-2017 Texas Instruments Incorporated
F2837xD_Gpio.asm                                                     PAGE    6

     266                      .dwattr $C$DW$18, DW_AT_type(*$C$DW$T$19)
     267                      .dwattr $C$DW$18, DW_AT_location[DW_OP_breg20 -10]
     268              
     269              $C$DW$19        .dwtag  DW_TAG_variable
     270                      .dwattr $C$DW$19, DW_AT_name("peripheral")
     271                      .dwattr $C$DW$19, DW_AT_TI_symbol_name("_peripheral")
     272                      .dwattr $C$DW$19, DW_AT_type(*$C$DW$T$19)
     273                      .dwattr $C$DW$19, DW_AT_location[DW_OP_breg20 -11]
     274              
     275              $C$DW$20        .dwtag  DW_TAG_variable
     276                      .dwattr $C$DW$20, DW_AT_name("pin32")
     277                      .dwattr $C$DW$20, DW_AT_TI_symbol_name("_pin32")
     278                      .dwattr $C$DW$20, DW_AT_type(*$C$DW$T$19)
     279                      .dwattr $C$DW$20, DW_AT_location[DW_OP_breg20 -12]
     280              
     281              $C$DW$21        .dwtag  DW_TAG_variable
     282                      .dwattr $C$DW$21, DW_AT_name("pin16")
     283                      .dwattr $C$DW$21, DW_AT_TI_symbol_name("_pin16")
     284                      .dwattr $C$DW$21, DW_AT_type(*$C$DW$T$19)
     285                      .dwattr $C$DW$21, DW_AT_location[DW_OP_breg20 -13]
     286              
     287              $C$DW$22        .dwtag  DW_TAG_variable
     288                      .dwattr $C$DW$22, DW_AT_name("pin8")
     289                      .dwattr $C$DW$22, DW_AT_TI_symbol_name("_pin8")
     290                      .dwattr $C$DW$22, DW_AT_type(*$C$DW$T$19)
     291                      .dwattr $C$DW$22, DW_AT_location[DW_OP_breg20 -14]
     292              
     293 00000041 7C4B          MOV       *-SP[11],AR4          ; [CPU_ALU] |84| 
     294 00000042 974A          MOV       *-SP[10],AH           ; [CPU_ALU] |84| 
     295 00000043 9649          MOV       *-SP[9],AL            ; [CPU_ALU] |84| 
     296                      .dwpsn  file "../F2837xD/F2837xD_Gpio.c",line 89,column 9,is_stmt,isa 0
     297 00000044 901F          ANDB      AL,#0x1f              ; [CPU_ALU] |89| 
     298 00000045 964C          MOV       *-SP[12],AL           ; [CPU_ALU] |89| 
     299                      .dwpsn  file "../F2837xD/F2837xD_Gpio.c",line 90,column 9,is_stmt,isa 0
     300 00000046 9249          MOV       AL,*-SP[9]            ; [CPU_ALU] |90| 
     301 00000047 900F          ANDB      AL,#0x0f              ; [CPU_ALU] |90| 
     302 00000048 964D          MOV       *-SP[13],AL           ; [CPU_ALU] |90| 
     303                      .dwpsn  file "../F2837xD/F2837xD_Gpio.c",line 91,column 9,is_stmt,isa 0
     304 00000049 9249          MOV       AL,*-SP[9]            ; [CPU_ALU] |91| 
     305 0000004a 9007          ANDB      AL,#0x07              ; [CPU_ALU] |91| 
     306 0000004b 964E          MOV       *-SP[14],AL           ; [CPU_ALU] |91| 
     307                      .dwpsn  file "../F2837xD/F2837xD_Gpio.c",line 92,column 9,is_stmt,isa 0
     308 0000004c 2901          CLRC      SXM                   ; [CPU_ALU] 
     309 0000004d 8F00!         MOVL      XAR4,#_GpioCtrlRegs   ; [CPU_ARAU] |92| 
         0000004e 0000 
     310 0000004f 9249          MOV       AL,*-SP[9]            ; [CPU_ALU] |92| 
     311 00000050 FFC4          LSR       AL,5                  ; [CPU_ALU] |92| 
     312 00000051 FF84          LSL       AL,5                  ; [CPU_ALU] |92| 
     313 00000052 5603          MOV       ACC,AL << 1           ; [CPU_ALU] |92| 
         00000053 01A9 
     314 00000054 5601          ADDL      XAR4,ACC              ; [CPU_ALU] |92| 
         00000055 00A4 
     315 00000056 A842          MOVL      *-SP[2],XAR4          ; [CPU_ALU] |92| 
     316                      .dwpsn  file "../F2837xD/F2837xD_Gpio.c",line 97,column 9,is_stmt,isa 0
     317 00000057 924A          MOV       AL,*-SP[10]           ; [CPU_ALU] |97| 
TMS320C2000 Assembler PC v18.1.2 Fri Dec 14 17:55:26 2018

Tools Copyright (c) 1996-2017 Texas Instruments Incorporated
F2837xD_Gpio.asm                                                     PAGE    7

     318 00000058 5203          CMPB      AL,#3                 ; [CPU_ALU] |97| 
     319 00000059 6670          B         $C$L7,HI              ; [CPU_ALU] |97| 
     320                      ; branchcc occurs ; [] |97| 
     321 0000005a 924B          MOV       AL,*-SP[11]           ; [CPU_ALU] |97| 
     322 0000005b 520F          CMPB      AL,#15                ; [CPU_ALU] |97| 
     323 0000005c 6902          B         $C$L6,LOS             ; [CPU_ALU] |97| 
     324                      ; branchcc occurs ; [] |97| 
     325 0000005d 6F6C          B         $C$L7,UNC             ; [CPU_ALU] |97| 
     326                      ; branch occurs ; [] |97| 
     327 0000005e       $C$L6:    
     328                      .dwpsn  file "../F2837xD/F2837xD_Gpio.c",line 110,column 9,is_stmt,isa 0
     329 0000005e 924C          MOV       AL,*-SP[12]           ; [CPU_ALU] |110| 
     330 0000005f FFC3          LSR       AL,4                  ; [CPU_ALU] |110| 
     331 00000060 5603          MOV       ACC,AL << 1           ; [CPU_ALU] |110| 
         00000061 01A9 
     332 00000062 0742          ADDL      ACC,*-SP[2]           ; [CPU_ALU] |110| 
     333 00000063 0906          ADDB      ACC,#6                ; [CPU_ALU] |110| 
     334 00000064 1E44          MOVL      *-SP[4],ACC           ; [CPU_ALU] |110| 
     335                      .dwpsn  file "../F2837xD/F2837xD_Gpio.c",line 111,column 9,is_stmt,isa 0
     336 00000065 924C          MOV       AL,*-SP[12]           ; [CPU_ALU] |111| 
     337 00000066 FFC3          LSR       AL,4                  ; [CPU_ALU] |111| 
     338 00000067 5603          MOV       ACC,AL << 1           ; [CPU_ALU] |111| 
         00000068 01A9 
     339 00000069 0742          ADDL      ACC,*-SP[2]           ; [CPU_ALU] |111| 
     340 0000006a 0920          ADDB      ACC,#32               ; [CPU_ALU] |111| 
     341 0000006b 1E46          MOVL      *-SP[6],ACC           ; [CPU_ALU] |111| 
     342                      .dwpsn  file "../F2837xD/F2837xD_Gpio.c",line 112,column 9,is_stmt,isa 0
     343 0000006c 924C          MOV       AL,*-SP[12]           ; [CPU_ALU] |112| 
     344 0000006d FFC2          LSR       AL,3                  ; [CPU_ALU] |112| 
     345 0000006e 5603          MOV       ACC,AL << 1           ; [CPU_ALU] |112| 
         0000006f 01A9 
     346 00000070 0742          ADDL      ACC,*-SP[2]           ; [CPU_ALU] |112| 
     347 00000071 0928          ADDB      ACC,#40               ; [CPU_ALU] |112| 
     348 00000072 1E48          MOVL      *-SP[8],ACC           ; [CPU_ALU] |112| 
     349                      .dwpsn  file "../F2837xD/F2837xD_Gpio.c",line 117,column 9,is_stmt,isa 0
     350 00000073 7622   EALLOW
     351                      .dwpsn  file "../F2837xD/F2837xD_Gpio.c",line 127,column 9,is_stmt,isa 0
     352 00000074 FF69          SPM       #0                    ; [CPU_ALU] 
     353 00000075 0203          MOVB      ACC,#3                ; [CPU_ALU] |127| 
     354 00000076 8A44          MOVL      XAR4,*-SP[4]          ; [CPU_ALU] |127| 
     355 00000077 FF5A          MOVL      P,ACC                 ; [CPU_ALU] |127| 
     356 00000078 5603          MOV       ACC,*-SP[13] << #1    ; [CPU_ALU] |127| 
         00000079 014D 
     357 0000007a 16A9          MOVP      T,AL                  ; [CPU_ALU] 
     358 0000007b 563B          LSLL      ACC,T                 ; [CPU_ALU] |127| 
     359 0000007c FF55          NOT       ACC                   ; [CPU_ALU] |127| 
     360 0000007d FF5A          MOVL      P,ACC                 ; [CPU_ALU] |127| 
     361 0000007e 92AB          MOV       AL,PL                 ; [CPU_ALU] |127| 
     362 0000007f C0C4          AND       *+XAR4[0],AL          ; [CPU_ALU] |127| 
     363 00000080 92AA          MOV       AL,PH                 ; [CPU_ALU] |127| 
     364 00000081 C0CC          AND       *+XAR4[1],AL          ; [CPU_ALU] |127| 
     365                      .dwpsn  file "../F2837xD/F2837xD_Gpio.c",line 128,column 9,is_stmt,isa 0
     366 00000082 0203          MOVB      ACC,#3                ; [CPU_ALU] |128| 
     367 00000083 FF5A          MOVL      P,ACC                 ; [CPU_ALU] |128| 
     368 00000084 8A46          MOVL      XAR4,*-SP[6]          ; [CPU_ALU] |128| 
TMS320C2000 Assembler PC v18.1.2 Fri Dec 14 17:55:26 2018

Tools Copyright (c) 1996-2017 Texas Instruments Incorporated
F2837xD_Gpio.asm                                                     PAGE    8

     369 00000085 5603          MOV       ACC,*-SP[13] << #1    ; [CPU_ALU] |128| 
         00000086 014D 
     370 00000087 16A9          MOVP      T,AL                  ; [CPU_ALU] 
     371 00000088 563B          LSLL      ACC,T                 ; [CPU_ALU] |128| 
     372 00000089 FF55          NOT       ACC                   ; [CPU_ALU] |128| 
     373 0000008a FF5A          MOVL      P,ACC                 ; [CPU_ALU] |128| 
     374 0000008b 92AB          MOV       AL,PL                 ; [CPU_ALU] |128| 
     375 0000008c C0C4          AND       *+XAR4[0],AL          ; [CPU_ALU] |128| 
     376 0000008d 92AA          MOV       AL,PH                 ; [CPU_ALU] |128| 
     377 0000008e C0CC          AND       *+XAR4[1],AL          ; [CPU_ALU] |128| 
     378                      .dwpsn  file "../F2837xD/F2837xD_Gpio.c",line 129,column 9,is_stmt,isa 0
     379 0000008f 0203          MOVB      ACC,#3                ; [CPU_ALU] |129| 
     380 00000090 FF5A          MOVL      P,ACC                 ; [CPU_ALU] |129| 
     381 00000091 924B          MOV       AL,*-SP[11]           ; [CPU_ALU] |129| 
     382 00000092 FFC1          LSR       AL,2                  ; [CPU_ALU] |129| 
     383 00000093 88A9          MOVZ      AR6,AL                ; [CPU_ALU] |129| 
     384 00000094 8A46          MOVL      XAR4,*-SP[6]          ; [CPU_ALU] |129| 
     385 00000095 A9A9          MOVL      ACC,P                 ; [CPU_ALU] |129| 
     386 00000096 89A6          AND       ACC,AR6               ; [CPU_ALU] |129| 
     387 00000097 FF5A          MOVL      P,ACC                 ; [CPU_ALU] |129| 
     388 00000098 5603          MOV       ACC,*-SP[13] << #1    ; [CPU_ALU] |129| 
         00000099 014D 
     389 0000009a 16A9          MOVP      T,AL                  ; [CPU_ALU] 
     390 0000009b 563B          LSLL      ACC,T                 ; [CPU_ALU] |129| 
     391 0000009c FF5A          MOVL      P,ACC                 ; [CPU_ALU] |129| 
     392 0000009d 92AB          MOV       AL,PL                 ; [CPU_ALU] |129| 
     393 0000009e 98C4          OR        *+XAR4[0],AL          ; [CPU_ALU] |129| 
     394 0000009f 92AA          MOV       AL,PH                 ; [CPU_ALU] |129| 
     395 000000a0 98CC          OR        *+XAR4[1],AL          ; [CPU_ALU] |129| 
     396                      .dwpsn  file "../F2837xD/F2837xD_Gpio.c",line 130,column 9,is_stmt,isa 0
     397 000000a1 0203          MOVB      ACC,#3                ; [CPU_ALU] |130| 
     398 000000a2 894B          AND       ACC,*-SP[11]          ; [CPU_ALU] |130| 
     399 000000a3 8A44          MOVL      XAR4,*-SP[4]          ; [CPU_FPU] |130| 
     400 000000a4 FF5A          MOVL      P,ACC                 ; [CPU_ALU] |130| 
     401 000000a5 5603          MOV       ACC,*-SP[13] << #1    ; [CPU_ALU] |130| 
         000000a6 014D 
     402 000000a7 16A9          MOVP      T,AL                  ; [CPU_ALU] 
     403 000000a8 563B          LSLL      ACC,T                 ; [CPU_ALU] |130| 
     404 000000a9 FF5A          MOVL      P,ACC                 ; [CPU_ALU] |130| 
     405 000000aa 92AB          MOV       AL,PL                 ; [CPU_ALU] |130| 
     406 000000ab 98C4          OR        *+XAR4[0],AL          ; [CPU_ALU] |130| 
     407 000000ac 92AA          MOV       AL,PH                 ; [CPU_ALU] |130| 
     408 000000ad 98CC          OR        *+XAR4[1],AL          ; [CPU_ALU] |130| 
     409                      .dwpsn  file "../F2837xD/F2837xD_Gpio.c",line 132,column 9,is_stmt,isa 0
     410 000000ae 0203          MOVB      ACC,#3                ; [CPU_ALU] |132| 
     411 000000af FF5A          MOVL      P,ACC                 ; [CPU_ALU] |132| 
     412 000000b0 8A48          MOVL      XAR4,*-SP[8]          ; [CPU_ALU] |132| 
     413 000000b1 5603          MOV       ACC,*-SP[14] << #2    ; [CPU_ALU] |132| 
         000000b2 024E 
     414 000000b3 16A9          MOVP      T,AL                  ; [CPU_ALU] 
     415 000000b4 563B          LSLL      ACC,T                 ; [CPU_ALU] |132| 
     416 000000b5 FF55          NOT       ACC                   ; [CPU_ALU] |132| 
     417 000000b6 FF5A          MOVL      P,ACC                 ; [CPU_ALU] |132| 
     418 000000b7 92AB          MOV       AL,PL                 ; [CPU_ALU] |132| 
     419 000000b8 C0C4          AND       *+XAR4[0],AL          ; [CPU_ALU] |132| 
TMS320C2000 Assembler PC v18.1.2 Fri Dec 14 17:55:26 2018

Tools Copyright (c) 1996-2017 Texas Instruments Incorporated
F2837xD_Gpio.asm                                                     PAGE    9

     420 000000b9 92AA          MOV       AL,PH                 ; [CPU_ALU] |132| 
     421 000000ba C0CC          AND       *+XAR4[1],AL          ; [CPU_ALU] |132| 
     422                      .dwpsn  file "../F2837xD/F2837xD_Gpio.c",line 133,column 9,is_stmt,isa 0
     423 000000bb 0203          MOVB      ACC,#3                ; [CPU_ALU] |133| 
     424 000000bc 894A          AND       ACC,*-SP[10]          ; [CPU_ALU] |133| 
     425 000000bd 8A48          MOVL      XAR4,*-SP[8]          ; [CPU_FPU] |133| 
     426 000000be FF5A          MOVL      P,ACC                 ; [CPU_ALU] |133| 
     427 000000bf 5603          MOV       ACC,*-SP[14] << #2    ; [CPU_ALU] |133| 
         000000c0 024E 
     428 000000c1 16A9          MOVP      T,AL                  ; [CPU_ALU] 
     429 000000c2 563B          LSLL      ACC,T                 ; [CPU_ALU] |133| 
     430 000000c3 FF5A          MOVL      P,ACC                 ; [CPU_ALU] |133| 
     431 000000c4 92AB          MOV       AL,PL                 ; [CPU_ALU] |133| 
     432 000000c5 98C4          OR        *+XAR4[0],AL          ; [CPU_ALU] |133| 
     433 000000c6 92AA          MOV       AL,PH                 ; [CPU_ALU] |133| 
     434 000000c7 98CC          OR        *+XAR4[1],AL          ; [CPU_ALU] |133| 
     435                      .dwpsn  file "../F2837xD/F2837xD_Gpio.c",line 139,column 9,is_stmt,isa 0
     436 000000c8 761A   EDIS
     437                      .dwpsn  file "../F2837xD/F2837xD_Gpio.c",line 140,column 5,is_stmt,isa 0
     438 000000c9       $C$L7:    
     439 000000c9 FE8E          SUBB      SP,#14                ; [CPU_ARAU] 
     440                      .dwcfi  cfa_offset, -2
     441 000000ca FF69          SPM       #0                    ; [CPU_ALU] 
     442              $C$DW$23        .dwtag  DW_TAG_TI_branch
     443                      .dwattr $C$DW$23, DW_AT_low_pc(0x00)
     444                      .dwattr $C$DW$23, DW_AT_TI_return
     445              
     446 000000cb 0006          LRETR     ; [CPU_ALU] 
     447                      ; return occurs ; [] 
     448                      .dwattr $C$DW$9, DW_AT_TI_end_file("../F2837xD/F2837xD_Gpio.c")
     449                      .dwattr $C$DW$9, DW_AT_TI_end_line(0x8c)
     450                      .dwattr $C$DW$9, DW_AT_TI_end_column(0x05)
     451                      .dwendentry
     452                      .dwendtag $C$DW$9
     453              
     454 000000cc               .sect   ".text"
     455                      .clink
     456                      .global _GPIO_SetupPinOptions
     457              
     458              $C$DW$24        .dwtag  DW_TAG_subprogram
     459                      .dwattr $C$DW$24, DW_AT_name("GPIO_SetupPinOptions")
     460                      .dwattr $C$DW$24, DW_AT_low_pc(_GPIO_SetupPinOptions)
     461                      .dwattr $C$DW$24, DW_AT_high_pc(0x00)
     462                      .dwattr $C$DW$24, DW_AT_TI_symbol_name("_GPIO_SetupPinOptions")
     463                      .dwattr $C$DW$24, DW_AT_external
     464                      .dwattr $C$DW$24, DW_AT_TI_begin_file("../F2837xD/F2837xD_Gpio.c")
     465                      .dwattr $C$DW$24, DW_AT_TI_begin_line(0xa6)
     466                      .dwattr $C$DW$24, DW_AT_TI_begin_column(0x0a)
     467                      .dwattr $C$DW$24, DW_AT_TI_max_frame_size(-26)
     468                      .dwpsn  file "../F2837xD/F2837xD_Gpio.c",line 167,column 5,is_stmt,address _GPIO_SetupPinOptions,isa 
     469              
     470                      .dwfde $C$DW$CIE, _GPIO_SetupPinOptions
     471              $C$DW$25        .dwtag  DW_TAG_formal_parameter
     472                      .dwattr $C$DW$25, DW_AT_name("pin")
     473                      .dwattr $C$DW$25, DW_AT_TI_symbol_name("_pin")
TMS320C2000 Assembler PC v18.1.2 Fri Dec 14 17:55:26 2018

Tools Copyright (c) 1996-2017 Texas Instruments Incorporated
F2837xD_Gpio.asm                                                     PAGE   10

     474                      .dwattr $C$DW$25, DW_AT_type(*$C$DW$T$19)
     475                      .dwattr $C$DW$25, DW_AT_location[DW_OP_reg0]
     476              
     477              $C$DW$26        .dwtag  DW_TAG_formal_parameter
     478                      .dwattr $C$DW$26, DW_AT_name("output")
     479                      .dwattr $C$DW$26, DW_AT_TI_symbol_name("_output")
     480                      .dwattr $C$DW$26, DW_AT_type(*$C$DW$T$19)
     481                      .dwattr $C$DW$26, DW_AT_location[DW_OP_reg1]
     482              
     483              $C$DW$27        .dwtag  DW_TAG_formal_parameter
     484                      .dwattr $C$DW$27, DW_AT_name("flags")
     485                      .dwattr $C$DW$27, DW_AT_TI_symbol_name("_flags")
     486                      .dwattr $C$DW$27, DW_AT_type(*$C$DW$T$19)
     487                      .dwattr $C$DW$27, DW_AT_location[DW_OP_reg12]
     488              
     489              
     490              ;***************************************************************
     491              ;* FNAME: _GPIO_SetupPinOptions         FR SIZE:  24           *
     492              ;*                                                             *
     493              ;* FUNCTION ENVIRONMENT                                        *
     494              ;*                                                             *
     495              ;* FUNCTION PROPERTIES                                         *
     496              ;*                            0 Parameter, 23 Auto,  0 SOE     *
     497              ;***************************************************************
     498              
     499 000000cc       _GPIO_SetupPinOptions:
     500                      .dwcfi  cfa_offset, -2
     501                      .dwcfi  save_reg_to_mem, 26, 0
     502 000000cc FE18          ADDB      SP,#24                ; [CPU_ARAU] 
     503                      .dwcfi  cfa_offset, -26
     504              $C$DW$28        .dwtag  DW_TAG_variable
     505                      .dwattr $C$DW$28, DW_AT_name("gpioBaseAddr")
     506                      .dwattr $C$DW$28, DW_AT_TI_symbol_name("_gpioBaseAddr")
     507                      .dwattr $C$DW$28, DW_AT_type(*$C$DW$T$416)
     508                      .dwattr $C$DW$28, DW_AT_location[DW_OP_breg20 -2]
     509              
     510              $C$DW$29        .dwtag  DW_TAG_variable
     511                      .dwattr $C$DW$29, DW_AT_name("dir")
     512                      .dwattr $C$DW$29, DW_AT_TI_symbol_name("_dir")
     513                      .dwattr $C$DW$29, DW_AT_type(*$C$DW$T$416)
     514                      .dwattr $C$DW$29, DW_AT_location[DW_OP_breg20 -4]
     515              
     516              $C$DW$30        .dwtag  DW_TAG_variable
     517                      .dwattr $C$DW$30, DW_AT_name("pud")
     518                      .dwattr $C$DW$30, DW_AT_TI_symbol_name("_pud")
     519                      .dwattr $C$DW$30, DW_AT_type(*$C$DW$T$416)
     520                      .dwattr $C$DW$30, DW_AT_location[DW_OP_breg20 -6]
     521              
     522              $C$DW$31        .dwtag  DW_TAG_variable
     523                      .dwattr $C$DW$31, DW_AT_name("inv")
     524                      .dwattr $C$DW$31, DW_AT_TI_symbol_name("_inv")
     525                      .dwattr $C$DW$31, DW_AT_type(*$C$DW$T$416)
     526                      .dwattr $C$DW$31, DW_AT_location[DW_OP_breg20 -8]
     527              
     528              $C$DW$32        .dwtag  DW_TAG_variable
TMS320C2000 Assembler PC v18.1.2 Fri Dec 14 17:55:26 2018

Tools Copyright (c) 1996-2017 Texas Instruments Incorporated
F2837xD_Gpio.asm                                                     PAGE   11

     529                      .dwattr $C$DW$32, DW_AT_name("odr")
     530                      .dwattr $C$DW$32, DW_AT_TI_symbol_name("_odr")
     531                      .dwattr $C$DW$32, DW_AT_type(*$C$DW$T$416)
     532                      .dwattr $C$DW$32, DW_AT_location[DW_OP_breg20 -10]
     533              
     534              $C$DW$33        .dwtag  DW_TAG_variable
     535                      .dwattr $C$DW$33, DW_AT_name("qsel")
     536                      .dwattr $C$DW$33, DW_AT_TI_symbol_name("_qsel")
     537                      .dwattr $C$DW$33, DW_AT_type(*$C$DW$T$416)
     538                      .dwattr $C$DW$33, DW_AT_location[DW_OP_breg20 -12]
     539              
     540              $C$DW$34        .dwtag  DW_TAG_variable
     541                      .dwattr $C$DW$34, DW_AT_name("pin32")
     542                      .dwattr $C$DW$34, DW_AT_TI_symbol_name("_pin32")
     543                      .dwattr $C$DW$34, DW_AT_type(*$C$DW$T$21)
     544                      .dwattr $C$DW$34, DW_AT_location[DW_OP_breg20 -14]
     545              
     546              $C$DW$35        .dwtag  DW_TAG_variable
     547                      .dwattr $C$DW$35, DW_AT_name("pin16")
     548                      .dwattr $C$DW$35, DW_AT_TI_symbol_name("_pin16")
     549                      .dwattr $C$DW$35, DW_AT_type(*$C$DW$T$21)
     550                      .dwattr $C$DW$35, DW_AT_location[DW_OP_breg20 -16]
     551              
     552              $C$DW$36        .dwtag  DW_TAG_variable
     553                      .dwattr $C$DW$36, DW_AT_name("pinMask")
     554                      .dwattr $C$DW$36, DW_AT_TI_symbol_name("_pinMask")
     555                      .dwattr $C$DW$36, DW_AT_type(*$C$DW$T$21)
     556                      .dwattr $C$DW$36, DW_AT_location[DW_OP_breg20 -18]
     557              
     558              $C$DW$37        .dwtag  DW_TAG_variable
     559                      .dwattr $C$DW$37, DW_AT_name("qual")
     560                      .dwattr $C$DW$37, DW_AT_TI_symbol_name("_qual")
     561                      .dwattr $C$DW$37, DW_AT_type(*$C$DW$T$21)
     562                      .dwattr $C$DW$37, DW_AT_location[DW_OP_breg20 -20]
     563              
     564              $C$DW$38        .dwtag  DW_TAG_variable
     565                      .dwattr $C$DW$38, DW_AT_name("pin")
     566                      .dwattr $C$DW$38, DW_AT_TI_symbol_name("_pin")
     567                      .dwattr $C$DW$38, DW_AT_type(*$C$DW$T$19)
     568                      .dwattr $C$DW$38, DW_AT_location[DW_OP_breg20 -21]
     569              
     570              $C$DW$39        .dwtag  DW_TAG_variable
     571                      .dwattr $C$DW$39, DW_AT_name("output")
     572                      .dwattr $C$DW$39, DW_AT_TI_symbol_name("_output")
     573                      .dwattr $C$DW$39, DW_AT_type(*$C$DW$T$19)
     574                      .dwattr $C$DW$39, DW_AT_location[DW_OP_breg20 -22]
     575              
     576              $C$DW$40        .dwtag  DW_TAG_variable
     577                      .dwattr $C$DW$40, DW_AT_name("flags")
     578                      .dwattr $C$DW$40, DW_AT_TI_symbol_name("_flags")
     579                      .dwattr $C$DW$40, DW_AT_type(*$C$DW$T$19)
     580                      .dwattr $C$DW$40, DW_AT_location[DW_OP_breg20 -23]
     581              
     582 000000cd 7C57          MOV       *-SP[23],AR4          ; [CPU_ALU] |167| 
     583 000000ce 9756          MOV       *-SP[22],AH           ; [CPU_ALU] |167| 
TMS320C2000 Assembler PC v18.1.2 Fri Dec 14 17:55:26 2018

Tools Copyright (c) 1996-2017 Texas Instruments Incorporated
F2837xD_Gpio.asm                                                     PAGE   12

     584 000000cf 9655          MOV       *-SP[21],AL           ; [CPU_ALU] |167| 
     585                      .dwpsn  file "../F2837xD/F2837xD_Gpio.c",line 172,column 9,is_stmt,isa 0
     586 000000d0 901F          ANDB      AL,#0x1f              ; [CPU_ALU] |172| 
     587 000000d1 0EA9          MOVU      ACC,AL                ; [CPU_ALU] |172| 
     588 000000d2 1E4E          MOVL      *-SP[14],ACC          ; [CPU_ALU] |172| 
     589                      .dwpsn  file "../F2837xD/F2837xD_Gpio.c",line 173,column 9,is_stmt,isa 0
     590 000000d3 9255          MOV       AL,*-SP[21]           ; [CPU_ALU] |173| 
     591 000000d4 900F          ANDB      AL,#0x0f              ; [CPU_ALU] |173| 
     592 000000d5 0EA9          MOVU      ACC,AL                ; [CPU_ALU] |173| 
     593 000000d6 1E50          MOVL      *-SP[16],ACC          ; [CPU_ALU] |173| 
     594                      .dwpsn  file "../F2837xD/F2837xD_Gpio.c",line 174,column 9,is_stmt,isa 0
     595 000000d7 2D4E          MOV       T,*-SP[14]            ; [CPU_ALU] |174| 
     596 000000d8 0201          MOVB      ACC,#1                ; [CPU_ALU] |174| 
     597 000000d9 563B          LSLL      ACC,T                 ; [CPU_ALU] |174| 
     598 000000da 1E52          MOVL      *-SP[18],ACC          ; [CPU_ALU] |174| 
     599                      .dwpsn  file "../F2837xD/F2837xD_Gpio.c",line 175,column 9,is_stmt,isa 0
     600 000000db 2901          CLRC      SXM                   ; [CPU_ALU] 
     601 000000dc 8F00!         MOVL      XAR4,#_GpioCtrlRegs   ; [CPU_ARAU] |175| 
         000000dd 0000 
     602 000000de 9255          MOV       AL,*-SP[21]           ; [CPU_ALU] |175| 
     603 000000df FFC4          LSR       AL,5                  ; [CPU_ALU] |175| 
     604 000000e0 FF84          LSL       AL,5                  ; [CPU_ALU] |175| 
     605 000000e1 5603          MOV       ACC,AL << 1           ; [CPU_ALU] |175| 
         000000e2 01A9 
     606 000000e3 5601          ADDL      XAR4,ACC              ; [CPU_ALU] |175| 
         000000e4 00A4 
     607 000000e5 A842          MOVL      *-SP[2],XAR4          ; [CPU_ALU] |175| 
     608                      .dwpsn  file "../F2837xD/F2837xD_Gpio.c",line 187,column 9,is_stmt,isa 0
     609 000000e6 020A          MOVB      ACC,#10               ; [CPU_ALU] |187| 
     610 000000e7 0742          ADDL      ACC,*-SP[2]           ; [CPU_ALU] |187| 
     611 000000e8 1E44          MOVL      *-SP[4],ACC           ; [CPU_ALU] |187| 
     612                      .dwpsn  file "../F2837xD/F2837xD_Gpio.c",line 188,column 9,is_stmt,isa 0
     613 000000e9 020C          MOVB      ACC,#12               ; [CPU_ALU] |188| 
     614 000000ea 0742          ADDL      ACC,*-SP[2]           ; [CPU_ALU] |188| 
     615 000000eb 1E46          MOVL      *-SP[6],ACC           ; [CPU_ALU] |188| 
     616                      .dwpsn  file "../F2837xD/F2837xD_Gpio.c",line 189,column 9,is_stmt,isa 0
     617 000000ec 0210          MOVB      ACC,#16               ; [CPU_ALU] |189| 
     618 000000ed 0742          ADDL      ACC,*-SP[2]           ; [CPU_ALU] |189| 
     619 000000ee 1E48          MOVL      *-SP[8],ACC           ; [CPU_ALU] |189| 
     620                      .dwpsn  file "../F2837xD/F2837xD_Gpio.c",line 190,column 9,is_stmt,isa 0
     621 000000ef 0212          MOVB      ACC,#18               ; [CPU_ALU] |190| 
     622 000000f0 0742          ADDL      ACC,*-SP[2]           ; [CPU_ALU] |190| 
     623 000000f1 1E4A          MOVL      *-SP[10],ACC          ; [CPU_ALU] |190| 
     624                      .dwpsn  file "../F2837xD/F2837xD_Gpio.c",line 191,column 9,is_stmt,isa 0
     625 000000f2 064E          MOVL      ACC,*-SP[14]          ; [CPU_ALU] |191| 
     626 000000f3 FF43          SFR       ACC,4                 ; [CPU_ALU] |191| 
     627 000000f4 FF30          LSL       ACC,1                 ; [CPU_ALU] |191| 
     628 000000f5 0742          ADDL      ACC,*-SP[2]           ; [CPU_ALU] |191| 
     629 000000f6 0902          ADDB      ACC,#2                ; [CPU_ALU] |191| 
     630 000000f7 1E4C          MOVL      *-SP[12],ACC          ; [CPU_ALU] |191| 
     631                      .dwpsn  file "../F2837xD/F2837xD_Gpio.c",line 193,column 9,is_stmt,isa 0
     632 000000f8 7622   EALLOW
     633                      .dwpsn  file "../F2837xD/F2837xD_Gpio.c",line 198,column 9,is_stmt,isa 0
     634 000000f9 8A44          MOVL      XAR4,*-SP[4]          ; [CPU_ALU] |198| 
     635 000000fa 0652          MOVL      ACC,*-SP[18]          ; [CPU_ALU] |198| 
TMS320C2000 Assembler PC v18.1.2 Fri Dec 14 17:55:26 2018

Tools Copyright (c) 1996-2017 Texas Instruments Incorporated
F2837xD_Gpio.asm                                                     PAGE   13

     636 000000fb FF55          NOT       ACC                   ; [CPU_ALU] |198| 
     637 000000fc C0C4          AND       *+XAR4[0],AL          ; [CPU_ALU] |198| 
     638 000000fd C1CC          AND       *+XAR4[1],AH          ; [CPU_ALU] |198| 
     639                      .dwpsn  file "../F2837xD/F2837xD_Gpio.c",line 199,column 9,is_stmt,isa 0
     640 000000fe 9256          MOV       AL,*-SP[22]           ; [CPU_ALU] |199| 
     641 000000ff 5201          CMPB      AL,#1                 ; [CPU_ALU] |199| 
     642 00000100 601F          B         $C$L11,NEQ            ; [CPU_ALU] |199| 
     643                      ; branchcc occurs ; [] |199| 
     644                      .dwpsn  file "../F2837xD/F2837xD_Gpio.c",line 204,column 13,is_stmt,isa 0
     645 00000101 8A44          MOVL      XAR4,*-SP[4]          ; [CPU_ALU] |204| 
     646 00000102 0652          MOVL      ACC,*-SP[18]          ; [CPU_ALU] |204| 
     647 00000103 98C4          OR        *+XAR4[0],AL          ; [CPU_ALU] |204| 
     648 00000104 99CC          OR        *+XAR4[1],AH          ; [CPU_ALU] |204| 
     649                      .dwpsn  file "../F2837xD/F2837xD_Gpio.c",line 209,column 13,is_stmt,isa 0
     650 00000105 4257          TBIT      *-SP[23],#2           ; [CPU_ALU] |209| 
     651 00000106 6C06          B         $C$L8,NTC             ; [CPU_ALU] |209| 
     652                      ; branchcc occurs ; [] |209| 
     653                      .dwpsn  file "../F2837xD/F2837xD_Gpio.c",line 211,column 17,is_stmt,isa 0
     654 00000107 8A4A          MOVL      XAR4,*-SP[10]         ; [CPU_ALU] |211| 
     655 00000108 0652          MOVL      ACC,*-SP[18]          ; [CPU_ALU] |211| 
     656 00000109 98C4          OR        *+XAR4[0],AL          ; [CPU_ALU] |211| 
     657 0000010a 99CC          OR        *+XAR4[1],AH          ; [CPU_ALU] |211| 
     658                      .dwpsn  file "../F2837xD/F2837xD_Gpio.c",line 212,column 13,is_stmt,isa 0
     659 0000010b 6F06          B         $C$L9,UNC             ; [CPU_ALU] |212| 
     660                      ; branch occurs ; [] |212| 
     661 0000010c       $C$L8:    
     662                      .dwpsn  file "../F2837xD/F2837xD_Gpio.c",line 215,column 17,is_stmt,isa 0
     663 0000010c 8A4A          MOVL      XAR4,*-SP[10]         ; [CPU_ALU] |215| 
     664 0000010d 0652          MOVL      ACC,*-SP[18]          ; [CPU_ALU] |215| 
     665 0000010e FF55          NOT       ACC                   ; [CPU_ALU] |215| 
     666 0000010f C0C4          AND       *+XAR4[0],AL          ; [CPU_ALU] |215| 
     667 00000110 C1CC          AND       *+XAR4[1],AH          ; [CPU_ALU] |215| 
     668 00000111       $C$L9:    
     669                      .dwpsn  file "../F2837xD/F2837xD_Gpio.c",line 221,column 13,is_stmt,isa 0
     670 00000111 9257          MOV       AL,*-SP[23]           ; [CPU_ALU] |221| 
     671 00000112 9005          ANDB      AL,#0x05              ; [CPU_ALU] |221| 
     672 00000113 6107          B         $C$L10,EQ             ; [CPU_ALU] |221| 
     673                      ; branchcc occurs ; [] |221| 
     674                      .dwpsn  file "../F2837xD/F2837xD_Gpio.c",line 223,column 17,is_stmt,isa 0
     675 00000114 8A46          MOVL      XAR4,*-SP[6]          ; [CPU_ALU] |223| 
     676 00000115 0652          MOVL      ACC,*-SP[18]          ; [CPU_ALU] |223| 
     677 00000116 FF55          NOT       ACC                   ; [CPU_ALU] |223| 
     678 00000117 C0C4          AND       *+XAR4[0],AL          ; [CPU_ALU] |223| 
     679 00000118 C1CC          AND       *+XAR4[1],AH          ; [CPU_ALU] |223| 
     680                      .dwpsn  file "../F2837xD/F2837xD_Gpio.c",line 224,column 13,is_stmt,isa 0
     681 00000119 6F23          B         $C$L15,UNC            ; [CPU_ALU] |224| 
     682                      ; branch occurs ; [] |224| 
     683 0000011a       $C$L10:    
     684                      .dwpsn  file "../F2837xD/F2837xD_Gpio.c",line 227,column 17,is_stmt,isa 0
     685 0000011a 8A46          MOVL      XAR4,*-SP[6]          ; [CPU_ALU] |227| 
     686 0000011b 0652          MOVL      ACC,*-SP[18]          ; [CPU_ALU] |227| 
     687 0000011c 98C4          OR        *+XAR4[0],AL          ; [CPU_ALU] |227| 
     688 0000011d 99CC          OR        *+XAR4[1],AH          ; [CPU_ALU] |227| 
     689                      .dwpsn  file "../F2837xD/F2837xD_Gpio.c",line 229,column 9,is_stmt,isa 0
     690 0000011e 6F1E          B         $C$L15,UNC            ; [CPU_ALU] |229| 
TMS320C2000 Assembler PC v18.1.2 Fri Dec 14 17:55:26 2018

Tools Copyright (c) 1996-2017 Texas Instruments Incorporated
F2837xD_Gpio.asm                                                     PAGE   14

     691                      ; branch occurs ; [] |229| 
     692 0000011f       $C$L11:    
     693                      .dwpsn  file "../F2837xD/F2837xD_Gpio.c",line 236,column 13,is_stmt,isa 0
     694 0000011f 8A44          MOVL      XAR4,*-SP[4]          ; [CPU_ALU] |236| 
     695 00000120 0652          MOVL      ACC,*-SP[18]          ; [CPU_ALU] |236| 
     696 00000121 FF55          NOT       ACC                   ; [CPU_ALU] |236| 
     697 00000122 C0C4          AND       *+XAR4[0],AL          ; [CPU_ALU] |236| 
     698 00000123 C1CC          AND       *+XAR4[1],AH          ; [CPU_ALU] |236| 
     699                      .dwpsn  file "../F2837xD/F2837xD_Gpio.c",line 241,column 13,is_stmt,isa 0
     700 00000124 4057          TBIT      *-SP[23],#0           ; [CPU_ALU] |241| 
     701 00000125 6C07          B         $C$L12,NTC            ; [CPU_ALU] |241| 
     702                      ; branchcc occurs ; [] |241| 
     703                      .dwpsn  file "../F2837xD/F2837xD_Gpio.c",line 243,column 17,is_stmt,isa 0
     704 00000126 8A46          MOVL      XAR4,*-SP[6]          ; [CPU_ALU] |243| 
     705 00000127 0652          MOVL      ACC,*-SP[18]          ; [CPU_ALU] |243| 
     706 00000128 FF55          NOT       ACC                   ; [CPU_ALU] |243| 
     707 00000129 C0C4          AND       *+XAR4[0],AL          ; [CPU_ALU] |243| 
     708 0000012a C1CC          AND       *+XAR4[1],AH          ; [CPU_ALU] |243| 
     709                      .dwpsn  file "../F2837xD/F2837xD_Gpio.c",line 244,column 13,is_stmt,isa 0
     710 0000012b 6F05          B         $C$L13,UNC            ; [CPU_ALU] |244| 
     711                      ; branch occurs ; [] |244| 
     712 0000012c       $C$L12:    
     713                      .dwpsn  file "../F2837xD/F2837xD_Gpio.c",line 247,column 17,is_stmt,isa 0
     714 0000012c 8A46          MOVL      XAR4,*-SP[6]          ; [CPU_ALU] |247| 
     715 0000012d 0652          MOVL      ACC,*-SP[18]          ; [CPU_ALU] |247| 
     716 0000012e 98C4          OR        *+XAR4[0],AL          ; [CPU_ALU] |247| 
     717 0000012f 99CC          OR        *+XAR4[1],AH          ; [CPU_ALU] |247| 
     718 00000130       $C$L13:    
     719                      .dwpsn  file "../F2837xD/F2837xD_Gpio.c",line 253,column 13,is_stmt,isa 0
     720 00000130 4157          TBIT      *-SP[23],#1           ; [CPU_ALU] |253| 
     721 00000131 6C06          B         $C$L14,NTC            ; [CPU_ALU] |253| 
     722                      ; branchcc occurs ; [] |253| 
     723                      .dwpsn  file "../F2837xD/F2837xD_Gpio.c",line 255,column 17,is_stmt,isa 0
     724 00000132 8A48          MOVL      XAR4,*-SP[8]          ; [CPU_ALU] |255| 
     725 00000133 0652          MOVL      ACC,*-SP[18]          ; [CPU_ALU] |255| 
     726 00000134 98C4          OR        *+XAR4[0],AL          ; [CPU_ALU] |255| 
     727 00000135 99CC          OR        *+XAR4[1],AH          ; [CPU_ALU] |255| 
     728                      .dwpsn  file "../F2837xD/F2837xD_Gpio.c",line 256,column 13,is_stmt,isa 0
     729 00000136 6F06          B         $C$L15,UNC            ; [CPU_ALU] |256| 
     730                      ; branch occurs ; [] |256| 
     731 00000137       $C$L14:    
     732                      .dwpsn  file "../F2837xD/F2837xD_Gpio.c",line 259,column 17,is_stmt,isa 0
     733 00000137 8A48          MOVL      XAR4,*-SP[8]          ; [CPU_ALU] |259| 
     734 00000138 0652          MOVL      ACC,*-SP[18]          ; [CPU_ALU] |259| 
     735 00000139 FF55          NOT       ACC                   ; [CPU_ALU] |259| 
     736 0000013a C0C4          AND       *+XAR4[0],AL          ; [CPU_ALU] |259| 
     737 0000013b C1CC          AND       *+XAR4[1],AH          ; [CPU_ALU] |259| 
     738 0000013c       $C$L15:    
     739                      .dwpsn  file "../F2837xD/F2837xD_Gpio.c",line 268,column 9,is_stmt,isa 0
     740 0000013c 9257          MOV       AL,*-SP[23]           ; [CPU_ALU] |268| 
     741 0000013d 9030          ANDB      AL,#0x30              ; [CPU_ALU] |268| 
     742 0000013e FFC3          LSR       AL,4                  ; [CPU_ALU] |268| 
     743 0000013f 0EA9          MOVU      ACC,AL                ; [CPU_ALU] |268| 
     744 00000140 1E54          MOVL      *-SP[20],ACC          ; [CPU_ALU] |268| 
     745                      .dwpsn  file "../F2837xD/F2837xD_Gpio.c",line 269,column 9,is_stmt,isa 0
TMS320C2000 Assembler PC v18.1.2 Fri Dec 14 17:55:26 2018

Tools Copyright (c) 1996-2017 Texas Instruments Incorporated
F2837xD_Gpio.asm                                                     PAGE   15

     746 00000141 FF69          SPM       #0                    ; [CPU_ALU] 
     747 00000142 0203          MOVB      ACC,#3                ; [CPU_ALU] |269| 
     748 00000143 8A4C          MOVL      XAR4,*-SP[12]         ; [CPU_ALU] |269| 
     749 00000144 FF5A          MOVL      P,ACC                 ; [CPU_ALU] |269| 
     750 00000145 5603          MOV       ACC,*-SP[16] << #1    ; [CPU_ALU] |269| 
         00000146 0150 
     751 00000147 16A9          MOVP      T,AL                  ; [CPU_ALU] 
     752 00000148 563B          LSLL      ACC,T                 ; [CPU_ALU] |269| 
     753 00000149 FF55          NOT       ACC                   ; [CPU_ALU] |269| 
     754 0000014a FF5A          MOVL      P,ACC                 ; [CPU_ALU] |269| 
     755 0000014b 92AB          MOV       AL,PL                 ; [CPU_ALU] |269| 
     756 0000014c C0C4          AND       *+XAR4[0],AL          ; [CPU_ALU] |269| 
     757 0000014d 92AA          MOV       AL,PH                 ; [CPU_ALU] |269| 
     758 0000014e C0CC          AND       *+XAR4[1],AL          ; [CPU_ALU] |269| 
     759                      .dwpsn  file "../F2837xD/F2837xD_Gpio.c",line 270,column 9,is_stmt,isa 0
     760 0000014f 0654          MOVL      ACC,*-SP[20]          ; [CPU_ALU] |270| 
     761 00000150 610C          B         $C$L16,EQ             ; [CPU_ALU] |270| 
     762                      ; branchcc occurs ; [] |270| 
     763                      .dwpsn  file "../F2837xD/F2837xD_Gpio.c",line 272,column 13,is_stmt,isa 0
     764 00000151 A354          MOVL      P,*-SP[20]            ; [CPU_ALU] |272| 
     765 00000152 5603          MOV       ACC,*-SP[16] << #1    ; [CPU_ALU] |272| 
         00000153 0150 
     766 00000154 8A4C          MOVL      XAR4,*-SP[12]         ; [CPU_ALU] |272| 
     767 00000155 16A9          MOVP      T,AL                  ; [CPU_ALU] 
     768 00000156 563B          LSLL      ACC,T                 ; [CPU_ALU] |272| 
     769 00000157 FF5A          MOVL      P,ACC                 ; [CPU_ALU] |272| 
     770 00000158 92AB          MOV       AL,PL                 ; [CPU_ALU] |272| 
     771 00000159 98C4          OR        *+XAR4[0],AL          ; [CPU_ALU] |272| 
     772 0000015a 92AA          MOV       AL,PH                 ; [CPU_ALU] |272| 
     773 0000015b 98CC          OR        *+XAR4[1],AL          ; [CPU_ALU] |272| 
     774 0000015c       $C$L16:    
     775                      .dwpsn  file "../F2837xD/F2837xD_Gpio.c",line 275,column 9,is_stmt,isa 0
     776 0000015c 761A   EDIS
     777                      .dwpsn  file "../F2837xD/F2837xD_Gpio.c",line 276,column 5,is_stmt,isa 0
     778 0000015d FE98          SUBB      SP,#24                ; [CPU_ARAU] 
     779                      .dwcfi  cfa_offset, -2
     780 0000015e FF69          SPM       #0                    ; [CPU_ALU] 
     781              $C$DW$41        .dwtag  DW_TAG_TI_branch
     782                      .dwattr $C$DW$41, DW_AT_low_pc(0x00)
     783                      .dwattr $C$DW$41, DW_AT_TI_return
     784              
     785 0000015f 0006          LRETR     ; [CPU_ALU] 
     786                      ; return occurs ; [] 
     787                      .dwattr $C$DW$24, DW_AT_TI_end_file("../F2837xD/F2837xD_Gpio.c")
     788                      .dwattr $C$DW$24, DW_AT_TI_end_line(0x114)
     789                      .dwattr $C$DW$24, DW_AT_TI_end_column(0x05)
     790                      .dwendentry
     791                      .dwendtag $C$DW$24
     792              
     793 00000160               .sect   ".text"
     794                      .clink
     795                      .global _GPIO_SetupLock
     796              
     797              $C$DW$42        .dwtag  DW_TAG_subprogram
     798                      .dwattr $C$DW$42, DW_AT_name("GPIO_SetupLock")
TMS320C2000 Assembler PC v18.1.2 Fri Dec 14 17:55:26 2018

Tools Copyright (c) 1996-2017 Texas Instruments Incorporated
F2837xD_Gpio.asm                                                     PAGE   16

     799                      .dwattr $C$DW$42, DW_AT_low_pc(_GPIO_SetupLock)
     800                      .dwattr $C$DW$42, DW_AT_high_pc(0x00)
     801                      .dwattr $C$DW$42, DW_AT_TI_symbol_name("_GPIO_SetupLock")
     802                      .dwattr $C$DW$42, DW_AT_external
     803                      .dwattr $C$DW$42, DW_AT_TI_begin_file("../F2837xD/F2837xD_Gpio.c")
     804                      .dwattr $C$DW$42, DW_AT_TI_begin_line(0x11f)
     805                      .dwattr $C$DW$42, DW_AT_TI_begin_column(0x0a)
     806                      .dwattr $C$DW$42, DW_AT_TI_max_frame_size(-12)
     807                      .dwpsn  file "../F2837xD/F2837xD_Gpio.c",line 288,column 5,is_stmt,address _GPIO_SetupLock,isa 0
     808              
     809                      .dwfde $C$DW$CIE, _GPIO_SetupLock
     810              $C$DW$43        .dwtag  DW_TAG_formal_parameter
     811                      .dwattr $C$DW$43, DW_AT_name("pin")
     812                      .dwattr $C$DW$43, DW_AT_TI_symbol_name("_pin")
     813                      .dwattr $C$DW$43, DW_AT_type(*$C$DW$T$19)
     814                      .dwattr $C$DW$43, DW_AT_location[DW_OP_reg0]
     815              
     816              $C$DW$44        .dwtag  DW_TAG_formal_parameter
     817                      .dwattr $C$DW$44, DW_AT_name("flags")
     818                      .dwattr $C$DW$44, DW_AT_TI_symbol_name("_flags")
     819                      .dwattr $C$DW$44, DW_AT_type(*$C$DW$T$19)
     820                      .dwattr $C$DW$44, DW_AT_location[DW_OP_reg1]
     821              
     822              
     823              ;***************************************************************
     824              ;* FNAME: _GPIO_SetupLock               FR SIZE:  10           *
     825              ;*                                                             *
     826              ;* FUNCTION ENVIRONMENT                                        *
     827              ;*                                                             *
     828              ;* FUNCTION PROPERTIES                                         *
     829              ;*                            0 Parameter, 10 Auto,  0 SOE     *
     830              ;***************************************************************
     831              
     832 00000160       _GPIO_SetupLock:
     833                      .dwcfi  cfa_offset, -2
     834                      .dwcfi  save_reg_to_mem, 26, 0
     835 00000160 FE0A          ADDB      SP,#10                ; [CPU_ARAU] 
     836                      .dwcfi  cfa_offset, -12
     837              $C$DW$45        .dwtag  DW_TAG_variable
     838                      .dwattr $C$DW$45, DW_AT_name("gpioBaseAddr")
     839                      .dwattr $C$DW$45, DW_AT_TI_symbol_name("_gpioBaseAddr")
     840                      .dwattr $C$DW$45, DW_AT_type(*$C$DW$T$416)
     841                      .dwattr $C$DW$45, DW_AT_location[DW_OP_breg20 -2]
     842              
     843              $C$DW$46        .dwtag  DW_TAG_variable
     844                      .dwattr $C$DW$46, DW_AT_name("lock")
     845                      .dwattr $C$DW$46, DW_AT_TI_symbol_name("_lock")
     846                      .dwattr $C$DW$46, DW_AT_type(*$C$DW$T$416)
     847                      .dwattr $C$DW$46, DW_AT_location[DW_OP_breg20 -4]
     848              
     849              $C$DW$47        .dwtag  DW_TAG_variable
     850                      .dwattr $C$DW$47, DW_AT_name("pin32")
     851                      .dwattr $C$DW$47, DW_AT_TI_symbol_name("_pin32")
     852                      .dwattr $C$DW$47, DW_AT_type(*$C$DW$T$21)
     853                      .dwattr $C$DW$47, DW_AT_location[DW_OP_breg20 -6]
TMS320C2000 Assembler PC v18.1.2 Fri Dec 14 17:55:26 2018

Tools Copyright (c) 1996-2017 Texas Instruments Incorporated
F2837xD_Gpio.asm                                                     PAGE   17

     854              
     855              $C$DW$48        .dwtag  DW_TAG_variable
     856                      .dwattr $C$DW$48, DW_AT_name("pinMask")
     857                      .dwattr $C$DW$48, DW_AT_TI_symbol_name("_pinMask")
     858                      .dwattr $C$DW$48, DW_AT_type(*$C$DW$T$21)
     859                      .dwattr $C$DW$48, DW_AT_location[DW_OP_breg20 -8]
     860              
     861              $C$DW$49        .dwtag  DW_TAG_variable
     862                      .dwattr $C$DW$49, DW_AT_name("pin")
     863                      .dwattr $C$DW$49, DW_AT_TI_symbol_name("_pin")
     864                      .dwattr $C$DW$49, DW_AT_type(*$C$DW$T$19)
     865                      .dwattr $C$DW$49, DW_AT_location[DW_OP_breg20 -9]
     866              
     867              $C$DW$50        .dwtag  DW_TAG_variable
     868                      .dwattr $C$DW$50, DW_AT_name("flags")
     869                      .dwattr $C$DW$50, DW_AT_TI_symbol_name("_flags")
     870                      .dwattr $C$DW$50, DW_AT_type(*$C$DW$T$19)
     871                      .dwattr $C$DW$50, DW_AT_location[DW_OP_breg20 -10]
     872              
     873 00000161 974A          MOV       *-SP[10],AH           ; [CPU_ALU] |288| 
     874 00000162 9649          MOV       *-SP[9],AL            ; [CPU_ALU] |288| 
     875                      .dwpsn  file "../F2837xD/F2837xD_Gpio.c",line 293,column 9,is_stmt,isa 0
     876 00000163 901F          ANDB      AL,#0x1f              ; [CPU_ALU] |293| 
     877 00000164 0EA9          MOVU      ACC,AL                ; [CPU_ALU] |293| 
     878 00000165 1E46          MOVL      *-SP[6],ACC           ; [CPU_ALU] |293| 
     879                      .dwpsn  file "../F2837xD/F2837xD_Gpio.c",line 294,column 9,is_stmt,isa 0
     880 00000166 2D46          MOV       T,*-SP[6]             ; [CPU_ALU] |294| 
     881 00000167 0201          MOVB      ACC,#1                ; [CPU_ALU] |294| 
     882 00000168 563B          LSLL      ACC,T                 ; [CPU_ALU] |294| 
     883 00000169 1E48          MOVL      *-SP[8],ACC           ; [CPU_ALU] |294| 
     884                      .dwpsn  file "../F2837xD/F2837xD_Gpio.c",line 295,column 9,is_stmt,isa 0
     885 0000016a 2901          CLRC      SXM                   ; [CPU_ALU] 
     886 0000016b 8F00!         MOVL      XAR4,#_GpioCtrlRegs   ; [CPU_ARAU] |295| 
         0000016c 0000 
     887 0000016d 9249          MOV       AL,*-SP[9]            ; [CPU_ALU] |295| 
     888 0000016e FFC4          LSR       AL,5                  ; [CPU_ALU] |295| 
     889 0000016f FF84          LSL       AL,5                  ; [CPU_ALU] |295| 
     890 00000170 5603          MOV       ACC,AL << 1           ; [CPU_ALU] |295| 
         00000171 01A9 
     891 00000172 5601          ADDL      XAR4,ACC              ; [CPU_ALU] |295| 
         00000173 00A4 
     892 00000174 A842          MOVL      *-SP[2],XAR4          ; [CPU_ALU] |295| 
     893                      .dwpsn  file "../F2837xD/F2837xD_Gpio.c",line 307,column 9,is_stmt,isa 0
     894 00000175 023C          MOVB      ACC,#60               ; [CPU_ALU] |307| 
     895 00000176 0742          ADDL      ACC,*-SP[2]           ; [CPU_ALU] |307| 
     896 00000177 1E44          MOVL      *-SP[4],ACC           ; [CPU_ALU] |307| 
     897                      .dwpsn  file "../F2837xD/F2837xD_Gpio.c",line 309,column 9,is_stmt,isa 0
     898 00000178 7622   EALLOW
     899                      .dwpsn  file "../F2837xD/F2837xD_Gpio.c",line 310,column 9,is_stmt,isa 0
     900 00000179 924A          MOV       AL,*-SP[10]           ; [CPU_ALU] |310| 
     901 0000017a 6106          B         $C$L17,EQ             ; [CPU_ALU] |310| 
     902                      ; branchcc occurs ; [] |310| 
     903                      .dwpsn  file "../F2837xD/F2837xD_Gpio.c",line 313,column 13,is_stmt,isa 0
     904 0000017b 8A44          MOVL      XAR4,*-SP[4]          ; [CPU_ALU] |313| 
     905 0000017c 0648          MOVL      ACC,*-SP[8]           ; [CPU_ALU] |313| 
TMS320C2000 Assembler PC v18.1.2 Fri Dec 14 17:55:26 2018

Tools Copyright (c) 1996-2017 Texas Instruments Incorporated
F2837xD_Gpio.asm                                                     PAGE   18

     906 0000017d 98C4          OR        *+XAR4[0],AL          ; [CPU_ALU] |313| 
     907 0000017e 99CC          OR        *+XAR4[1],AH          ; [CPU_ALU] |313| 
     908                      .dwpsn  file "../F2837xD/F2837xD_Gpio.c",line 314,column 9,is_stmt,isa 0
     909 0000017f 6F06          B         $C$L18,UNC            ; [CPU_ALU] |314| 
     910                      ; branch occurs ; [] |314| 
     911 00000180       $C$L17:    
     912                      .dwpsn  file "../F2837xD/F2837xD_Gpio.c",line 318,column 13,is_stmt,isa 0
     913 00000180 8A44          MOVL      XAR4,*-SP[4]          ; [CPU_ALU] |318| 
     914 00000181 0648          MOVL      ACC,*-SP[8]           ; [CPU_ALU] |318| 
     915 00000182 FF55          NOT       ACC                   ; [CPU_ALU] |318| 
     916 00000183 C0C4          AND       *+XAR4[0],AL          ; [CPU_ALU] |318| 
     917 00000184 C1CC          AND       *+XAR4[1],AH          ; [CPU_ALU] |318| 
     918 00000185       $C$L18:    
     919                      .dwpsn  file "../F2837xD/F2837xD_Gpio.c",line 320,column 9,is_stmt,isa 0
     920 00000185 761A   EDIS
     921                      .dwpsn  file "../F2837xD/F2837xD_Gpio.c",line 321,column 5,is_stmt,isa 0
     922 00000186 FE8A          SUBB      SP,#10                ; [CPU_ARAU] 
     923                      .dwcfi  cfa_offset, -2
     924 00000187 FF69          SPM       #0                    ; [CPU_ALU] 
     925              $C$DW$51        .dwtag  DW_TAG_TI_branch
     926                      .dwattr $C$DW$51, DW_AT_low_pc(0x00)
     927                      .dwattr $C$DW$51, DW_AT_TI_return
     928              
     929 00000188 0006          LRETR     ; [CPU_ALU] 
     930                      ; return occurs ; [] 
     931                      .dwattr $C$DW$42, DW_AT_TI_end_file("../F2837xD/F2837xD_Gpio.c")
     932                      .dwattr $C$DW$42, DW_AT_TI_end_line(0x141)
     933                      .dwattr $C$DW$42, DW_AT_TI_end_column(0x05)
     934                      .dwendentry
     935                      .dwendtag $C$DW$42
     936              
     937 00000189               .sect   ".text"
     938                      .clink
     939                      .global _GPIO_SetupXINT1Gpio
     940              
     941              $C$DW$52        .dwtag  DW_TAG_subprogram
     942                      .dwattr $C$DW$52, DW_AT_name("GPIO_SetupXINT1Gpio")
     943                      .dwattr $C$DW$52, DW_AT_low_pc(_GPIO_SetupXINT1Gpio)
     944                      .dwattr $C$DW$52, DW_AT_high_pc(0x00)
     945                      .dwattr $C$DW$52, DW_AT_TI_symbol_name("_GPIO_SetupXINT1Gpio")
     946                      .dwattr $C$DW$52, DW_AT_external
     947                      .dwattr $C$DW$52, DW_AT_TI_begin_file("../F2837xD/F2837xD_Gpio.c")
     948                      .dwattr $C$DW$52, DW_AT_TI_begin_line(0x146)
     949                      .dwattr $C$DW$52, DW_AT_TI_begin_column(0x0a)
     950                      .dwattr $C$DW$52, DW_AT_TI_max_frame_size(-4)
     951                      .dwpsn  file "../F2837xD/F2837xD_Gpio.c",line 327,column 5,is_stmt,address _GPIO_SetupXINT1Gpio,isa 0
     952              
     953                      .dwfde $C$DW$CIE, _GPIO_SetupXINT1Gpio
     954              $C$DW$53        .dwtag  DW_TAG_formal_parameter
     955                      .dwattr $C$DW$53, DW_AT_name("pin")
     956                      .dwattr $C$DW$53, DW_AT_TI_symbol_name("_pin")
     957                      .dwattr $C$DW$53, DW_AT_type(*$C$DW$T$19)
     958                      .dwattr $C$DW$53, DW_AT_location[DW_OP_reg0]
     959              
     960              
TMS320C2000 Assembler PC v18.1.2 Fri Dec 14 17:55:26 2018

Tools Copyright (c) 1996-2017 Texas Instruments Incorporated
F2837xD_Gpio.asm                                                     PAGE   19

     961              ;***************************************************************
     962              ;* FNAME: _GPIO_SetupXINT1Gpio          FR SIZE:   2           *
     963              ;*                                                             *
     964              ;* FUNCTION ENVIRONMENT                                        *
     965              ;*                                                             *
     966              ;* FUNCTION PROPERTIES                                         *
     967              ;*                            0 Parameter,  1 Auto,  0 SOE     *
     968              ;***************************************************************
     969              
     970 00000189       _GPIO_SetupXINT1Gpio:
     971                      .dwcfi  cfa_offset, -2
     972                      .dwcfi  save_reg_to_mem, 26, 0
     973 00000189 FE02          ADDB      SP,#2                 ; [CPU_ARAU] 
     974                      .dwcfi  cfa_offset, -4
     975              $C$DW$54        .dwtag  DW_TAG_variable
     976                      .dwattr $C$DW$54, DW_AT_name("pin")
     977                      .dwattr $C$DW$54, DW_AT_TI_symbol_name("_pin")
     978                      .dwattr $C$DW$54, DW_AT_type(*$C$DW$T$19)
     979                      .dwattr $C$DW$54, DW_AT_location[DW_OP_breg20 -1]
     980              
     981 0000018a 9641          MOV       *-SP[1],AL            ; [CPU_ALU] |327| 
     982                      .dwpsn  file "../F2837xD/F2837xD_Gpio.c",line 328,column 9,is_stmt,isa 0
     983 0000018b 7622   EALLOW
     984                      .dwpsn  file "../F2837xD/F2837xD_Gpio.c",line 329,column 9,is_stmt,isa 0
     985 0000018c 761F!         MOVW      DP,#_InputXbarRegs+3  ; [CPU_ARAU] 
         0000018d 0000 
     986 0000018e 9603!         MOV       @_InputXbarRegs+3,AL  ; [CPU_ALU] |329| 
     987                      .dwpsn  file "../F2837xD/F2837xD_Gpio.c",line 330,column 9,is_stmt,isa 0
     988 0000018f 761A   EDIS
     989                      .dwpsn  file "../F2837xD/F2837xD_Gpio.c",line 331,column 5,is_stmt,isa 0
     990 00000190 FF69          SPM       #0                    ; [CPU_ALU] 
     991 00000191 FE82          SUBB      SP,#2                 ; [CPU_ARAU] 
     992                      .dwcfi  cfa_offset, -2
     993              $C$DW$55        .dwtag  DW_TAG_TI_branch
     994                      .dwattr $C$DW$55, DW_AT_low_pc(0x00)
     995                      .dwattr $C$DW$55, DW_AT_TI_return
     996              
     997 00000192 0006          LRETR     ; [CPU_ALU] 
     998                      ; return occurs ; [] 
     999                      .dwattr $C$DW$52, DW_AT_TI_end_file("../F2837xD/F2837xD_Gpio.c")
    1000                      .dwattr $C$DW$52, DW_AT_TI_end_line(0x14b)
    1001                      .dwattr $C$DW$52, DW_AT_TI_end_column(0x05)
    1002                      .dwendentry
    1003                      .dwendtag $C$DW$52
    1004              
    1005 00000193               .sect   ".text"
    1006                      .clink
    1007                      .global _GPIO_SetupXINT2Gpio
    1008              
    1009              $C$DW$56        .dwtag  DW_TAG_subprogram
    1010                      .dwattr $C$DW$56, DW_AT_name("GPIO_SetupXINT2Gpio")
    1011                      .dwattr $C$DW$56, DW_AT_low_pc(_GPIO_SetupXINT2Gpio)
    1012                      .dwattr $C$DW$56, DW_AT_high_pc(0x00)
    1013                      .dwattr $C$DW$56, DW_AT_TI_symbol_name("_GPIO_SetupXINT2Gpio")
    1014                      .dwattr $C$DW$56, DW_AT_external
TMS320C2000 Assembler PC v18.1.2 Fri Dec 14 17:55:26 2018

Tools Copyright (c) 1996-2017 Texas Instruments Incorporated
F2837xD_Gpio.asm                                                     PAGE   20

    1015                      .dwattr $C$DW$56, DW_AT_TI_begin_file("../F2837xD/F2837xD_Gpio.c")
    1016                      .dwattr $C$DW$56, DW_AT_TI_begin_line(0x14c)
    1017                      .dwattr $C$DW$56, DW_AT_TI_begin_column(0x0a)
    1018                      .dwattr $C$DW$56, DW_AT_TI_max_frame_size(-4)
    1019                      .dwpsn  file "../F2837xD/F2837xD_Gpio.c",line 333,column 5,is_stmt,address _GPIO_SetupXINT2Gpio,isa 0
    1020              
    1021                      .dwfde $C$DW$CIE, _GPIO_SetupXINT2Gpio
    1022              $C$DW$57        .dwtag  DW_TAG_formal_parameter
    1023                      .dwattr $C$DW$57, DW_AT_name("pin")
    1024                      .dwattr $C$DW$57, DW_AT_TI_symbol_name("_pin")
    1025                      .dwattr $C$DW$57, DW_AT_type(*$C$DW$T$19)
    1026                      .dwattr $C$DW$57, DW_AT_location[DW_OP_reg0]
    1027              
    1028              
    1029              ;***************************************************************
    1030              ;* FNAME: _GPIO_SetupXINT2Gpio          FR SIZE:   2           *
    1031              ;*                                                             *
    1032              ;* FUNCTION ENVIRONMENT                                        *
    1033              ;*                                                             *
    1034              ;* FUNCTION PROPERTIES                                         *
    1035              ;*                            0 Parameter,  1 Auto,  0 SOE     *
    1036              ;***************************************************************
    1037              
    1038 00000193       _GPIO_SetupXINT2Gpio:
    1039                      .dwcfi  cfa_offset, -2
    1040                      .dwcfi  save_reg_to_mem, 26, 0
    1041 00000193 FE02          ADDB      SP,#2                 ; [CPU_ARAU] 
    1042                      .dwcfi  cfa_offset, -4
    1043              $C$DW$58        .dwtag  DW_TAG_variable
    1044                      .dwattr $C$DW$58, DW_AT_name("pin")
    1045                      .dwattr $C$DW$58, DW_AT_TI_symbol_name("_pin")
    1046                      .dwattr $C$DW$58, DW_AT_type(*$C$DW$T$19)
    1047                      .dwattr $C$DW$58, DW_AT_location[DW_OP_breg20 -1]
    1048              
    1049 00000194 9641          MOV       *-SP[1],AL            ; [CPU_ALU] |333| 
    1050                      .dwpsn  file "../F2837xD/F2837xD_Gpio.c",line 334,column 9,is_stmt,isa 0
    1051 00000195 7622   EALLOW
    1052                      .dwpsn  file "../F2837xD/F2837xD_Gpio.c",line 335,column 9,is_stmt,isa 0
    1053 00000196 761F!         MOVW      DP,#_InputXbarRegs+4  ; [CPU_ARAU] 
         00000197 0000 
    1054 00000198 9604!         MOV       @_InputXbarRegs+4,AL  ; [CPU_ALU] |335| 
    1055                      .dwpsn  file "../F2837xD/F2837xD_Gpio.c",line 336,column 9,is_stmt,isa 0
    1056 00000199 761A   EDIS
    1057                      .dwpsn  file "../F2837xD/F2837xD_Gpio.c",line 337,column 5,is_stmt,isa 0
    1058 0000019a FF69          SPM       #0                    ; [CPU_ALU] 
    1059 0000019b FE82          SUBB      SP,#2                 ; [CPU_ARAU] 
    1060                      .dwcfi  cfa_offset, -2
    1061              $C$DW$59        .dwtag  DW_TAG_TI_branch
    1062                      .dwattr $C$DW$59, DW_AT_low_pc(0x00)
    1063                      .dwattr $C$DW$59, DW_AT_TI_return
    1064              
    1065 0000019c 0006          LRETR     ; [CPU_ALU] 
    1066                      ; return occurs ; [] 
    1067                      .dwattr $C$DW$56, DW_AT_TI_end_file("../F2837xD/F2837xD_Gpio.c")
    1068                      .dwattr $C$DW$56, DW_AT_TI_end_line(0x151)
TMS320C2000 Assembler PC v18.1.2 Fri Dec 14 17:55:26 2018

Tools Copyright (c) 1996-2017 Texas Instruments Incorporated
F2837xD_Gpio.asm                                                     PAGE   21

    1069                      .dwattr $C$DW$56, DW_AT_TI_end_column(0x05)
    1070                      .dwendentry
    1071                      .dwendtag $C$DW$56
    1072              
    1073 0000019d               .sect   ".text"
    1074                      .clink
    1075                      .global _GPIO_SetupXINT3Gpio
    1076              
    1077              $C$DW$60        .dwtag  DW_TAG_subprogram
    1078                      .dwattr $C$DW$60, DW_AT_name("GPIO_SetupXINT3Gpio")
    1079                      .dwattr $C$DW$60, DW_AT_low_pc(_GPIO_SetupXINT3Gpio)
    1080                      .dwattr $C$DW$60, DW_AT_high_pc(0x00)
    1081                      .dwattr $C$DW$60, DW_AT_TI_symbol_name("_GPIO_SetupXINT3Gpio")
    1082                      .dwattr $C$DW$60, DW_AT_external
    1083                      .dwattr $C$DW$60, DW_AT_TI_begin_file("../F2837xD/F2837xD_Gpio.c")
    1084                      .dwattr $C$DW$60, DW_AT_TI_begin_line(0x152)
    1085                      .dwattr $C$DW$60, DW_AT_TI_begin_column(0x0a)
    1086                      .dwattr $C$DW$60, DW_AT_TI_max_frame_size(-4)
    1087                      .dwpsn  file "../F2837xD/F2837xD_Gpio.c",line 339,column 5,is_stmt,address _GPIO_SetupXINT3Gpio,isa 0
    1088              
    1089                      .dwfde $C$DW$CIE, _GPIO_SetupXINT3Gpio
    1090              $C$DW$61        .dwtag  DW_TAG_formal_parameter
    1091                      .dwattr $C$DW$61, DW_AT_name("pin")
    1092                      .dwattr $C$DW$61, DW_AT_TI_symbol_name("_pin")
    1093                      .dwattr $C$DW$61, DW_AT_type(*$C$DW$T$19)
    1094                      .dwattr $C$DW$61, DW_AT_location[DW_OP_reg0]
    1095              
    1096              
    1097              ;***************************************************************
    1098              ;* FNAME: _GPIO_SetupXINT3Gpio          FR SIZE:   2           *
    1099              ;*                                                             *
    1100              ;* FUNCTION ENVIRONMENT                                        *
    1101              ;*                                                             *
    1102              ;* FUNCTION PROPERTIES                                         *
    1103              ;*                            0 Parameter,  1 Auto,  0 SOE     *
    1104              ;***************************************************************
    1105              
    1106 0000019d       _GPIO_SetupXINT3Gpio:
    1107                      .dwcfi  cfa_offset, -2
    1108                      .dwcfi  save_reg_to_mem, 26, 0
    1109 0000019d FE02          ADDB      SP,#2                 ; [CPU_ARAU] 
    1110                      .dwcfi  cfa_offset, -4
    1111              $C$DW$62        .dwtag  DW_TAG_variable
    1112                      .dwattr $C$DW$62, DW_AT_name("pin")
    1113                      .dwattr $C$DW$62, DW_AT_TI_symbol_name("_pin")
    1114                      .dwattr $C$DW$62, DW_AT_type(*$C$DW$T$19)
    1115                      .dwattr $C$DW$62, DW_AT_location[DW_OP_breg20 -1]
    1116              
    1117 0000019e 9641          MOV       *-SP[1],AL            ; [CPU_ALU] |339| 
    1118                      .dwpsn  file "../F2837xD/F2837xD_Gpio.c",line 340,column 9,is_stmt,isa 0
    1119 0000019f 7622   EALLOW
    1120                      .dwpsn  file "../F2837xD/F2837xD_Gpio.c",line 341,column 9,is_stmt,isa 0
    1121 000001a0 761F!         MOVW      DP,#_InputXbarRegs+5  ; [CPU_ARAU] 
         000001a1 0000 
    1122 000001a2 9605!         MOV       @_InputXbarRegs+5,AL  ; [CPU_ALU] |341| 
TMS320C2000 Assembler PC v18.1.2 Fri Dec 14 17:55:26 2018

Tools Copyright (c) 1996-2017 Texas Instruments Incorporated
F2837xD_Gpio.asm                                                     PAGE   22

    1123                      .dwpsn  file "../F2837xD/F2837xD_Gpio.c",line 342,column 9,is_stmt,isa 0
    1124 000001a3 761A   EDIS
    1125                      .dwpsn  file "../F2837xD/F2837xD_Gpio.c",line 343,column 5,is_stmt,isa 0
    1126 000001a4 FF69          SPM       #0                    ; [CPU_ALU] 
    1127 000001a5 FE82          SUBB      SP,#2                 ; [CPU_ARAU] 
    1128                      .dwcfi  cfa_offset, -2
    1129              $C$DW$63        .dwtag  DW_TAG_TI_branch
    1130                      .dwattr $C$DW$63, DW_AT_low_pc(0x00)
    1131                      .dwattr $C$DW$63, DW_AT_TI_return
    1132              
    1133 000001a6 0006          LRETR     ; [CPU_ALU] 
    1134                      ; return occurs ; [] 
    1135                      .dwattr $C$DW$60, DW_AT_TI_end_file("../F2837xD/F2837xD_Gpio.c")
    1136                      .dwattr $C$DW$60, DW_AT_TI_end_line(0x157)
    1137                      .dwattr $C$DW$60, DW_AT_TI_end_column(0x05)
    1138                      .dwendentry
    1139                      .dwendtag $C$DW$60
    1140              
    1141 000001a7               .sect   ".text"
    1142                      .clink
    1143                      .global _GPIO_SetupXINT4Gpio
    1144              
    1145              $C$DW$64        .dwtag  DW_TAG_subprogram
    1146                      .dwattr $C$DW$64, DW_AT_name("GPIO_SetupXINT4Gpio")
    1147                      .dwattr $C$DW$64, DW_AT_low_pc(_GPIO_SetupXINT4Gpio)
    1148                      .dwattr $C$DW$64, DW_AT_high_pc(0x00)
    1149                      .dwattr $C$DW$64, DW_AT_TI_symbol_name("_GPIO_SetupXINT4Gpio")
    1150                      .dwattr $C$DW$64, DW_AT_external
    1151                      .dwattr $C$DW$64, DW_AT_TI_begin_file("../F2837xD/F2837xD_Gpio.c")
    1152                      .dwattr $C$DW$64, DW_AT_TI_begin_line(0x158)
    1153                      .dwattr $C$DW$64, DW_AT_TI_begin_column(0x0a)
    1154                      .dwattr $C$DW$64, DW_AT_TI_max_frame_size(-4)
    1155                      .dwpsn  file "../F2837xD/F2837xD_Gpio.c",line 345,column 5,is_stmt,address _GPIO_SetupXINT4Gpio,isa 0
    1156              
    1157                      .dwfde $C$DW$CIE, _GPIO_SetupXINT4Gpio
    1158              $C$DW$65        .dwtag  DW_TAG_formal_parameter
    1159                      .dwattr $C$DW$65, DW_AT_name("pin")
    1160                      .dwattr $C$DW$65, DW_AT_TI_symbol_name("_pin")
    1161                      .dwattr $C$DW$65, DW_AT_type(*$C$DW$T$19)
    1162                      .dwattr $C$DW$65, DW_AT_location[DW_OP_reg0]
    1163              
    1164              
    1165              ;***************************************************************
    1166              ;* FNAME: _GPIO_SetupXINT4Gpio          FR SIZE:   2           *
    1167              ;*                                                             *
    1168              ;* FUNCTION ENVIRONMENT                                        *
    1169              ;*                                                             *
    1170              ;* FUNCTION PROPERTIES                                         *
    1171              ;*                            0 Parameter,  1 Auto,  0 SOE     *
    1172              ;***************************************************************
    1173              
    1174 000001a7       _GPIO_SetupXINT4Gpio:
    1175                      .dwcfi  cfa_offset, -2
    1176                      .dwcfi  save_reg_to_mem, 26, 0
    1177 000001a7 FE02          ADDB      SP,#2                 ; [CPU_ARAU] 
TMS320C2000 Assembler PC v18.1.2 Fri Dec 14 17:55:26 2018

Tools Copyright (c) 1996-2017 Texas Instruments Incorporated
F2837xD_Gpio.asm                                                     PAGE   23

    1178                      .dwcfi  cfa_offset, -4
    1179              $C$DW$66        .dwtag  DW_TAG_variable
    1180                      .dwattr $C$DW$66, DW_AT_name("pin")
    1181                      .dwattr $C$DW$66, DW_AT_TI_symbol_name("_pin")
    1182                      .dwattr $C$DW$66, DW_AT_type(*$C$DW$T$19)
    1183                      .dwattr $C$DW$66, DW_AT_location[DW_OP_breg20 -1]
    1184              
    1185 000001a8 9641          MOV       *-SP[1],AL            ; [CPU_ALU] |345| 
    1186                      .dwpsn  file "../F2837xD/F2837xD_Gpio.c",line 346,column 9,is_stmt,isa 0
    1187 000001a9 7622   EALLOW
    1188                      .dwpsn  file "../F2837xD/F2837xD_Gpio.c",line 347,column 9,is_stmt,isa 0
    1189 000001aa 761F!         MOVW      DP,#_InputXbarRegs+12 ; [CPU_ARAU] 
         000001ab 0000 
    1190 000001ac 960C!         MOV       @_InputXbarRegs+12,AL ; [CPU_ALU] |347| 
    1191                      .dwpsn  file "../F2837xD/F2837xD_Gpio.c",line 348,column 9,is_stmt,isa 0
    1192 000001ad 761A   EDIS
    1193                      .dwpsn  file "../F2837xD/F2837xD_Gpio.c",line 349,column 5,is_stmt,isa 0
    1194 000001ae FF69          SPM       #0                    ; [CPU_ALU] 
    1195 000001af FE82          SUBB      SP,#2                 ; [CPU_ARAU] 
    1196                      .dwcfi  cfa_offset, -2
    1197              $C$DW$67        .dwtag  DW_TAG_TI_branch
    1198                      .dwattr $C$DW$67, DW_AT_low_pc(0x00)
    1199                      .dwattr $C$DW$67, DW_AT_TI_return
    1200              
    1201 000001b0 0006          LRETR     ; [CPU_ALU] 
    1202                      ; return occurs ; [] 
    1203                      .dwattr $C$DW$64, DW_AT_TI_end_file("../F2837xD/F2837xD_Gpio.c")
    1204                      .dwattr $C$DW$64, DW_AT_TI_end_line(0x15d)
    1205                      .dwattr $C$DW$64, DW_AT_TI_end_column(0x05)
    1206                      .dwendentry
    1207                      .dwendtag $C$DW$64
    1208              
    1209 000001b1               .sect   ".text"
    1210                      .clink
    1211                      .global _GPIO_SetupXINT5Gpio
    1212              
    1213              $C$DW$68        .dwtag  DW_TAG_subprogram
    1214                      .dwattr $C$DW$68, DW_AT_name("GPIO_SetupXINT5Gpio")
    1215                      .dwattr $C$DW$68, DW_AT_low_pc(_GPIO_SetupXINT5Gpio)
    1216                      .dwattr $C$DW$68, DW_AT_high_pc(0x00)
    1217                      .dwattr $C$DW$68, DW_AT_TI_symbol_name("_GPIO_SetupXINT5Gpio")
    1218                      .dwattr $C$DW$68, DW_AT_external
    1219                      .dwattr $C$DW$68, DW_AT_TI_begin_file("../F2837xD/F2837xD_Gpio.c")
    1220                      .dwattr $C$DW$68, DW_AT_TI_begin_line(0x15e)
    1221                      .dwattr $C$DW$68, DW_AT_TI_begin_column(0x0a)
    1222                      .dwattr $C$DW$68, DW_AT_TI_max_frame_size(-4)
    1223                      .dwpsn  file "../F2837xD/F2837xD_Gpio.c",line 351,column 5,is_stmt,address _GPIO_SetupXINT5Gpio,isa 0
    1224              
    1225                      .dwfde $C$DW$CIE, _GPIO_SetupXINT5Gpio
    1226              $C$DW$69        .dwtag  DW_TAG_formal_parameter
    1227                      .dwattr $C$DW$69, DW_AT_name("pin")
    1228                      .dwattr $C$DW$69, DW_AT_TI_symbol_name("_pin")
    1229                      .dwattr $C$DW$69, DW_AT_type(*$C$DW$T$19)
    1230                      .dwattr $C$DW$69, DW_AT_location[DW_OP_reg0]
    1231              
TMS320C2000 Assembler PC v18.1.2 Fri Dec 14 17:55:26 2018

Tools Copyright (c) 1996-2017 Texas Instruments Incorporated
F2837xD_Gpio.asm                                                     PAGE   24

    1232              
    1233              ;***************************************************************
    1234              ;* FNAME: _GPIO_SetupXINT5Gpio          FR SIZE:   2           *
    1235              ;*                                                             *
    1236              ;* FUNCTION ENVIRONMENT                                        *
    1237              ;*                                                             *
    1238              ;* FUNCTION PROPERTIES                                         *
    1239              ;*                            0 Parameter,  1 Auto,  0 SOE     *
    1240              ;***************************************************************
    1241              
    1242 000001b1       _GPIO_SetupXINT5Gpio:
    1243                      .dwcfi  cfa_offset, -2
    1244                      .dwcfi  save_reg_to_mem, 26, 0
    1245 000001b1 FE02          ADDB      SP,#2                 ; [CPU_ARAU] 
    1246                      .dwcfi  cfa_offset, -4
    1247              $C$DW$70        .dwtag  DW_TAG_variable
    1248                      .dwattr $C$DW$70, DW_AT_name("pin")
    1249                      .dwattr $C$DW$70, DW_AT_TI_symbol_name("_pin")
    1250                      .dwattr $C$DW$70, DW_AT_type(*$C$DW$T$19)
    1251                      .dwattr $C$DW$70, DW_AT_location[DW_OP_breg20 -1]
    1252              
    1253 000001b2 9641          MOV       *-SP[1],AL            ; [CPU_ALU] |351| 
    1254                      .dwpsn  file "../F2837xD/F2837xD_Gpio.c",line 352,column 9,is_stmt,isa 0
    1255 000001b3 7622   EALLOW
    1256                      .dwpsn  file "../F2837xD/F2837xD_Gpio.c",line 353,column 9,is_stmt,isa 0
    1257 000001b4 761F!         MOVW      DP,#_InputXbarRegs+13 ; [CPU_ARAU] 
         000001b5 0000 
    1258 000001b6 960D!         MOV       @_InputXbarRegs+13,AL ; [CPU_ALU] |353| 
    1259                      .dwpsn  file "../F2837xD/F2837xD_Gpio.c",line 354,column 9,is_stmt,isa 0
    1260 000001b7 761A   EDIS
    1261                      .dwpsn  file "../F2837xD/F2837xD_Gpio.c",line 355,column 5,is_stmt,isa 0
    1262 000001b8 FF69          SPM       #0                    ; [CPU_ALU] 
    1263 000001b9 FE82          SUBB      SP,#2                 ; [CPU_ARAU] 
    1264                      .dwcfi  cfa_offset, -2
    1265              $C$DW$71        .dwtag  DW_TAG_TI_branch
    1266                      .dwattr $C$DW$71, DW_AT_low_pc(0x00)
    1267                      .dwattr $C$DW$71, DW_AT_TI_return
    1268              
    1269 000001ba 0006          LRETR     ; [CPU_ALU] 
    1270                      ; return occurs ; [] 
    1271                      .dwattr $C$DW$68, DW_AT_TI_end_file("../F2837xD/F2837xD_Gpio.c")
    1272                      .dwattr $C$DW$68, DW_AT_TI_end_line(0x163)
    1273                      .dwattr $C$DW$68, DW_AT_TI_end_column(0x05)
    1274                      .dwendentry
    1275                      .dwendtag $C$DW$68
    1276              
    1277 000001bb               .sect   ".text"
    1278                      .clink
    1279                      .global _GPIO_EnableUnbondedIOPullupsFor176Pin
    1280              
    1281              $C$DW$72        .dwtag  DW_TAG_subprogram
    1282                      .dwattr $C$DW$72, DW_AT_name("GPIO_EnableUnbondedIOPullupsFor176Pin")
    1283                      .dwattr $C$DW$72, DW_AT_low_pc(_GPIO_EnableUnbondedIOPullupsFor176Pin)
    1284                      .dwattr $C$DW$72, DW_AT_high_pc(0x00)
    1285                      .dwattr $C$DW$72, DW_AT_TI_symbol_name("_GPIO_EnableUnbondedIOPullupsFor176Pin")
TMS320C2000 Assembler PC v18.1.2 Fri Dec 14 17:55:26 2018

Tools Copyright (c) 1996-2017 Texas Instruments Incorporated
F2837xD_Gpio.asm                                                     PAGE   25

    1286                      .dwattr $C$DW$72, DW_AT_external
    1287                      .dwattr $C$DW$72, DW_AT_TI_begin_file("../F2837xD/F2837xD_Gpio.c")
    1288                      .dwattr $C$DW$72, DW_AT_TI_begin_line(0x16f)
    1289                      .dwattr $C$DW$72, DW_AT_TI_begin_column(0x0a)
    1290                      .dwattr $C$DW$72, DW_AT_TI_max_frame_size(-2)
    1291                      .dwpsn  file "../F2837xD/F2837xD_Gpio.c",line 368,column 5,is_stmt,address _GPIO_EnableUnbondedIOPull
    1292              
    1293                      .dwfde $C$DW$CIE, _GPIO_EnableUnbondedIOPullupsFor176Pin
    1294              
    1295              ;***************************************************************
    1296              ;* FNAME: _GPIO_EnableUnbondedIOPullupsFor176Pin FR SIZE:   0           *
    1297              ;*                                                             *
    1298              ;* FUNCTION ENVIRONMENT                                        *
    1299              ;*                                                             *
    1300              ;* FUNCTION PROPERTIES                                         *
    1301              ;*                            0 Parameter,  0 Auto,  0 SOE     *
    1302              ;***************************************************************
    1303              
    1304 000001bb       _GPIO_EnableUnbondedIOPullupsFor176Pin:
    1305                      .dwcfi  cfa_offset, -2
    1306                      .dwcfi  save_reg_to_mem, 26, 0
    1307                      .dwpsn  file "../F2837xD/F2837xD_Gpio.c",line 369,column 9,is_stmt,isa 0
    1308 000001bb 7622   EALLOW
    1309                      .dwpsn  file "../F2837xD/F2837xD_Gpio.c",line 370,column 9,is_stmt,isa 0
    1310 000001bc 28A9          MOV       AL,#65535             ; [CPU_ALU] |370| 
         000001bd FFFF 
    1311 000001be 28A8          MOV       AH,#32767             ; [CPU_ALU] |370| 
         000001bf 7FFF 
    1312 000001c0 761F!         MOVW      DP,#_GpioCtrlRegs+140 ; [CPU_ARAU] 
         000001c1 0002 
    1313 000001c2 1E0C!         MOVL      @_GpioCtrlRegs+140,ACC ; [CPU_ALU] |370| 
    1314                      .dwpsn  file "../F2837xD/F2837xD_Gpio.c",line 371,column 9,is_stmt,isa 0
    1315 000001c3 761F!         MOVW      DP,#_GpioCtrlRegs+204 ; [CPU_ARAU] 
         000001c4 0003 
    1316 000001c5 0208          MOVB      ACC,#8                ; [CPU_ALU] |371| 
    1317 000001c6 1E0C!         MOVL      @_GpioCtrlRegs+204,ACC ; [CPU_ALU] |371| 
    1318                      .dwpsn  file "../F2837xD/F2837xD_Gpio.c",line 372,column 9,is_stmt,isa 0
    1319 000001c7 761F!         MOVW      DP,#_GpioCtrlRegs+268 ; [CPU_ARAU] 
         000001c8 0004 
    1320 000001c9 0220          MOVB      ACC,#32               ; [CPU_ALU] |372| 
    1321 000001ca 1E0C!         MOVL      @_GpioCtrlRegs+268,ACC ; [CPU_ALU] |372| 
    1322                      .dwpsn  file "../F2837xD/F2837xD_Gpio.c",line 373,column 9,is_stmt,isa 0
    1323 000001cb 3B01          SETC      SXM                   ; [CPU_ALU] 
    1324 000001cc 761F!         MOVW      DP,#_GpioCtrlRegs+332 ; [CPU_ARAU] 
         000001cd 0005 
    1325 000001ce FF29          MOV       ACC,#-1 << 9          ; [CPU_ALU] |373| 
         000001cf FFFF 
    1326 000001d0 1E0C!         MOVL      @_GpioCtrlRegs+332,ACC ; [CPU_ALU] |373| 
    1327                      .dwpsn  file "../F2837xD/F2837xD_Gpio.c",line 374,column 9,is_stmt,isa 0
    1328 000001d1 761A   EDIS
    1329                      .dwpsn  file "../F2837xD/F2837xD_Gpio.c",line 375,column 5,is_stmt,isa 0
    1330 000001d2 FF69          SPM       #0                    ; [CPU_ALU] 
    1331              $C$DW$73        .dwtag  DW_TAG_TI_branch
    1332                      .dwattr $C$DW$73, DW_AT_low_pc(0x00)
    1333                      .dwattr $C$DW$73, DW_AT_TI_return
TMS320C2000 Assembler PC v18.1.2 Fri Dec 14 17:55:26 2018

Tools Copyright (c) 1996-2017 Texas Instruments Incorporated
F2837xD_Gpio.asm                                                     PAGE   26

    1334              
    1335 000001d3 0006          LRETR     ; [CPU_ALU] 
    1336                      ; return occurs ; [] 
    1337                      .dwattr $C$DW$72, DW_AT_TI_end_file("../F2837xD/F2837xD_Gpio.c")
    1338                      .dwattr $C$DW$72, DW_AT_TI_end_line(0x177)
    1339                      .dwattr $C$DW$72, DW_AT_TI_end_column(0x05)
    1340                      .dwendentry
    1341                      .dwendtag $C$DW$72
    1342              
    1343 000001d4               .sect   ".text"
    1344                      .clink
    1345                      .global _GPIO_EnableUnbondedIOPullupsFor100Pin
    1346              
    1347              $C$DW$74        .dwtag  DW_TAG_subprogram
    1348                      .dwattr $C$DW$74, DW_AT_name("GPIO_EnableUnbondedIOPullupsFor100Pin")
    1349                      .dwattr $C$DW$74, DW_AT_low_pc(_GPIO_EnableUnbondedIOPullupsFor100Pin)
    1350                      .dwattr $C$DW$74, DW_AT_high_pc(0x00)
    1351                      .dwattr $C$DW$74, DW_AT_TI_symbol_name("_GPIO_EnableUnbondedIOPullupsFor100Pin")
    1352                      .dwattr $C$DW$74, DW_AT_external
    1353                      .dwattr $C$DW$74, DW_AT_TI_begin_file("../F2837xD/F2837xD_Gpio.c")
    1354                      .dwattr $C$DW$74, DW_AT_TI_begin_line(0x18a)
    1355                      .dwattr $C$DW$74, DW_AT_TI_begin_column(0x0a)
    1356                      .dwattr $C$DW$74, DW_AT_TI_max_frame_size(-2)
    1357                      .dwpsn  file "../F2837xD/F2837xD_Gpio.c",line 395,column 5,is_stmt,address _GPIO_EnableUnbondedIOPull
    1358              
    1359                      .dwfde $C$DW$CIE, _GPIO_EnableUnbondedIOPullupsFor100Pin
    1360              
    1361              ;***************************************************************
    1362              ;* FNAME: _GPIO_EnableUnbondedIOPullupsFor100Pin FR SIZE:   0           *
    1363              ;*                                                             *
    1364              ;* FUNCTION ENVIRONMENT                                        *
    1365              ;*                                                             *
    1366              ;* FUNCTION PROPERTIES                                         *
    1367              ;*                            0 Parameter,  0 Auto,  0 SOE     *
    1368              ;***************************************************************
    1369              
    1370 000001d4       _GPIO_EnableUnbondedIOPullupsFor100Pin:
    1371                      .dwcfi  cfa_offset, -2
    1372                      .dwcfi  save_reg_to_mem, 26, 0
    1373                      .dwpsn  file "../F2837xD/F2837xD_Gpio.c",line 396,column 9,is_stmt,isa 0
    1374 000001d4 7622   EALLOW
    1375                      .dwpsn  file "../F2837xD/F2837xD_Gpio.c",line 397,column 9,is_stmt,isa 0
    1376 000001d5 8F3F          MOVL      XAR4,#4193308         ; [CPU_ARAU] |397| 
         000001d6 FC1C 
    1377 000001d7 761F!         MOVW      DP,#_GpioCtrlRegs+12  ; [CPU_ARAU] 
         000001d8 0000 
    1378 000001d9 A80C!         MOVL      @_GpioCtrlRegs+12,XAR4 ; [CPU_ALU] |397| 
    1379                      .dwpsn  file "../F2837xD/F2837xD_Gpio.c",line 398,column 9,is_stmt,isa 0
    1380 000001da 28A9          MOV       AL,#3584              ; [CPU_ALU] |398| 
         000001db 0E00 
    1381 000001dc 28A8          MOV       AH,#64512             ; [CPU_ALU] |398| 
         000001dd FC00 
    1382 000001de 761F!         MOVW      DP,#_GpioCtrlRegs+76  ; [CPU_ARAU] 
         000001df 0001 
    1383 000001e0 1E0C!         MOVL      @_GpioCtrlRegs+76,ACC ; [CPU_ALU] |398| 
TMS320C2000 Assembler PC v18.1.2 Fri Dec 14 17:55:26 2018

Tools Copyright (c) 1996-2017 Texas Instruments Incorporated
F2837xD_Gpio.asm                                                     PAGE   27

    1384                      .dwpsn  file "../F2837xD/F2837xD_Gpio.c",line 399,column 9,is_stmt,isa 0
    1385 000001e1 28A9          MOV       AL,#17383             ; [CPU_ALU] |399| 
         000001e2 43E7 
    1386 000001e3 28A8          MOV       AH,#7920              ; [CPU_ALU] |399| 
         000001e4 1EF0 
    1387 000001e5 761F!         MOVW      DP,#_GpioCtrlRegs+140 ; [CPU_ARAU] 
         000001e6 0002 
    1388 000001e7 1E0C!         MOVL      @_GpioCtrlRegs+140,ACC ; [CPU_ALU] |399| 
    1389                      .dwpsn  file "../F2837xD/F2837xD_Gpio.c",line 400,column 9,is_stmt,isa 0
    1390 000001e8 761F!         MOVW      DP,#_GpioCtrlRegs+204 ; [CPU_ARAU] 
         000001e9 0003 
    1391 000001ea 0208          MOVB      ACC,#8                ; [CPU_ALU] |400| 
    1392 000001eb 1E0C!         MOVL      @_GpioCtrlRegs+204,ACC ; [CPU_ALU] |400| 
    1393                      .dwpsn  file "../F2837xD/F2837xD_Gpio.c",line 401,column 9,is_stmt,isa 0
    1394 000001ec 761F!         MOVW      DP,#_GpioCtrlRegs+268 ; [CPU_ARAU] 
         000001ed 0004 
    1395 000001ee 0200          MOVB      ACC,#0                ; [CPU_ALU] |401| 
    1396 000001ef 1E0C!         MOVL      @_GpioCtrlRegs+268,ACC ; [CPU_ALU] |401| 
    1397                      .dwpsn  file "../F2837xD/F2837xD_Gpio.c",line 402,column 9,is_stmt,isa 0
    1398 000001f0 3B01          SETC      SXM                   ; [CPU_ALU] 
    1399 000001f1 761F!         MOVW      DP,#_GpioCtrlRegs+332 ; [CPU_ARAU] 
         000001f2 0005 
    1400 000001f3 FF29          MOV       ACC,#-1 << 9          ; [CPU_ALU] |402| 
         000001f4 FFFF 
    1401 000001f5 1E0C!         MOVL      @_GpioCtrlRegs+332,ACC ; [CPU_ALU] |402| 
    1402                      .dwpsn  file "../F2837xD/F2837xD_Gpio.c",line 403,column 9,is_stmt,isa 0
    1403 000001f6 761A   EDIS
    1404                      .dwpsn  file "../F2837xD/F2837xD_Gpio.c",line 404,column 5,is_stmt,isa 0
    1405 000001f7 FF69          SPM       #0                    ; [CPU_ALU] 
    1406              $C$DW$75        .dwtag  DW_TAG_TI_branch
    1407                      .dwattr $C$DW$75, DW_AT_low_pc(0x00)
    1408                      .dwattr $C$DW$75, DW_AT_TI_return
    1409              
    1410 000001f8 0006          LRETR     ; [CPU_ALU] 
    1411                      ; return occurs ; [] 
    1412                      .dwattr $C$DW$74, DW_AT_TI_end_file("../F2837xD/F2837xD_Gpio.c")
    1413                      .dwattr $C$DW$74, DW_AT_TI_end_line(0x194)
    1414                      .dwattr $C$DW$74, DW_AT_TI_end_column(0x05)
    1415                      .dwendentry
    1416                      .dwendtag $C$DW$74
    1417              
    1418 000001f9               .sect   ".text"
    1419                      .clink
    1420                      .global _GPIO_EnableUnbondedIOPullups
    1421              
    1422              $C$DW$76        .dwtag  DW_TAG_subprogram
    1423                      .dwattr $C$DW$76, DW_AT_name("GPIO_EnableUnbondedIOPullups")
    1424                      .dwattr $C$DW$76, DW_AT_low_pc(_GPIO_EnableUnbondedIOPullups)
    1425                      .dwattr $C$DW$76, DW_AT_high_pc(0x00)
    1426                      .dwattr $C$DW$76, DW_AT_TI_symbol_name("_GPIO_EnableUnbondedIOPullups")
    1427                      .dwattr $C$DW$76, DW_AT_external
    1428                      .dwattr $C$DW$76, DW_AT_TI_begin_file("../F2837xD/F2837xD_Gpio.c")
    1429                      .dwattr $C$DW$76, DW_AT_TI_begin_line(0x19a)
    1430                      .dwattr $C$DW$76, DW_AT_TI_begin_column(0x0a)
    1431                      .dwattr $C$DW$76, DW_AT_TI_max_frame_size(-4)
TMS320C2000 Assembler PC v18.1.2 Fri Dec 14 17:55:26 2018

Tools Copyright (c) 1996-2017 Texas Instruments Incorporated
F2837xD_Gpio.asm                                                     PAGE   28

    1432                      .dwpsn  file "../F2837xD/F2837xD_Gpio.c",line 411,column 5,is_stmt,address _GPIO_EnableUnbondedIOPull
    1433              
    1434                      .dwfde $C$DW$CIE, _GPIO_EnableUnbondedIOPullups
    1435              
    1436              ;***************************************************************
    1437              ;* FNAME: _GPIO_EnableUnbondedIOPullups FR SIZE:   2           *
    1438              ;*                                                             *
    1439              ;* FUNCTION ENVIRONMENT                                        *
    1440              ;*                                                             *
    1441              ;* FUNCTION PROPERTIES                                         *
    1442              ;*                            0 Parameter,  1 Auto,  0 SOE     *
    1443              ;***************************************************************
    1444              
    1445 000001f9       _GPIO_EnableUnbondedIOPullups:
    1446                      .dwcfi  cfa_offset, -2
    1447                      .dwcfi  save_reg_to_mem, 26, 0
    1448 000001f9 FE02          ADDB      SP,#2                 ; [CPU_ARAU] 
    1449                      .dwcfi  cfa_offset, -4
    1450              $C$DW$77        .dwtag  DW_TAG_variable
    1451                      .dwattr $C$DW$77, DW_AT_name("pin_count")
    1452                      .dwattr $C$DW$77, DW_AT_TI_symbol_name("_pin_count")
    1453                      .dwattr $C$DW$77, DW_AT_type(*$C$DW$T$6)
    1454                      .dwattr $C$DW$77, DW_AT_location[DW_OP_breg20 -1]
    1455              
    1456                      .dwpsn  file "../F2837xD/F2837xD_Gpio.c",line 415,column 33,is_stmt,isa 0
    1457 000001fa 761F!         MOVW      DP,#_DevCfgRegs+8     ; [CPU_ARAU] 
         000001fb 0000 
    1458 000001fc 0608!         MOVL      ACC,@_DevCfgRegs+8    ; [CPU_ALU] |415| 
    1459 000001fd 2901          CLRC      SXM                   ; [CPU_ALU] 
    1460 000001fe 18A9          AND       AL,#1792              ; [CPU_ALU] |415| 
         000001ff 0700 
    1461 00000200 9100          ANDB      AH,#0                 ; [CPU_ALU] |415| 
    1462 00000201 FF47          SFR       ACC,8                 ; [CPU_ALU] |415| 
    1463 00000202 9641          MOV       *-SP[1],AL            ; [CPU_ALU] |415| 
    1464                      .dwpsn  file "../F2837xD/F2837xD_Gpio.c",line 422,column 9,is_stmt,isa 0
    1465 00000203 5205          CMPB      AL,#5                 ; [CPU_ALU] |422| 
    1466 00000204 6004          B         $C$L19,NEQ            ; [CPU_ALU] |422| 
    1467                      ; branchcc occurs ; [] |422| 
    1468                      .dwpsn  file "../F2837xD/F2837xD_Gpio.c",line 424,column 13,is_stmt,isa 0
    1469              $C$DW$78        .dwtag  DW_TAG_TI_branch
    1470                      .dwattr $C$DW$78, DW_AT_low_pc(0x00)
    1471                      .dwattr $C$DW$78, DW_AT_name("_GPIO_EnableUnbondedIOPullupsFor100Pin")
    1472                      .dwattr $C$DW$78, DW_AT_TI_call
    1473              
    1474 00000205 7640'         LCR       #_GPIO_EnableUnbondedIOPullupsFor100Pin ; [CPU_ALU] |424| 
         00000206 01D4 
    1475                      ; call occurs [#_GPIO_EnableUnbondedIOPullupsFor100Pin] ; [] |424| 
    1476                      .dwpsn  file "../F2837xD/F2837xD_Gpio.c",line 425,column 9,is_stmt,isa 0
    1477 00000207 6F06          B         $C$L20,UNC            ; [CPU_ALU] |425| 
    1478                      ; branch occurs ; [] |425| 
    1479 00000208       $C$L19:    
    1480                      .dwpsn  file "../F2837xD/F2837xD_Gpio.c",line 426,column 14,is_stmt,isa 0
    1481 00000208 5206          CMPB      AL,#6                 ; [CPU_ALU] |426| 
    1482 00000209 6004          B         $C$L20,NEQ            ; [CPU_ALU] |426| 
    1483                      ; branchcc occurs ; [] |426| 
TMS320C2000 Assembler PC v18.1.2 Fri Dec 14 17:55:26 2018

Tools Copyright (c) 1996-2017 Texas Instruments Incorporated
F2837xD_Gpio.asm                                                     PAGE   29

    1484                      .dwpsn  file "../F2837xD/F2837xD_Gpio.c",line 428,column 13,is_stmt,isa 0
    1485              $C$DW$79        .dwtag  DW_TAG_TI_branch
    1486                      .dwattr $C$DW$79, DW_AT_low_pc(0x00)
    1487                      .dwattr $C$DW$79, DW_AT_name("_GPIO_EnableUnbondedIOPullupsFor176Pin")
    1488                      .dwattr $C$DW$79, DW_AT_TI_call
    1489              
    1490 0000020a 7640'         LCR       #_GPIO_EnableUnbondedIOPullupsFor176Pin ; [CPU_ALU] |428| 
         0000020b 01BB 
    1491                      ; call occurs [#_GPIO_EnableUnbondedIOPullupsFor176Pin] ; [] |428| 
    1492                      .dwpsn  file "../F2837xD/F2837xD_Gpio.c",line 429,column 9,is_stmt,isa 0
    1493 0000020c 6F01          B         $C$L20,UNC            ; [CPU_ALU] |429| 
    1494                      ; branch occurs ; [] |429| 
    1495 0000020d       $C$L20:    
    1496 0000020d FE82          SUBB      SP,#2                 ; [CPU_ARAU] 
    1497                      .dwcfi  cfa_offset, -2
    1498              $C$DW$80        .dwtag  DW_TAG_TI_branch
    1499                      .dwattr $C$DW$80, DW_AT_low_pc(0x00)
    1500                      .dwattr $C$DW$80, DW_AT_TI_return
    1501              
    1502 0000020e 0006          LRETR     ; [CPU_ALU] 
    1503                      ; return occurs ; [] 
    1504                      .dwattr $C$DW$76, DW_AT_TI_end_file("../F2837xD/F2837xD_Gpio.c")
    1505                      .dwattr $C$DW$76, DW_AT_TI_end_line(0x1b2)
    1506                      .dwattr $C$DW$76, DW_AT_TI_end_column(0x05)
    1507                      .dwendentry
    1508                      .dwendtag $C$DW$76
    1509              
    1510 0000020f               .sect   ".text"
    1511                      .clink
    1512                      .global _GPIO_ReadPin
    1513              
    1514              $C$DW$81        .dwtag  DW_TAG_subprogram
    1515                      .dwattr $C$DW$81, DW_AT_name("GPIO_ReadPin")
    1516                      .dwattr $C$DW$81, DW_AT_low_pc(_GPIO_ReadPin)
    1517                      .dwattr $C$DW$81, DW_AT_high_pc(0x00)
    1518                      .dwattr $C$DW$81, DW_AT_TI_symbol_name("_GPIO_ReadPin")
    1519                      .dwattr $C$DW$81, DW_AT_external
    1520                      .dwattr $C$DW$81, DW_AT_type(*$C$DW$T$19)
    1521                      .dwattr $C$DW$81, DW_AT_TI_begin_file("../F2837xD/F2837xD_Gpio.c")
    1522                      .dwattr $C$DW$81, DW_AT_TI_begin_line(0x1bb)
    1523                      .dwattr $C$DW$81, DW_AT_TI_begin_column(0x08)
    1524                      .dwattr $C$DW$81, DW_AT_TI_max_frame_size(-6)
    1525                      .dwpsn  file "../F2837xD/F2837xD_Gpio.c",line 444,column 1,is_stmt,address _GPIO_ReadPin,isa 0
    1526              
    1527                      .dwfde $C$DW$CIE, _GPIO_ReadPin
    1528              $C$DW$82        .dwtag  DW_TAG_formal_parameter
    1529                      .dwattr $C$DW$82, DW_AT_name("pin")
    1530                      .dwattr $C$DW$82, DW_AT_TI_symbol_name("_pin")
    1531                      .dwattr $C$DW$82, DW_AT_type(*$C$DW$T$19)
    1532                      .dwattr $C$DW$82, DW_AT_location[DW_OP_reg0]
    1533              
    1534              
    1535              ;***************************************************************
    1536              ;* FNAME: _GPIO_ReadPin                 FR SIZE:   4           *
    1537              ;*                                                             *
TMS320C2000 Assembler PC v18.1.2 Fri Dec 14 17:55:26 2018

Tools Copyright (c) 1996-2017 Texas Instruments Incorporated
F2837xD_Gpio.asm                                                     PAGE   30

    1538              ;* FUNCTION ENVIRONMENT                                        *
    1539              ;*                                                             *
    1540              ;* FUNCTION PROPERTIES                                         *
    1541              ;*                            0 Parameter,  4 Auto,  0 SOE     *
    1542              ;***************************************************************
    1543              
    1544 0000020f       _GPIO_ReadPin:
    1545                      .dwcfi  cfa_offset, -2
    1546                      .dwcfi  save_reg_to_mem, 26, 0
    1547 0000020f FE04          ADDB      SP,#4                 ; [CPU_ARAU] 
    1548                      .dwcfi  cfa_offset, -6
    1549              $C$DW$83        .dwtag  DW_TAG_variable
    1550                      .dwattr $C$DW$83, DW_AT_name("gpioDataReg")
    1551                      .dwattr $C$DW$83, DW_AT_TI_symbol_name("_gpioDataReg")
    1552                      .dwattr $C$DW$83, DW_AT_type(*$C$DW$T$416)
    1553                      .dwattr $C$DW$83, DW_AT_location[DW_OP_breg20 -2]
    1554              
    1555              $C$DW$84        .dwtag  DW_TAG_variable
    1556                      .dwattr $C$DW$84, DW_AT_name("pin")
    1557                      .dwattr $C$DW$84, DW_AT_TI_symbol_name("_pin")
    1558                      .dwattr $C$DW$84, DW_AT_type(*$C$DW$T$19)
    1559                      .dwattr $C$DW$84, DW_AT_location[DW_OP_breg20 -3]
    1560              
    1561              $C$DW$85        .dwtag  DW_TAG_variable
    1562                      .dwattr $C$DW$85, DW_AT_name("pinVal")
    1563                      .dwattr $C$DW$85, DW_AT_TI_symbol_name("_pinVal")
    1564                      .dwattr $C$DW$85, DW_AT_type(*$C$DW$T$19)
    1565                      .dwattr $C$DW$85, DW_AT_location[DW_OP_breg20 -4]
    1566              
    1567 00000210 9643          MOV       *-SP[3],AL            ; [CPU_ALU] |444| 
    1568                      .dwpsn  file "../F2837xD/F2837xD_Gpio.c",line 448,column 5,is_stmt,isa 0
    1569 00000211 FFC4          LSR       AL,5                  ; [CPU_ALU] |448| 
    1570 00000212 2901          CLRC      SXM                   ; [CPU_FPU] 
    1571 00000213 8F00!         MOVL      XAR4,#_GpioDataRegs   ; [CPU_ARAU] |448| 
         00000214 0000 
    1572 00000215 FF81          LSL       AL,2                  ; [CPU_ALU] |448| 
    1573 00000216 5603          MOV       ACC,AL << 1           ; [CPU_ALU] |448| 
         00000217 01A9 
    1574 00000218 5601          ADDL      XAR4,ACC              ; [CPU_ALU] |448| 
         00000219 00A4 
    1575 0000021a A842          MOVL      *-SP[2],XAR4          ; [CPU_ALU] |448| 
    1576                      .dwpsn  file "../F2837xD/F2837xD_Gpio.c",line 449,column 5,is_stmt,isa 0
    1577 0000021b 9243          MOV       AL,*-SP[3]            ; [CPU_ALU] |449| 
    1578 0000021c 901F          ANDB      AL,#0x1f              ; [CPU_ALU] |449| 
    1579 0000021d 2DA9          MOV       T,AL                  ; [CPU_ALU] |449| 
    1580 0000021e 06C4          MOVL      ACC,*+XAR4[0]         ; [CPU_ALU] |449| 
    1581 0000021f 5622          LSRL      ACC,T                 ; [CPU_ALU] |449| 
    1582 00000220 1EA6          MOVL      XAR6,ACC              ; [CPU_ALU] |449| 
    1583 00000221 92A6          MOV       AL,AR6                ; [CPU_ALU] |449| 
    1584 00000222 9001          ANDB      AL,#0x01              ; [CPU_ALU] |449| 
    1585 00000223 9644          MOV       *-SP[4],AL            ; [CPU_ALU] |449| 
    1586                      .dwpsn  file "../F2837xD/F2837xD_Gpio.c",line 451,column 5,is_stmt,isa 0
    1587                      .dwpsn  file "../F2837xD/F2837xD_Gpio.c",line 452,column 1,is_stmt,isa 0
    1588 00000224 FE84          SUBB      SP,#4                 ; [CPU_ARAU] 
    1589                      .dwcfi  cfa_offset, -2
TMS320C2000 Assembler PC v18.1.2 Fri Dec 14 17:55:26 2018

Tools Copyright (c) 1996-2017 Texas Instruments Incorporated
F2837xD_Gpio.asm                                                     PAGE   31

    1590              $C$DW$86        .dwtag  DW_TAG_TI_branch
    1591                      .dwattr $C$DW$86, DW_AT_low_pc(0x00)
    1592                      .dwattr $C$DW$86, DW_AT_TI_return
    1593              
    1594 00000225 0006          LRETR     ; [CPU_ALU] 
    1595                      ; return occurs ; [] 
    1596                      .dwattr $C$DW$81, DW_AT_TI_end_file("../F2837xD/F2837xD_Gpio.c")
    1597                      .dwattr $C$DW$81, DW_AT_TI_end_line(0x1c4)
    1598                      .dwattr $C$DW$81, DW_AT_TI_end_column(0x01)
    1599                      .dwendentry
    1600                      .dwendtag $C$DW$81
    1601              
    1602 00000226               .sect   ".text"
    1603                      .clink
    1604                      .global _GPIO_WritePin
    1605              
    1606              $C$DW$87        .dwtag  DW_TAG_subprogram
    1607                      .dwattr $C$DW$87, DW_AT_name("GPIO_WritePin")
    1608                      .dwattr $C$DW$87, DW_AT_low_pc(_GPIO_WritePin)
    1609                      .dwattr $C$DW$87, DW_AT_high_pc(0x00)
    1610                      .dwattr $C$DW$87, DW_AT_TI_symbol_name("_GPIO_WritePin")
    1611                      .dwattr $C$DW$87, DW_AT_external
    1612                      .dwattr $C$DW$87, DW_AT_TI_begin_file("../F2837xD/F2837xD_Gpio.c")
    1613                      .dwattr $C$DW$87, DW_AT_TI_begin_line(0x1c9)
    1614                      .dwattr $C$DW$87, DW_AT_TI_begin_column(0x06)
    1615                      .dwattr $C$DW$87, DW_AT_TI_max_frame_size(-8)
    1616                      .dwpsn  file "../F2837xD/F2837xD_Gpio.c",line 458,column 1,is_stmt,address _GPIO_WritePin,isa 0
    1617              
    1618                      .dwfde $C$DW$CIE, _GPIO_WritePin
    1619              $C$DW$88        .dwtag  DW_TAG_formal_parameter
    1620                      .dwattr $C$DW$88, DW_AT_name("pin")
    1621                      .dwattr $C$DW$88, DW_AT_TI_symbol_name("_pin")
    1622                      .dwattr $C$DW$88, DW_AT_type(*$C$DW$T$19)
    1623                      .dwattr $C$DW$88, DW_AT_location[DW_OP_reg0]
    1624              
    1625              $C$DW$89        .dwtag  DW_TAG_formal_parameter
    1626                      .dwattr $C$DW$89, DW_AT_name("outVal")
    1627                      .dwattr $C$DW$89, DW_AT_TI_symbol_name("_outVal")
    1628                      .dwattr $C$DW$89, DW_AT_type(*$C$DW$T$19)
    1629                      .dwattr $C$DW$89, DW_AT_location[DW_OP_reg1]
    1630              
    1631              
    1632              ;***************************************************************
    1633              ;* FNAME: _GPIO_WritePin                FR SIZE:   6           *
    1634              ;*                                                             *
    1635              ;* FUNCTION ENVIRONMENT                                        *
    1636              ;*                                                             *
    1637              ;* FUNCTION PROPERTIES                                         *
    1638              ;*                            0 Parameter,  6 Auto,  0 SOE     *
    1639              ;***************************************************************
    1640              
    1641 00000226       _GPIO_WritePin:
    1642                      .dwcfi  cfa_offset, -2
    1643                      .dwcfi  save_reg_to_mem, 26, 0
    1644 00000226 FE06          ADDB      SP,#6                 ; [CPU_ARAU] 
TMS320C2000 Assembler PC v18.1.2 Fri Dec 14 17:55:26 2018

Tools Copyright (c) 1996-2017 Texas Instruments Incorporated
F2837xD_Gpio.asm                                                     PAGE   32

    1645                      .dwcfi  cfa_offset, -8
    1646              $C$DW$90        .dwtag  DW_TAG_variable
    1647                      .dwattr $C$DW$90, DW_AT_name("gpioDataReg")
    1648                      .dwattr $C$DW$90, DW_AT_TI_symbol_name("_gpioDataReg")
    1649                      .dwattr $C$DW$90, DW_AT_type(*$C$DW$T$416)
    1650                      .dwattr $C$DW$90, DW_AT_location[DW_OP_breg20 -2]
    1651              
    1652              $C$DW$91        .dwtag  DW_TAG_variable
    1653                      .dwattr $C$DW$91, DW_AT_name("pinMask")
    1654                      .dwattr $C$DW$91, DW_AT_TI_symbol_name("_pinMask")
    1655                      .dwattr $C$DW$91, DW_AT_type(*$C$DW$T$21)
    1656                      .dwattr $C$DW$91, DW_AT_location[DW_OP_breg20 -4]
    1657              
    1658              $C$DW$92        .dwtag  DW_TAG_variable
    1659                      .dwattr $C$DW$92, DW_AT_name("pin")
    1660                      .dwattr $C$DW$92, DW_AT_TI_symbol_name("_pin")
    1661                      .dwattr $C$DW$92, DW_AT_type(*$C$DW$T$19)
    1662                      .dwattr $C$DW$92, DW_AT_location[DW_OP_breg20 -5]
    1663              
    1664              $C$DW$93        .dwtag  DW_TAG_variable
    1665                      .dwattr $C$DW$93, DW_AT_name("outVal")
    1666                      .dwattr $C$DW$93, DW_AT_TI_symbol_name("_outVal")
    1667                      .dwattr $C$DW$93, DW_AT_type(*$C$DW$T$19)
    1668                      .dwattr $C$DW$93, DW_AT_location[DW_OP_breg20 -6]
    1669              
    1670 00000227 9746          MOV       *-SP[6],AH            ; [CPU_ALU] |458| 
    1671 00000228 9645          MOV       *-SP[5],AL            ; [CPU_ALU] |458| 
    1672                      .dwpsn  file "../F2837xD/F2837xD_Gpio.c",line 462,column 5,is_stmt,isa 0
    1673 00000229 FFC4          LSR       AL,5                  ; [CPU_ALU] |462| 
    1674 0000022a 2901          CLRC      SXM                   ; [CPU_FPU] 
    1675 0000022b 8F00!         MOVL      XAR4,#_GpioDataRegs   ; [CPU_ARAU] |462| 
         0000022c 0000 
    1676 0000022d FF81          LSL       AL,2                  ; [CPU_ALU] |462| 
    1677 0000022e 5603          MOV       ACC,AL << 1           ; [CPU_ALU] |462| 
         0000022f 01A9 
    1678 00000230 5601          ADDL      XAR4,ACC              ; [CPU_ALU] |462| 
         00000231 00A4 
    1679 00000232 A842          MOVL      *-SP[2],XAR4          ; [CPU_ALU] |462| 
    1680                      .dwpsn  file "../F2837xD/F2837xD_Gpio.c",line 463,column 5,is_stmt,isa 0
    1681 00000233 0201          MOVB      ACC,#1                ; [CPU_ALU] |463| 
    1682 00000234 1EA6          MOVL      XAR6,ACC              ; [CPU_ALU] |463| 
    1683 00000235 9245          MOV       AL,*-SP[5]            ; [CPU_ALU] |463| 
    1684 00000236 901F          ANDB      AL,#0x1f              ; [CPU_ALU] |463| 
    1685 00000237 2DA9          MOV       T,AL                  ; [CPU_ALU] |463| 
    1686 00000238 06A6          MOVL      ACC,XAR6              ; [CPU_ALU] |463| 
    1687 00000239 563B          LSLL      ACC,T                 ; [CPU_ALU] |463| 
    1688 0000023a 1E44          MOVL      *-SP[4],ACC           ; [CPU_ALU] |463| 
    1689                      .dwpsn  file "../F2837xD/F2837xD_Gpio.c",line 465,column 5,is_stmt,isa 0
    1690 0000023b 9246          MOV       AL,*-SP[6]            ; [CPU_ALU] |465| 
    1691 0000023c 6004          B         $C$L21,NEQ            ; [CPU_ALU] |465| 
    1692                      ; branchcc occurs ; [] |465| 
    1693                      .dwpsn  file "../F2837xD/F2837xD_Gpio.c",line 467,column 9,is_stmt,isa 0
    1694 0000023d 0644          MOVL      ACC,*-SP[4]           ; [CPU_ALU] |467| 
    1695 0000023e 1EE4          MOVL      *+XAR4[4],ACC         ; [CPU_ALU] |467| 
    1696                      .dwpsn  file "../F2837xD/F2837xD_Gpio.c",line 468,column 5,is_stmt,isa 0
TMS320C2000 Assembler PC v18.1.2 Fri Dec 14 17:55:26 2018

Tools Copyright (c) 1996-2017 Texas Instruments Incorporated
F2837xD_Gpio.asm                                                     PAGE   33

    1697 0000023f 6F03          B         $C$L22,UNC            ; [CPU_ALU] |468| 
    1698                      ; branch occurs ; [] |468| 
    1699 00000240       $C$L21:    
    1700                      .dwpsn  file "../F2837xD/F2837xD_Gpio.c",line 471,column 9,is_stmt,isa 0
    1701 00000240 0644          MOVL      ACC,*-SP[4]           ; [CPU_ALU] |471| 
    1702 00000241 1ED4          MOVL      *+XAR4[2],ACC         ; [CPU_ALU] |471| 
    1703                      .dwpsn  file "../F2837xD/F2837xD_Gpio.c",line 473,column 1,is_stmt,isa 0
    1704 00000242       $C$L22:    
    1705 00000242 FE86          SUBB      SP,#6                 ; [CPU_ARAU] 
    1706                      .dwcfi  cfa_offset, -2
    1707              $C$DW$94        .dwtag  DW_TAG_TI_branch
    1708                      .dwattr $C$DW$94, DW_AT_low_pc(0x00)
    1709                      .dwattr $C$DW$94, DW_AT_TI_return
    1710              
    1711 00000243 0006          LRETR     ; [CPU_ALU] 
    1712                      ; return occurs ; [] 
    1713                      .dwattr $C$DW$87, DW_AT_TI_end_file("../F2837xD/F2837xD_Gpio.c")
    1714                      .dwattr $C$DW$87, DW_AT_TI_end_line(0x1d9)
    1715                      .dwattr $C$DW$87, DW_AT_TI_end_column(0x01)
    1716                      .dwendentry
    1717                      .dwendtag $C$DW$87
    1718              
    1719              ;**************************************************************
    1720              ;* UNDEFINED EXTERNAL REFERENCES                              *
    1721              ;**************************************************************
    1722                      .global _InputXbarRegs
    1723                      .global _GpioDataRegs
    1724                      .global _DevCfgRegs
    1725                      .global _GpioCtrlRegs
    1726              
    1727              ;***************************************************************
    1728              ;* TYPE INFORMATION                                            *
    1729              ;***************************************************************
    1730              
    1731              $C$DW$T$20      .dwtag  DW_TAG_structure_type
    1732                      .dwattr $C$DW$T$20, DW_AT_name("CPU2RESCTL_BITS")
    1733                      .dwattr $C$DW$T$20, DW_AT_byte_size(0x02)
    1734              $C$DW$95        .dwtag  DW_TAG_member
    1735                      .dwattr $C$DW$95, DW_AT_type(*$C$DW$T$19)
    1736                      .dwattr $C$DW$95, DW_AT_name("RESET")
    1737                      .dwattr $C$DW$95, DW_AT_TI_symbol_name("_RESET")
    1738                      .dwattr $C$DW$95, DW_AT_bit_offset(0x0f)
    1739                      .dwattr $C$DW$95, DW_AT_bit_size(0x01)
    1740                      .dwattr $C$DW$95, DW_AT_data_member_location[DW_OP_plus_uconst 0x0]
    1741                      .dwattr $C$DW$95, DW_AT_accessibility(DW_ACCESS_public)
    1742              
    1743              $C$DW$96        .dwtag  DW_TAG_member
    1744                      .dwattr $C$DW$96, DW_AT_type(*$C$DW$T$19)
    1745                      .dwattr $C$DW$96, DW_AT_name("rsvd1")
    1746                      .dwattr $C$DW$96, DW_AT_TI_symbol_name("_rsvd1")
    1747                      .dwattr $C$DW$96, DW_AT_bit_offset(0x00)
    1748                      .dwattr $C$DW$96, DW_AT_bit_size(0x0f)
    1749                      .dwattr $C$DW$96, DW_AT_data_member_location[DW_OP_plus_uconst 0x0]
    1750                      .dwattr $C$DW$96, DW_AT_accessibility(DW_ACCESS_public)
    1751              
TMS320C2000 Assembler PC v18.1.2 Fri Dec 14 17:55:26 2018

Tools Copyright (c) 1996-2017 Texas Instruments Incorporated
F2837xD_Gpio.asm                                                     PAGE   34

    1752              $C$DW$97        .dwtag  DW_TAG_member
    1753                      .dwattr $C$DW$97, DW_AT_type(*$C$DW$T$19)
    1754                      .dwattr $C$DW$97, DW_AT_name("KEY")
    1755                      .dwattr $C$DW$97, DW_AT_TI_symbol_name("_KEY")
    1756                      .dwattr $C$DW$97, DW_AT_bit_offset(0x00)
    1757                      .dwattr $C$DW$97, DW_AT_bit_size(0x10)
    1758                      .dwattr $C$DW$97, DW_AT_data_member_location[DW_OP_plus_uconst 0x1]
    1759                      .dwattr $C$DW$97, DW_AT_accessibility(DW_ACCESS_public)
    1760              
    1761                      .dwendtag $C$DW$T$20
    1762              
    1763              
    1764              $C$DW$T$22      .dwtag  DW_TAG_union_type
    1765                      .dwattr $C$DW$T$22, DW_AT_name("CPU2RESCTL_REG")
    1766                      .dwattr $C$DW$T$22, DW_AT_byte_size(0x02)
    1767              $C$DW$98        .dwtag  DW_TAG_member
    1768                      .dwattr $C$DW$98, DW_AT_type(*$C$DW$T$21)
    1769                      .dwattr $C$DW$98, DW_AT_name("all")
    1770                      .dwattr $C$DW$98, DW_AT_TI_symbol_name("_all")
    1771                      .dwattr $C$DW$98, DW_AT_data_member_location[DW_OP_plus_uconst 0x0]
    1772                      .dwattr $C$DW$98, DW_AT_accessibility(DW_ACCESS_public)
    1773              
    1774              $C$DW$99        .dwtag  DW_TAG_member
    1775                      .dwattr $C$DW$99, DW_AT_type(*$C$DW$T$20)
    1776                      .dwattr $C$DW$99, DW_AT_name("bit")
    1777                      .dwattr $C$DW$99, DW_AT_TI_symbol_name("_bit")
    1778                      .dwattr $C$DW$99, DW_AT_data_member_location[DW_OP_plus_uconst 0x0]
    1779                      .dwattr $C$DW$99, DW_AT_accessibility(DW_ACCESS_public)
    1780              
    1781                      .dwendtag $C$DW$T$22
    1782              
    1783              
    1784              $C$DW$T$23      .dwtag  DW_TAG_structure_type
    1785                      .dwattr $C$DW$T$23, DW_AT_name("CPUSEL0_BITS")
    1786                      .dwattr $C$DW$T$23, DW_AT_byte_size(0x02)
    1787              $C$DW$100       .dwtag  DW_TAG_member
    1788                      .dwattr $C$DW$100, DW_AT_type(*$C$DW$T$19)
    1789                      .dwattr $C$DW$100, DW_AT_name("EPWM1")
    1790                      .dwattr $C$DW$100, DW_AT_TI_symbol_name("_EPWM1")
    1791                      .dwattr $C$DW$100, DW_AT_bit_offset(0x0f)
    1792                      .dwattr $C$DW$100, DW_AT_bit_size(0x01)
    1793                      .dwattr $C$DW$100, DW_AT_data_member_location[DW_OP_plus_uconst 0x0]
    1794                      .dwattr $C$DW$100, DW_AT_accessibility(DW_ACCESS_public)
    1795              
    1796              $C$DW$101       .dwtag  DW_TAG_member
    1797                      .dwattr $C$DW$101, DW_AT_type(*$C$DW$T$19)
    1798                      .dwattr $C$DW$101, DW_AT_name("EPWM2")
    1799                      .dwattr $C$DW$101, DW_AT_TI_symbol_name("_EPWM2")
    1800                      .dwattr $C$DW$101, DW_AT_bit_offset(0x0e)
    1801                      .dwattr $C$DW$101, DW_AT_bit_size(0x01)
    1802                      .dwattr $C$DW$101, DW_AT_data_member_location[DW_OP_plus_uconst 0x0]
    1803                      .dwattr $C$DW$101, DW_AT_accessibility(DW_ACCESS_public)
    1804              
    1805              $C$DW$102       .dwtag  DW_TAG_member
    1806                      .dwattr $C$DW$102, DW_AT_type(*$C$DW$T$19)
TMS320C2000 Assembler PC v18.1.2 Fri Dec 14 17:55:26 2018

Tools Copyright (c) 1996-2017 Texas Instruments Incorporated
F2837xD_Gpio.asm                                                     PAGE   35

    1807                      .dwattr $C$DW$102, DW_AT_name("EPWM3")
    1808                      .dwattr $C$DW$102, DW_AT_TI_symbol_name("_EPWM3")
    1809                      .dwattr $C$DW$102, DW_AT_bit_offset(0x0d)
    1810                      .dwattr $C$DW$102, DW_AT_bit_size(0x01)
    1811                      .dwattr $C$DW$102, DW_AT_data_member_location[DW_OP_plus_uconst 0x0]
    1812                      .dwattr $C$DW$102, DW_AT_accessibility(DW_ACCESS_public)
    1813              
    1814              $C$DW$103       .dwtag  DW_TAG_member
    1815                      .dwattr $C$DW$103, DW_AT_type(*$C$DW$T$19)
    1816                      .dwattr $C$DW$103, DW_AT_name("EPWM4")
    1817                      .dwattr $C$DW$103, DW_AT_TI_symbol_name("_EPWM4")
    1818                      .dwattr $C$DW$103, DW_AT_bit_offset(0x0c)
    1819                      .dwattr $C$DW$103, DW_AT_bit_size(0x01)
    1820                      .dwattr $C$DW$103, DW_AT_data_member_location[DW_OP_plus_uconst 0x0]
    1821                      .dwattr $C$DW$103, DW_AT_accessibility(DW_ACCESS_public)
    1822              
    1823              $C$DW$104       .dwtag  DW_TAG_member
    1824                      .dwattr $C$DW$104, DW_AT_type(*$C$DW$T$19)
    1825                      .dwattr $C$DW$104, DW_AT_name("EPWM5")
    1826                      .dwattr $C$DW$104, DW_AT_TI_symbol_name("_EPWM5")
    1827                      .dwattr $C$DW$104, DW_AT_bit_offset(0x0b)
    1828                      .dwattr $C$DW$104, DW_AT_bit_size(0x01)
    1829                      .dwattr $C$DW$104, DW_AT_data_member_location[DW_OP_plus_uconst 0x0]
    1830                      .dwattr $C$DW$104, DW_AT_accessibility(DW_ACCESS_public)
    1831              
    1832              $C$DW$105       .dwtag  DW_TAG_member
    1833                      .dwattr $C$DW$105, DW_AT_type(*$C$DW$T$19)
    1834                      .dwattr $C$DW$105, DW_AT_name("EPWM6")
    1835                      .dwattr $C$DW$105, DW_AT_TI_symbol_name("_EPWM6")
    1836                      .dwattr $C$DW$105, DW_AT_bit_offset(0x0a)
    1837                      .dwattr $C$DW$105, DW_AT_bit_size(0x01)
    1838                      .dwattr $C$DW$105, DW_AT_data_member_location[DW_OP_plus_uconst 0x0]
    1839                      .dwattr $C$DW$105, DW_AT_accessibility(DW_ACCESS_public)
    1840              
    1841              $C$DW$106       .dwtag  DW_TAG_member
    1842                      .dwattr $C$DW$106, DW_AT_type(*$C$DW$T$19)
    1843                      .dwattr $C$DW$106, DW_AT_name("EPWM7")
    1844                      .dwattr $C$DW$106, DW_AT_TI_symbol_name("_EPWM7")
    1845                      .dwattr $C$DW$106, DW_AT_bit_offset(0x09)
    1846                      .dwattr $C$DW$106, DW_AT_bit_size(0x01)
    1847                      .dwattr $C$DW$106, DW_AT_data_member_location[DW_OP_plus_uconst 0x0]
    1848                      .dwattr $C$DW$106, DW_AT_accessibility(DW_ACCESS_public)
    1849              
    1850              $C$DW$107       .dwtag  DW_TAG_member
    1851                      .dwattr $C$DW$107, DW_AT_type(*$C$DW$T$19)
    1852                      .dwattr $C$DW$107, DW_AT_name("EPWM8")
    1853                      .dwattr $C$DW$107, DW_AT_TI_symbol_name("_EPWM8")
    1854                      .dwattr $C$DW$107, DW_AT_bit_offset(0x08)
    1855                      .dwattr $C$DW$107, DW_AT_bit_size(0x01)
    1856                      .dwattr $C$DW$107, DW_AT_data_member_location[DW_OP_plus_uconst 0x0]
    1857                      .dwattr $C$DW$107, DW_AT_accessibility(DW_ACCESS_public)
    1858              
    1859              $C$DW$108       .dwtag  DW_TAG_member
    1860                      .dwattr $C$DW$108, DW_AT_type(*$C$DW$T$19)
    1861                      .dwattr $C$DW$108, DW_AT_name("EPWM9")
TMS320C2000 Assembler PC v18.1.2 Fri Dec 14 17:55:26 2018

Tools Copyright (c) 1996-2017 Texas Instruments Incorporated
F2837xD_Gpio.asm                                                     PAGE   36

    1862                      .dwattr $C$DW$108, DW_AT_TI_symbol_name("_EPWM9")
    1863                      .dwattr $C$DW$108, DW_AT_bit_offset(0x07)
    1864                      .dwattr $C$DW$108, DW_AT_bit_size(0x01)
    1865                      .dwattr $C$DW$108, DW_AT_data_member_location[DW_OP_plus_uconst 0x0]
    1866                      .dwattr $C$DW$108, DW_AT_accessibility(DW_ACCESS_public)
    1867              
    1868              $C$DW$109       .dwtag  DW_TAG_member
    1869                      .dwattr $C$DW$109, DW_AT_type(*$C$DW$T$19)
    1870                      .dwattr $C$DW$109, DW_AT_name("EPWM10")
    1871                      .dwattr $C$DW$109, DW_AT_TI_symbol_name("_EPWM10")
    1872                      .dwattr $C$DW$109, DW_AT_bit_offset(0x06)
    1873                      .dwattr $C$DW$109, DW_AT_bit_size(0x01)
    1874                      .dwattr $C$DW$109, DW_AT_data_member_location[DW_OP_plus_uconst 0x0]
    1875                      .dwattr $C$DW$109, DW_AT_accessibility(DW_ACCESS_public)
    1876              
    1877              $C$DW$110       .dwtag  DW_TAG_member
    1878                      .dwattr $C$DW$110, DW_AT_type(*$C$DW$T$19)
    1879                      .dwattr $C$DW$110, DW_AT_name("EPWM11")
    1880                      .dwattr $C$DW$110, DW_AT_TI_symbol_name("_EPWM11")
    1881                      .dwattr $C$DW$110, DW_AT_bit_offset(0x05)
    1882                      .dwattr $C$DW$110, DW_AT_bit_size(0x01)
    1883                      .dwattr $C$DW$110, DW_AT_data_member_location[DW_OP_plus_uconst 0x0]
    1884                      .dwattr $C$DW$110, DW_AT_accessibility(DW_ACCESS_public)
    1885              
    1886              $C$DW$111       .dwtag  DW_TAG_member
    1887                      .dwattr $C$DW$111, DW_AT_type(*$C$DW$T$19)
    1888                      .dwattr $C$DW$111, DW_AT_name("EPWM12")
    1889                      .dwattr $C$DW$111, DW_AT_TI_symbol_name("_EPWM12")
    1890                      .dwattr $C$DW$111, DW_AT_bit_offset(0x04)
    1891                      .dwattr $C$DW$111, DW_AT_bit_size(0x01)
    1892                      .dwattr $C$DW$111, DW_AT_data_member_location[DW_OP_plus_uconst 0x0]
    1893                      .dwattr $C$DW$111, DW_AT_accessibility(DW_ACCESS_public)
    1894              
    1895              $C$DW$112       .dwtag  DW_TAG_member
    1896                      .dwattr $C$DW$112, DW_AT_type(*$C$DW$T$19)
    1897                      .dwattr $C$DW$112, DW_AT_name("rsvd1")
    1898                      .dwattr $C$DW$112, DW_AT_TI_symbol_name("_rsvd1")
    1899                      .dwattr $C$DW$112, DW_AT_bit_offset(0x03)
    1900                      .dwattr $C$DW$112, DW_AT_bit_size(0x01)
    1901                      .dwattr $C$DW$112, DW_AT_data_member_location[DW_OP_plus_uconst 0x0]
    1902                      .dwattr $C$DW$112, DW_AT_accessibility(DW_ACCESS_public)
    1903              
    1904              $C$DW$113       .dwtag  DW_TAG_member
    1905                      .dwattr $C$DW$113, DW_AT_type(*$C$DW$T$19)
    1906                      .dwattr $C$DW$113, DW_AT_name("rsvd2")
    1907                      .dwattr $C$DW$113, DW_AT_TI_symbol_name("_rsvd2")
    1908                      .dwattr $C$DW$113, DW_AT_bit_offset(0x02)
    1909                      .dwattr $C$DW$113, DW_AT_bit_size(0x01)
    1910                      .dwattr $C$DW$113, DW_AT_data_member_location[DW_OP_plus_uconst 0x0]
    1911                      .dwattr $C$DW$113, DW_AT_accessibility(DW_ACCESS_public)
    1912              
    1913              $C$DW$114       .dwtag  DW_TAG_member
    1914                      .dwattr $C$DW$114, DW_AT_type(*$C$DW$T$19)
    1915                      .dwattr $C$DW$114, DW_AT_name("rsvd3")
    1916                      .dwattr $C$DW$114, DW_AT_TI_symbol_name("_rsvd3")
TMS320C2000 Assembler PC v18.1.2 Fri Dec 14 17:55:26 2018

Tools Copyright (c) 1996-2017 Texas Instruments Incorporated
F2837xD_Gpio.asm                                                     PAGE   37

    1917                      .dwattr $C$DW$114, DW_AT_bit_offset(0x01)
    1918                      .dwattr $C$DW$114, DW_AT_bit_size(0x01)
    1919                      .dwattr $C$DW$114, DW_AT_data_member_location[DW_OP_plus_uconst 0x0]
    1920                      .dwattr $C$DW$114, DW_AT_accessibility(DW_ACCESS_public)
    1921              
    1922              $C$DW$115       .dwtag  DW_TAG_member
    1923                      .dwattr $C$DW$115, DW_AT_type(*$C$DW$T$19)
    1924                      .dwattr $C$DW$115, DW_AT_name("rsvd4")
    1925                      .dwattr $C$DW$115, DW_AT_TI_symbol_name("_rsvd4")
    1926                      .dwattr $C$DW$115, DW_AT_bit_offset(0x00)
    1927                      .dwattr $C$DW$115, DW_AT_bit_size(0x01)
    1928                      .dwattr $C$DW$115, DW_AT_data_member_location[DW_OP_plus_uconst 0x0]
    1929                      .dwattr $C$DW$115, DW_AT_accessibility(DW_ACCESS_public)
    1930              
    1931              $C$DW$116       .dwtag  DW_TAG_member
    1932                      .dwattr $C$DW$116, DW_AT_type(*$C$DW$T$19)
    1933                      .dwattr $C$DW$116, DW_AT_name("rsvd5")
    1934                      .dwattr $C$DW$116, DW_AT_TI_symbol_name("_rsvd5")
    1935                      .dwattr $C$DW$116, DW_AT_bit_offset(0x00)
    1936                      .dwattr $C$DW$116, DW_AT_bit_size(0x10)
    1937                      .dwattr $C$DW$116, DW_AT_data_member_location[DW_OP_plus_uconst 0x1]
    1938                      .dwattr $C$DW$116, DW_AT_accessibility(DW_ACCESS_public)
    1939              
    1940                      .dwendtag $C$DW$T$23
    1941              
    1942              
    1943              $C$DW$T$24      .dwtag  DW_TAG_union_type
    1944                      .dwattr $C$DW$T$24, DW_AT_name("CPUSEL0_REG")
    1945                      .dwattr $C$DW$T$24, DW_AT_byte_size(0x02)
    1946              $C$DW$117       .dwtag  DW_TAG_member
    1947                      .dwattr $C$DW$117, DW_AT_type(*$C$DW$T$21)
    1948                      .dwattr $C$DW$117, DW_AT_name("all")
    1949                      .dwattr $C$DW$117, DW_AT_TI_symbol_name("_all")
    1950                      .dwattr $C$DW$117, DW_AT_data_member_location[DW_OP_plus_uconst 0x0]
    1951                      .dwattr $C$DW$117, DW_AT_accessibility(DW_ACCESS_public)
    1952              
    1953              $C$DW$118       .dwtag  DW_TAG_member
    1954                      .dwattr $C$DW$118, DW_AT_type(*$C$DW$T$23)
    1955                      .dwattr $C$DW$118, DW_AT_name("bit")
    1956                      .dwattr $C$DW$118, DW_AT_TI_symbol_name("_bit")
    1957                      .dwattr $C$DW$118, DW_AT_data_member_location[DW_OP_plus_uconst 0x0]
    1958                      .dwattr $C$DW$118, DW_AT_accessibility(DW_ACCESS_public)
    1959              
    1960                      .dwendtag $C$DW$T$24
    1961              
    1962              
    1963              $C$DW$T$25      .dwtag  DW_TAG_structure_type
    1964                      .dwattr $C$DW$T$25, DW_AT_name("CPUSEL11_BITS")
    1965                      .dwattr $C$DW$T$25, DW_AT_byte_size(0x02)
    1966              $C$DW$119       .dwtag  DW_TAG_member
    1967                      .dwattr $C$DW$119, DW_AT_type(*$C$DW$T$19)
    1968                      .dwattr $C$DW$119, DW_AT_name("ADC_A")
    1969                      .dwattr $C$DW$119, DW_AT_TI_symbol_name("_ADC_A")
    1970                      .dwattr $C$DW$119, DW_AT_bit_offset(0x0f)
    1971                      .dwattr $C$DW$119, DW_AT_bit_size(0x01)
TMS320C2000 Assembler PC v18.1.2 Fri Dec 14 17:55:26 2018

Tools Copyright (c) 1996-2017 Texas Instruments Incorporated
F2837xD_Gpio.asm                                                     PAGE   38

    1972                      .dwattr $C$DW$119, DW_AT_data_member_location[DW_OP_plus_uconst 0x0]
    1973                      .dwattr $C$DW$119, DW_AT_accessibility(DW_ACCESS_public)
    1974              
    1975              $C$DW$120       .dwtag  DW_TAG_member
    1976                      .dwattr $C$DW$120, DW_AT_type(*$C$DW$T$19)
    1977                      .dwattr $C$DW$120, DW_AT_name("ADC_B")
    1978                      .dwattr $C$DW$120, DW_AT_TI_symbol_name("_ADC_B")
    1979                      .dwattr $C$DW$120, DW_AT_bit_offset(0x0e)
    1980                      .dwattr $C$DW$120, DW_AT_bit_size(0x01)
    1981                      .dwattr $C$DW$120, DW_AT_data_member_location[DW_OP_plus_uconst 0x0]
    1982                      .dwattr $C$DW$120, DW_AT_accessibility(DW_ACCESS_public)
    1983              
    1984              $C$DW$121       .dwtag  DW_TAG_member
    1985                      .dwattr $C$DW$121, DW_AT_type(*$C$DW$T$19)
    1986                      .dwattr $C$DW$121, DW_AT_name("ADC_C")
    1987                      .dwattr $C$DW$121, DW_AT_TI_symbol_name("_ADC_C")
    1988                      .dwattr $C$DW$121, DW_AT_bit_offset(0x0d)
    1989                      .dwattr $C$DW$121, DW_AT_bit_size(0x01)
    1990                      .dwattr $C$DW$121, DW_AT_data_member_location[DW_OP_plus_uconst 0x0]
    1991                      .dwattr $C$DW$121, DW_AT_accessibility(DW_ACCESS_public)
    1992              
    1993              $C$DW$122       .dwtag  DW_TAG_member
    1994                      .dwattr $C$DW$122, DW_AT_type(*$C$DW$T$19)
    1995                      .dwattr $C$DW$122, DW_AT_name("ADC_D")
    1996                      .dwattr $C$DW$122, DW_AT_TI_symbol_name("_ADC_D")
    1997                      .dwattr $C$DW$122, DW_AT_bit_offset(0x0c)
    1998                      .dwattr $C$DW$122, DW_AT_bit_size(0x01)
    1999                      .dwattr $C$DW$122, DW_AT_data_member_location[DW_OP_plus_uconst 0x0]
    2000                      .dwattr $C$DW$122, DW_AT_accessibility(DW_ACCESS_public)
    2001              
    2002              $C$DW$123       .dwtag  DW_TAG_member
    2003                      .dwattr $C$DW$123, DW_AT_type(*$C$DW$T$19)
    2004                      .dwattr $C$DW$123, DW_AT_name("rsvd1")
    2005                      .dwattr $C$DW$123, DW_AT_TI_symbol_name("_rsvd1")
    2006                      .dwattr $C$DW$123, DW_AT_bit_offset(0x00)
    2007                      .dwattr $C$DW$123, DW_AT_bit_size(0x0c)
    2008                      .dwattr $C$DW$123, DW_AT_data_member_location[DW_OP_plus_uconst 0x0]
    2009                      .dwattr $C$DW$123, DW_AT_accessibility(DW_ACCESS_public)
    2010              
    2011              $C$DW$124       .dwtag  DW_TAG_member
    2012                      .dwattr $C$DW$124, DW_AT_type(*$C$DW$T$19)
    2013                      .dwattr $C$DW$124, DW_AT_name("rsvd2")
    2014                      .dwattr $C$DW$124, DW_AT_TI_symbol_name("_rsvd2")
    2015                      .dwattr $C$DW$124, DW_AT_bit_offset(0x00)
    2016                      .dwattr $C$DW$124, DW_AT_bit_size(0x10)
    2017                      .dwattr $C$DW$124, DW_AT_data_member_location[DW_OP_plus_uconst 0x1]
    2018                      .dwattr $C$DW$124, DW_AT_accessibility(DW_ACCESS_public)
    2019              
    2020                      .dwendtag $C$DW$T$25
    2021              
    2022              
    2023              $C$DW$T$26      .dwtag  DW_TAG_union_type
    2024                      .dwattr $C$DW$T$26, DW_AT_name("CPUSEL11_REG")
    2025                      .dwattr $C$DW$T$26, DW_AT_byte_size(0x02)
    2026              $C$DW$125       .dwtag  DW_TAG_member
TMS320C2000 Assembler PC v18.1.2 Fri Dec 14 17:55:26 2018

Tools Copyright (c) 1996-2017 Texas Instruments Incorporated
F2837xD_Gpio.asm                                                     PAGE   39

    2027                      .dwattr $C$DW$125, DW_AT_type(*$C$DW$T$21)
    2028                      .dwattr $C$DW$125, DW_AT_name("all")
    2029                      .dwattr $C$DW$125, DW_AT_TI_symbol_name("_all")
    2030                      .dwattr $C$DW$125, DW_AT_data_member_location[DW_OP_plus_uconst 0x0]
    2031                      .dwattr $C$DW$125, DW_AT_accessibility(DW_ACCESS_public)
    2032              
    2033              $C$DW$126       .dwtag  DW_TAG_member
    2034                      .dwattr $C$DW$126, DW_AT_type(*$C$DW$T$25)
    2035                      .dwattr $C$DW$126, DW_AT_name("bit")
    2036                      .dwattr $C$DW$126, DW_AT_TI_symbol_name("_bit")
    2037                      .dwattr $C$DW$126, DW_AT_data_member_location[DW_OP_plus_uconst 0x0]
    2038                      .dwattr $C$DW$126, DW_AT_accessibility(DW_ACCESS_public)
    2039              
    2040                      .dwendtag $C$DW$T$26
    2041              
    2042              
    2043              $C$DW$T$27      .dwtag  DW_TAG_structure_type
    2044                      .dwattr $C$DW$T$27, DW_AT_name("CPUSEL12_BITS")
    2045                      .dwattr $C$DW$T$27, DW_AT_byte_size(0x02)
    2046              $C$DW$127       .dwtag  DW_TAG_member
    2047                      .dwattr $C$DW$127, DW_AT_type(*$C$DW$T$19)
    2048                      .dwattr $C$DW$127, DW_AT_name("CMPSS1")
    2049                      .dwattr $C$DW$127, DW_AT_TI_symbol_name("_CMPSS1")
    2050                      .dwattr $C$DW$127, DW_AT_bit_offset(0x0f)
    2051                      .dwattr $C$DW$127, DW_AT_bit_size(0x01)
    2052                      .dwattr $C$DW$127, DW_AT_data_member_location[DW_OP_plus_uconst 0x0]
    2053                      .dwattr $C$DW$127, DW_AT_accessibility(DW_ACCESS_public)
    2054              
    2055              $C$DW$128       .dwtag  DW_TAG_member
    2056                      .dwattr $C$DW$128, DW_AT_type(*$C$DW$T$19)
    2057                      .dwattr $C$DW$128, DW_AT_name("CMPSS2")
    2058                      .dwattr $C$DW$128, DW_AT_TI_symbol_name("_CMPSS2")
    2059                      .dwattr $C$DW$128, DW_AT_bit_offset(0x0e)
    2060                      .dwattr $C$DW$128, DW_AT_bit_size(0x01)
    2061                      .dwattr $C$DW$128, DW_AT_data_member_location[DW_OP_plus_uconst 0x0]
    2062                      .dwattr $C$DW$128, DW_AT_accessibility(DW_ACCESS_public)
    2063              
    2064              $C$DW$129       .dwtag  DW_TAG_member
    2065                      .dwattr $C$DW$129, DW_AT_type(*$C$DW$T$19)
    2066                      .dwattr $C$DW$129, DW_AT_name("CMPSS3")
    2067                      .dwattr $C$DW$129, DW_AT_TI_symbol_name("_CMPSS3")
    2068                      .dwattr $C$DW$129, DW_AT_bit_offset(0x0d)
    2069                      .dwattr $C$DW$129, DW_AT_bit_size(0x01)
    2070                      .dwattr $C$DW$129, DW_AT_data_member_location[DW_OP_plus_uconst 0x0]
    2071                      .dwattr $C$DW$129, DW_AT_accessibility(DW_ACCESS_public)
    2072              
    2073              $C$DW$130       .dwtag  DW_TAG_member
    2074                      .dwattr $C$DW$130, DW_AT_type(*$C$DW$T$19)
    2075                      .dwattr $C$DW$130, DW_AT_name("CMPSS4")
    2076                      .dwattr $C$DW$130, DW_AT_TI_symbol_name("_CMPSS4")
    2077                      .dwattr $C$DW$130, DW_AT_bit_offset(0x0c)
    2078                      .dwattr $C$DW$130, DW_AT_bit_size(0x01)
    2079                      .dwattr $C$DW$130, DW_AT_data_member_location[DW_OP_plus_uconst 0x0]
    2080                      .dwattr $C$DW$130, DW_AT_accessibility(DW_ACCESS_public)
    2081              
TMS320C2000 Assembler PC v18.1.2 Fri Dec 14 17:55:26 2018

Tools Copyright (c) 1996-2017 Texas Instruments Incorporated
F2837xD_Gpio.asm                                                     PAGE   40

    2082              $C$DW$131       .dwtag  DW_TAG_member
    2083                      .dwattr $C$DW$131, DW_AT_type(*$C$DW$T$19)
    2084                      .dwattr $C$DW$131, DW_AT_name("CMPSS5")
    2085                      .dwattr $C$DW$131, DW_AT_TI_symbol_name("_CMPSS5")
    2086                      .dwattr $C$DW$131, DW_AT_bit_offset(0x0b)
    2087                      .dwattr $C$DW$131, DW_AT_bit_size(0x01)
    2088                      .dwattr $C$DW$131, DW_AT_data_member_location[DW_OP_plus_uconst 0x0]
    2089                      .dwattr $C$DW$131, DW_AT_accessibility(DW_ACCESS_public)
    2090              
    2091              $C$DW$132       .dwtag  DW_TAG_member
    2092                      .dwattr $C$DW$132, DW_AT_type(*$C$DW$T$19)
    2093                      .dwattr $C$DW$132, DW_AT_name("CMPSS6")
    2094                      .dwattr $C$DW$132, DW_AT_TI_symbol_name("_CMPSS6")
    2095                      .dwattr $C$DW$132, DW_AT_bit_offset(0x0a)
    2096                      .dwattr $C$DW$132, DW_AT_bit_size(0x01)
    2097                      .dwattr $C$DW$132, DW_AT_data_member_location[DW_OP_plus_uconst 0x0]
    2098                      .dwattr $C$DW$132, DW_AT_accessibility(DW_ACCESS_public)
    2099              
    2100              $C$DW$133       .dwtag  DW_TAG_member
    2101                      .dwattr $C$DW$133, DW_AT_type(*$C$DW$T$19)
    2102                      .dwattr $C$DW$133, DW_AT_name("CMPSS7")
    2103                      .dwattr $C$DW$133, DW_AT_TI_symbol_name("_CMPSS7")
    2104                      .dwattr $C$DW$133, DW_AT_bit_offset(0x09)
    2105                      .dwattr $C$DW$133, DW_AT_bit_size(0x01)
    2106                      .dwattr $C$DW$133, DW_AT_data_member_location[DW_OP_plus_uconst 0x0]
    2107                      .dwattr $C$DW$133, DW_AT_accessibility(DW_ACCESS_public)
    2108              
    2109              $C$DW$134       .dwtag  DW_TAG_member
    2110                      .dwattr $C$DW$134, DW_AT_type(*$C$DW$T$19)
    2111                      .dwattr $C$DW$134, DW_AT_name("CMPSS8")
    2112                      .dwattr $C$DW$134, DW_AT_TI_symbol_name("_CMPSS8")
    2113                      .dwattr $C$DW$134, DW_AT_bit_offset(0x08)
    2114                      .dwattr $C$DW$134, DW_AT_bit_size(0x01)
    2115                      .dwattr $C$DW$134, DW_AT_data_member_location[DW_OP_plus_uconst 0x0]
    2116                      .dwattr $C$DW$134, DW_AT_accessibility(DW_ACCESS_public)
    2117              
    2118              $C$DW$135       .dwtag  DW_TAG_member
    2119                      .dwattr $C$DW$135, DW_AT_type(*$C$DW$T$19)
    2120                      .dwattr $C$DW$135, DW_AT_name("rsvd1")
    2121                      .dwattr $C$DW$135, DW_AT_TI_symbol_name("_rsvd1")
    2122                      .dwattr $C$DW$135, DW_AT_bit_offset(0x00)
    2123                      .dwattr $C$DW$135, DW_AT_bit_size(0x08)
    2124                      .dwattr $C$DW$135, DW_AT_data_member_location[DW_OP_plus_uconst 0x0]
    2125                      .dwattr $C$DW$135, DW_AT_accessibility(DW_ACCESS_public)
    2126              
    2127              $C$DW$136       .dwtag  DW_TAG_member
    2128                      .dwattr $C$DW$136, DW_AT_type(*$C$DW$T$19)
    2129                      .dwattr $C$DW$136, DW_AT_name("rsvd2")
    2130                      .dwattr $C$DW$136, DW_AT_TI_symbol_name("_rsvd2")
    2131                      .dwattr $C$DW$136, DW_AT_bit_offset(0x00)
    2132                      .dwattr $C$DW$136, DW_AT_bit_size(0x10)
    2133                      .dwattr $C$DW$136, DW_AT_data_member_location[DW_OP_plus_uconst 0x1]
    2134                      .dwattr $C$DW$136, DW_AT_accessibility(DW_ACCESS_public)
    2135              
    2136                      .dwendtag $C$DW$T$27
TMS320C2000 Assembler PC v18.1.2 Fri Dec 14 17:55:26 2018

Tools Copyright (c) 1996-2017 Texas Instruments Incorporated
F2837xD_Gpio.asm                                                     PAGE   41

    2137              
    2138              
    2139              $C$DW$T$28      .dwtag  DW_TAG_union_type
    2140                      .dwattr $C$DW$T$28, DW_AT_name("CPUSEL12_REG")
    2141                      .dwattr $C$DW$T$28, DW_AT_byte_size(0x02)
    2142              $C$DW$137       .dwtag  DW_TAG_member
    2143                      .dwattr $C$DW$137, DW_AT_type(*$C$DW$T$21)
    2144                      .dwattr $C$DW$137, DW_AT_name("all")
    2145                      .dwattr $C$DW$137, DW_AT_TI_symbol_name("_all")
    2146                      .dwattr $C$DW$137, DW_AT_data_member_location[DW_OP_plus_uconst 0x0]
    2147                      .dwattr $C$DW$137, DW_AT_accessibility(DW_ACCESS_public)
    2148              
    2149              $C$DW$138       .dwtag  DW_TAG_member
    2150                      .dwattr $C$DW$138, DW_AT_type(*$C$DW$T$27)
    2151                      .dwattr $C$DW$138, DW_AT_name("bit")
    2152                      .dwattr $C$DW$138, DW_AT_TI_symbol_name("_bit")
    2153                      .dwattr $C$DW$138, DW_AT_data_member_location[DW_OP_plus_uconst 0x0]
    2154                      .dwattr $C$DW$138, DW_AT_accessibility(DW_ACCESS_public)
    2155              
    2156                      .dwendtag $C$DW$T$28
    2157              
    2158              
    2159              $C$DW$T$29      .dwtag  DW_TAG_structure_type
    2160                      .dwattr $C$DW$T$29, DW_AT_name("CPUSEL14_BITS")
    2161                      .dwattr $C$DW$T$29, DW_AT_byte_size(0x02)
    2162              $C$DW$139       .dwtag  DW_TAG_member
    2163                      .dwattr $C$DW$139, DW_AT_type(*$C$DW$T$19)
    2164                      .dwattr $C$DW$139, DW_AT_name("rsvd1")
    2165                      .dwattr $C$DW$139, DW_AT_TI_symbol_name("_rsvd1")
    2166                      .dwattr $C$DW$139, DW_AT_bit_offset(0x0f)
    2167                      .dwattr $C$DW$139, DW_AT_bit_size(0x01)
    2168                      .dwattr $C$DW$139, DW_AT_data_member_location[DW_OP_plus_uconst 0x0]
    2169                      .dwattr $C$DW$139, DW_AT_accessibility(DW_ACCESS_public)
    2170              
    2171              $C$DW$140       .dwtag  DW_TAG_member
    2172                      .dwattr $C$DW$140, DW_AT_type(*$C$DW$T$19)
    2173                      .dwattr $C$DW$140, DW_AT_name("rsvd2")
    2174                      .dwattr $C$DW$140, DW_AT_TI_symbol_name("_rsvd2")
    2175                      .dwattr $C$DW$140, DW_AT_bit_offset(0x0e)
    2176                      .dwattr $C$DW$140, DW_AT_bit_size(0x01)
    2177                      .dwattr $C$DW$140, DW_AT_data_member_location[DW_OP_plus_uconst 0x0]
    2178                      .dwattr $C$DW$140, DW_AT_accessibility(DW_ACCESS_public)
    2179              
    2180              $C$DW$141       .dwtag  DW_TAG_member
    2181                      .dwattr $C$DW$141, DW_AT_type(*$C$DW$T$19)
    2182                      .dwattr $C$DW$141, DW_AT_name("rsvd3")
    2183                      .dwattr $C$DW$141, DW_AT_TI_symbol_name("_rsvd3")
    2184                      .dwattr $C$DW$141, DW_AT_bit_offset(0x0d)
    2185                      .dwattr $C$DW$141, DW_AT_bit_size(0x01)
    2186                      .dwattr $C$DW$141, DW_AT_data_member_location[DW_OP_plus_uconst 0x0]
    2187                      .dwattr $C$DW$141, DW_AT_accessibility(DW_ACCESS_public)
    2188              
    2189              $C$DW$142       .dwtag  DW_TAG_member
    2190                      .dwattr $C$DW$142, DW_AT_type(*$C$DW$T$19)
    2191                      .dwattr $C$DW$142, DW_AT_name("rsvd4")
TMS320C2000 Assembler PC v18.1.2 Fri Dec 14 17:55:26 2018

Tools Copyright (c) 1996-2017 Texas Instruments Incorporated
F2837xD_Gpio.asm                                                     PAGE   42

    2192                      .dwattr $C$DW$142, DW_AT_TI_symbol_name("_rsvd4")
    2193                      .dwattr $C$DW$142, DW_AT_bit_offset(0x0c)
    2194                      .dwattr $C$DW$142, DW_AT_bit_size(0x01)
    2195                      .dwattr $C$DW$142, DW_AT_data_member_location[DW_OP_plus_uconst 0x0]
    2196                      .dwattr $C$DW$142, DW_AT_accessibility(DW_ACCESS_public)
    2197              
    2198              $C$DW$143       .dwtag  DW_TAG_member
    2199                      .dwattr $C$DW$143, DW_AT_type(*$C$DW$T$19)
    2200                      .dwattr $C$DW$143, DW_AT_name("rsvd5")
    2201                      .dwattr $C$DW$143, DW_AT_TI_symbol_name("_rsvd5")
    2202                      .dwattr $C$DW$143, DW_AT_bit_offset(0x00)
    2203                      .dwattr $C$DW$143, DW_AT_bit_size(0x0c)
    2204                      .dwattr $C$DW$143, DW_AT_data_member_location[DW_OP_plus_uconst 0x0]
    2205                      .dwattr $C$DW$143, DW_AT_accessibility(DW_ACCESS_public)
    2206              
    2207              $C$DW$144       .dwtag  DW_TAG_member
    2208                      .dwattr $C$DW$144, DW_AT_type(*$C$DW$T$19)
    2209                      .dwattr $C$DW$144, DW_AT_name("DAC_A")
    2210                      .dwattr $C$DW$144, DW_AT_TI_symbol_name("_DAC_A")
    2211                      .dwattr $C$DW$144, DW_AT_bit_offset(0x0f)
    2212                      .dwattr $C$DW$144, DW_AT_bit_size(0x01)
    2213                      .dwattr $C$DW$144, DW_AT_data_member_location[DW_OP_plus_uconst 0x1]
    2214                      .dwattr $C$DW$144, DW_AT_accessibility(DW_ACCESS_public)
    2215              
    2216              $C$DW$145       .dwtag  DW_TAG_member
    2217                      .dwattr $C$DW$145, DW_AT_type(*$C$DW$T$19)
    2218                      .dwattr $C$DW$145, DW_AT_name("DAC_B")
    2219                      .dwattr $C$DW$145, DW_AT_TI_symbol_name("_DAC_B")
    2220                      .dwattr $C$DW$145, DW_AT_bit_offset(0x0e)
    2221                      .dwattr $C$DW$145, DW_AT_bit_size(0x01)
    2222                      .dwattr $C$DW$145, DW_AT_data_member_location[DW_OP_plus_uconst 0x1]
    2223                      .dwattr $C$DW$145, DW_AT_accessibility(DW_ACCESS_public)
    2224              
    2225              $C$DW$146       .dwtag  DW_TAG_member
    2226                      .dwattr $C$DW$146, DW_AT_type(*$C$DW$T$19)
    2227                      .dwattr $C$DW$146, DW_AT_name("DAC_C")
    2228                      .dwattr $C$DW$146, DW_AT_TI_symbol_name("_DAC_C")
    2229                      .dwattr $C$DW$146, DW_AT_bit_offset(0x0d)
    2230                      .dwattr $C$DW$146, DW_AT_bit_size(0x01)
    2231                      .dwattr $C$DW$146, DW_AT_data_member_location[DW_OP_plus_uconst 0x1]
    2232                      .dwattr $C$DW$146, DW_AT_accessibility(DW_ACCESS_public)
    2233              
    2234              $C$DW$147       .dwtag  DW_TAG_member
    2235                      .dwattr $C$DW$147, DW_AT_type(*$C$DW$T$19)
    2236                      .dwattr $C$DW$147, DW_AT_name("rsvd6")
    2237                      .dwattr $C$DW$147, DW_AT_TI_symbol_name("_rsvd6")
    2238                      .dwattr $C$DW$147, DW_AT_bit_offset(0x0c)
    2239                      .dwattr $C$DW$147, DW_AT_bit_size(0x01)
    2240                      .dwattr $C$DW$147, DW_AT_data_member_location[DW_OP_plus_uconst 0x1]
    2241                      .dwattr $C$DW$147, DW_AT_accessibility(DW_ACCESS_public)
    2242              
    2243              $C$DW$148       .dwtag  DW_TAG_member
    2244                      .dwattr $C$DW$148, DW_AT_type(*$C$DW$T$19)
    2245                      .dwattr $C$DW$148, DW_AT_name("rsvd7")
    2246                      .dwattr $C$DW$148, DW_AT_TI_symbol_name("_rsvd7")
TMS320C2000 Assembler PC v18.1.2 Fri Dec 14 17:55:26 2018

Tools Copyright (c) 1996-2017 Texas Instruments Incorporated
F2837xD_Gpio.asm                                                     PAGE   43

    2247                      .dwattr $C$DW$148, DW_AT_bit_offset(0x00)
    2248                      .dwattr $C$DW$148, DW_AT_bit_size(0x0c)
    2249                      .dwattr $C$DW$148, DW_AT_data_member_location[DW_OP_plus_uconst 0x1]
    2250                      .dwattr $C$DW$148, DW_AT_accessibility(DW_ACCESS_public)
    2251              
    2252                      .dwendtag $C$DW$T$29
    2253              
    2254              
    2255              $C$DW$T$30      .dwtag  DW_TAG_union_type
    2256                      .dwattr $C$DW$T$30, DW_AT_name("CPUSEL14_REG")
    2257                      .dwattr $C$DW$T$30, DW_AT_byte_size(0x02)
    2258              $C$DW$149       .dwtag  DW_TAG_member
    2259                      .dwattr $C$DW$149, DW_AT_type(*$C$DW$T$21)
    2260                      .dwattr $C$DW$149, DW_AT_name("all")
    2261                      .dwattr $C$DW$149, DW_AT_TI_symbol_name("_all")
    2262                      .dwattr $C$DW$149, DW_AT_data_member_location[DW_OP_plus_uconst 0x0]
    2263                      .dwattr $C$DW$149, DW_AT_accessibility(DW_ACCESS_public)
    2264              
    2265              $C$DW$150       .dwtag  DW_TAG_member
    2266                      .dwattr $C$DW$150, DW_AT_type(*$C$DW$T$29)
    2267                      .dwattr $C$DW$150, DW_AT_name("bit")
    2268                      .dwattr $C$DW$150, DW_AT_TI_symbol_name("_bit")
    2269                      .dwattr $C$DW$150, DW_AT_data_member_location[DW_OP_plus_uconst 0x0]
    2270                      .dwattr $C$DW$150, DW_AT_accessibility(DW_ACCESS_public)
    2271              
    2272                      .dwendtag $C$DW$T$30
    2273              
    2274              
    2275              $C$DW$T$31      .dwtag  DW_TAG_structure_type
    2276                      .dwattr $C$DW$T$31, DW_AT_name("CPUSEL1_BITS")
    2277                      .dwattr $C$DW$T$31, DW_AT_byte_size(0x02)
    2278              $C$DW$151       .dwtag  DW_TAG_member
    2279                      .dwattr $C$DW$151, DW_AT_type(*$C$DW$T$19)
    2280                      .dwattr $C$DW$151, DW_AT_name("ECAP1")
    2281                      .dwattr $C$DW$151, DW_AT_TI_symbol_name("_ECAP1")
    2282                      .dwattr $C$DW$151, DW_AT_bit_offset(0x0f)
    2283                      .dwattr $C$DW$151, DW_AT_bit_size(0x01)
    2284                      .dwattr $C$DW$151, DW_AT_data_member_location[DW_OP_plus_uconst 0x0]
    2285                      .dwattr $C$DW$151, DW_AT_accessibility(DW_ACCESS_public)
    2286              
    2287              $C$DW$152       .dwtag  DW_TAG_member
    2288                      .dwattr $C$DW$152, DW_AT_type(*$C$DW$T$19)
    2289                      .dwattr $C$DW$152, DW_AT_name("ECAP2")
    2290                      .dwattr $C$DW$152, DW_AT_TI_symbol_name("_ECAP2")
    2291                      .dwattr $C$DW$152, DW_AT_bit_offset(0x0e)
    2292                      .dwattr $C$DW$152, DW_AT_bit_size(0x01)
    2293                      .dwattr $C$DW$152, DW_AT_data_member_location[DW_OP_plus_uconst 0x0]
    2294                      .dwattr $C$DW$152, DW_AT_accessibility(DW_ACCESS_public)
    2295              
    2296              $C$DW$153       .dwtag  DW_TAG_member
    2297                      .dwattr $C$DW$153, DW_AT_type(*$C$DW$T$19)
    2298                      .dwattr $C$DW$153, DW_AT_name("ECAP3")
    2299                      .dwattr $C$DW$153, DW_AT_TI_symbol_name("_ECAP3")
    2300                      .dwattr $C$DW$153, DW_AT_bit_offset(0x0d)
    2301                      .dwattr $C$DW$153, DW_AT_bit_size(0x01)
TMS320C2000 Assembler PC v18.1.2 Fri Dec 14 17:55:26 2018

Tools Copyright (c) 1996-2017 Texas Instruments Incorporated
F2837xD_Gpio.asm                                                     PAGE   44

    2302                      .dwattr $C$DW$153, DW_AT_data_member_location[DW_OP_plus_uconst 0x0]
    2303                      .dwattr $C$DW$153, DW_AT_accessibility(DW_ACCESS_public)
    2304              
    2305              $C$DW$154       .dwtag  DW_TAG_member
    2306                      .dwattr $C$DW$154, DW_AT_type(*$C$DW$T$19)
    2307                      .dwattr $C$DW$154, DW_AT_name("ECAP4")
    2308                      .dwattr $C$DW$154, DW_AT_TI_symbol_name("_ECAP4")
    2309                      .dwattr $C$DW$154, DW_AT_bit_offset(0x0c)
    2310                      .dwattr $C$DW$154, DW_AT_bit_size(0x01)
    2311                      .dwattr $C$DW$154, DW_AT_data_member_location[DW_OP_plus_uconst 0x0]
    2312                      .dwattr $C$DW$154, DW_AT_accessibility(DW_ACCESS_public)
    2313              
    2314              $C$DW$155       .dwtag  DW_TAG_member
    2315                      .dwattr $C$DW$155, DW_AT_type(*$C$DW$T$19)
    2316                      .dwattr $C$DW$155, DW_AT_name("ECAP5")
    2317                      .dwattr $C$DW$155, DW_AT_TI_symbol_name("_ECAP5")
    2318                      .dwattr $C$DW$155, DW_AT_bit_offset(0x0b)
    2319                      .dwattr $C$DW$155, DW_AT_bit_size(0x01)
    2320                      .dwattr $C$DW$155, DW_AT_data_member_location[DW_OP_plus_uconst 0x0]
    2321                      .dwattr $C$DW$155, DW_AT_accessibility(DW_ACCESS_public)
    2322              
    2323              $C$DW$156       .dwtag  DW_TAG_member
    2324                      .dwattr $C$DW$156, DW_AT_type(*$C$DW$T$19)
    2325                      .dwattr $C$DW$156, DW_AT_name("ECAP6")
    2326                      .dwattr $C$DW$156, DW_AT_TI_symbol_name("_ECAP6")
    2327                      .dwattr $C$DW$156, DW_AT_bit_offset(0x0a)
    2328                      .dwattr $C$DW$156, DW_AT_bit_size(0x01)
    2329                      .dwattr $C$DW$156, DW_AT_data_member_location[DW_OP_plus_uconst 0x0]
    2330                      .dwattr $C$DW$156, DW_AT_accessibility(DW_ACCESS_public)
    2331              
    2332              $C$DW$157       .dwtag  DW_TAG_member
    2333                      .dwattr $C$DW$157, DW_AT_type(*$C$DW$T$19)
    2334                      .dwattr $C$DW$157, DW_AT_name("rsvd1")
    2335                      .dwattr $C$DW$157, DW_AT_TI_symbol_name("_rsvd1")
    2336                      .dwattr $C$DW$157, DW_AT_bit_offset(0x09)
    2337                      .dwattr $C$DW$157, DW_AT_bit_size(0x01)
    2338                      .dwattr $C$DW$157, DW_AT_data_member_location[DW_OP_plus_uconst 0x0]
    2339                      .dwattr $C$DW$157, DW_AT_accessibility(DW_ACCESS_public)
    2340              
    2341              $C$DW$158       .dwtag  DW_TAG_member
    2342                      .dwattr $C$DW$158, DW_AT_type(*$C$DW$T$19)
    2343                      .dwattr $C$DW$158, DW_AT_name("rsvd2")
    2344                      .dwattr $C$DW$158, DW_AT_TI_symbol_name("_rsvd2")
    2345                      .dwattr $C$DW$158, DW_AT_bit_offset(0x08)
    2346                      .dwattr $C$DW$158, DW_AT_bit_size(0x01)
    2347                      .dwattr $C$DW$158, DW_AT_data_member_location[DW_OP_plus_uconst 0x0]
    2348                      .dwattr $C$DW$158, DW_AT_accessibility(DW_ACCESS_public)
    2349              
    2350              $C$DW$159       .dwtag  DW_TAG_member
    2351                      .dwattr $C$DW$159, DW_AT_type(*$C$DW$T$19)
    2352                      .dwattr $C$DW$159, DW_AT_name("rsvd3")
    2353                      .dwattr $C$DW$159, DW_AT_TI_symbol_name("_rsvd3")
    2354                      .dwattr $C$DW$159, DW_AT_bit_offset(0x00)
    2355                      .dwattr $C$DW$159, DW_AT_bit_size(0x08)
    2356                      .dwattr $C$DW$159, DW_AT_data_member_location[DW_OP_plus_uconst 0x0]
TMS320C2000 Assembler PC v18.1.2 Fri Dec 14 17:55:26 2018

Tools Copyright (c) 1996-2017 Texas Instruments Incorporated
F2837xD_Gpio.asm                                                     PAGE   45

    2357                      .dwattr $C$DW$159, DW_AT_accessibility(DW_ACCESS_public)
    2358              
    2359              $C$DW$160       .dwtag  DW_TAG_member
    2360                      .dwattr $C$DW$160, DW_AT_type(*$C$DW$T$19)
    2361                      .dwattr $C$DW$160, DW_AT_name("rsvd4")
    2362                      .dwattr $C$DW$160, DW_AT_TI_symbol_name("_rsvd4")
    2363                      .dwattr $C$DW$160, DW_AT_bit_offset(0x00)
    2364                      .dwattr $C$DW$160, DW_AT_bit_size(0x10)
    2365                      .dwattr $C$DW$160, DW_AT_data_member_location[DW_OP_plus_uconst 0x1]
    2366                      .dwattr $C$DW$160, DW_AT_accessibility(DW_ACCESS_public)
    2367              
    2368                      .dwendtag $C$DW$T$31
    2369              
    2370              
    2371              $C$DW$T$32      .dwtag  DW_TAG_union_type
    2372                      .dwattr $C$DW$T$32, DW_AT_name("CPUSEL1_REG")
    2373                      .dwattr $C$DW$T$32, DW_AT_byte_size(0x02)
    2374              $C$DW$161       .dwtag  DW_TAG_member
    2375                      .dwattr $C$DW$161, DW_AT_type(*$C$DW$T$21)
    2376                      .dwattr $C$DW$161, DW_AT_name("all")
    2377                      .dwattr $C$DW$161, DW_AT_TI_symbol_name("_all")
    2378                      .dwattr $C$DW$161, DW_AT_data_member_location[DW_OP_plus_uconst 0x0]
    2379                      .dwattr $C$DW$161, DW_AT_accessibility(DW_ACCESS_public)
    2380              
    2381              $C$DW$162       .dwtag  DW_TAG_member
    2382                      .dwattr $C$DW$162, DW_AT_type(*$C$DW$T$31)
    2383                      .dwattr $C$DW$162, DW_AT_name("bit")
    2384                      .dwattr $C$DW$162, DW_AT_TI_symbol_name("_bit")
    2385                      .dwattr $C$DW$162, DW_AT_data_member_location[DW_OP_plus_uconst 0x0]
    2386                      .dwattr $C$DW$162, DW_AT_accessibility(DW_ACCESS_public)
    2387              
    2388                      .dwendtag $C$DW$T$32
    2389              
    2390              
    2391              $C$DW$T$33      .dwtag  DW_TAG_structure_type
    2392                      .dwattr $C$DW$T$33, DW_AT_name("CPUSEL2_BITS")
    2393                      .dwattr $C$DW$T$33, DW_AT_byte_size(0x02)
    2394              $C$DW$163       .dwtag  DW_TAG_member
    2395                      .dwattr $C$DW$163, DW_AT_type(*$C$DW$T$19)
    2396                      .dwattr $C$DW$163, DW_AT_name("EQEP1")
    2397                      .dwattr $C$DW$163, DW_AT_TI_symbol_name("_EQEP1")
    2398                      .dwattr $C$DW$163, DW_AT_bit_offset(0x0f)
    2399                      .dwattr $C$DW$163, DW_AT_bit_size(0x01)
    2400                      .dwattr $C$DW$163, DW_AT_data_member_location[DW_OP_plus_uconst 0x0]
    2401                      .dwattr $C$DW$163, DW_AT_accessibility(DW_ACCESS_public)
    2402              
    2403              $C$DW$164       .dwtag  DW_TAG_member
    2404                      .dwattr $C$DW$164, DW_AT_type(*$C$DW$T$19)
    2405                      .dwattr $C$DW$164, DW_AT_name("EQEP2")
    2406                      .dwattr $C$DW$164, DW_AT_TI_symbol_name("_EQEP2")
    2407                      .dwattr $C$DW$164, DW_AT_bit_offset(0x0e)
    2408                      .dwattr $C$DW$164, DW_AT_bit_size(0x01)
    2409                      .dwattr $C$DW$164, DW_AT_data_member_location[DW_OP_plus_uconst 0x0]
    2410                      .dwattr $C$DW$164, DW_AT_accessibility(DW_ACCESS_public)
    2411              
TMS320C2000 Assembler PC v18.1.2 Fri Dec 14 17:55:26 2018

Tools Copyright (c) 1996-2017 Texas Instruments Incorporated
F2837xD_Gpio.asm                                                     PAGE   46

    2412              $C$DW$165       .dwtag  DW_TAG_member
    2413                      .dwattr $C$DW$165, DW_AT_type(*$C$DW$T$19)
    2414                      .dwattr $C$DW$165, DW_AT_name("EQEP3")
    2415                      .dwattr $C$DW$165, DW_AT_TI_symbol_name("_EQEP3")
    2416                      .dwattr $C$DW$165, DW_AT_bit_offset(0x0d)
    2417                      .dwattr $C$DW$165, DW_AT_bit_size(0x01)
    2418                      .dwattr $C$DW$165, DW_AT_data_member_location[DW_OP_plus_uconst 0x0]
    2419                      .dwattr $C$DW$165, DW_AT_accessibility(DW_ACCESS_public)
    2420              
    2421              $C$DW$166       .dwtag  DW_TAG_member
    2422                      .dwattr $C$DW$166, DW_AT_type(*$C$DW$T$19)
    2423                      .dwattr $C$DW$166, DW_AT_name("rsvd1")
    2424                      .dwattr $C$DW$166, DW_AT_TI_symbol_name("_rsvd1")
    2425                      .dwattr $C$DW$166, DW_AT_bit_offset(0x0c)
    2426                      .dwattr $C$DW$166, DW_AT_bit_size(0x01)
    2427                      .dwattr $C$DW$166, DW_AT_data_member_location[DW_OP_plus_uconst 0x0]
    2428                      .dwattr $C$DW$166, DW_AT_accessibility(DW_ACCESS_public)
    2429              
    2430              $C$DW$167       .dwtag  DW_TAG_member
    2431                      .dwattr $C$DW$167, DW_AT_type(*$C$DW$T$19)
    2432                      .dwattr $C$DW$167, DW_AT_name("rsvd2")
    2433                      .dwattr $C$DW$167, DW_AT_TI_symbol_name("_rsvd2")
    2434                      .dwattr $C$DW$167, DW_AT_bit_offset(0x00)
    2435                      .dwattr $C$DW$167, DW_AT_bit_size(0x0c)
    2436                      .dwattr $C$DW$167, DW_AT_data_member_location[DW_OP_plus_uconst 0x0]
    2437                      .dwattr $C$DW$167, DW_AT_accessibility(DW_ACCESS_public)
    2438              
    2439              $C$DW$168       .dwtag  DW_TAG_member
    2440                      .dwattr $C$DW$168, DW_AT_type(*$C$DW$T$19)
    2441                      .dwattr $C$DW$168, DW_AT_name("rsvd3")
    2442                      .dwattr $C$DW$168, DW_AT_TI_symbol_name("_rsvd3")
    2443                      .dwattr $C$DW$168, DW_AT_bit_offset(0x00)
    2444                      .dwattr $C$DW$168, DW_AT_bit_size(0x10)
    2445                      .dwattr $C$DW$168, DW_AT_data_member_location[DW_OP_plus_uconst 0x1]
    2446                      .dwattr $C$DW$168, DW_AT_accessibility(DW_ACCESS_public)
    2447              
    2448                      .dwendtag $C$DW$T$33
    2449              
    2450              
    2451              $C$DW$T$34      .dwtag  DW_TAG_union_type
    2452                      .dwattr $C$DW$T$34, DW_AT_name("CPUSEL2_REG")
    2453                      .dwattr $C$DW$T$34, DW_AT_byte_size(0x02)
    2454              $C$DW$169       .dwtag  DW_TAG_member
    2455                      .dwattr $C$DW$169, DW_AT_type(*$C$DW$T$21)
    2456                      .dwattr $C$DW$169, DW_AT_name("all")
    2457                      .dwattr $C$DW$169, DW_AT_TI_symbol_name("_all")
    2458                      .dwattr $C$DW$169, DW_AT_data_member_location[DW_OP_plus_uconst 0x0]
    2459                      .dwattr $C$DW$169, DW_AT_accessibility(DW_ACCESS_public)
    2460              
    2461              $C$DW$170       .dwtag  DW_TAG_member
    2462                      .dwattr $C$DW$170, DW_AT_type(*$C$DW$T$33)
    2463                      .dwattr $C$DW$170, DW_AT_name("bit")
    2464                      .dwattr $C$DW$170, DW_AT_TI_symbol_name("_bit")
    2465                      .dwattr $C$DW$170, DW_AT_data_member_location[DW_OP_plus_uconst 0x0]
    2466                      .dwattr $C$DW$170, DW_AT_accessibility(DW_ACCESS_public)
TMS320C2000 Assembler PC v18.1.2 Fri Dec 14 17:55:26 2018

Tools Copyright (c) 1996-2017 Texas Instruments Incorporated
F2837xD_Gpio.asm                                                     PAGE   47

    2467              
    2468                      .dwendtag $C$DW$T$34
    2469              
    2470              
    2471              $C$DW$T$35      .dwtag  DW_TAG_structure_type
    2472                      .dwattr $C$DW$T$35, DW_AT_name("CPUSEL4_BITS")
    2473                      .dwattr $C$DW$T$35, DW_AT_byte_size(0x02)
    2474              $C$DW$171       .dwtag  DW_TAG_member
    2475                      .dwattr $C$DW$171, DW_AT_type(*$C$DW$T$19)
    2476                      .dwattr $C$DW$171, DW_AT_name("SD1")
    2477                      .dwattr $C$DW$171, DW_AT_TI_symbol_name("_SD1")
    2478                      .dwattr $C$DW$171, DW_AT_bit_offset(0x0f)
    2479                      .dwattr $C$DW$171, DW_AT_bit_size(0x01)
    2480                      .dwattr $C$DW$171, DW_AT_data_member_location[DW_OP_plus_uconst 0x0]
    2481                      .dwattr $C$DW$171, DW_AT_accessibility(DW_ACCESS_public)
    2482              
    2483              $C$DW$172       .dwtag  DW_TAG_member
    2484                      .dwattr $C$DW$172, DW_AT_type(*$C$DW$T$19)
    2485                      .dwattr $C$DW$172, DW_AT_name("SD2")
    2486                      .dwattr $C$DW$172, DW_AT_TI_symbol_name("_SD2")
    2487                      .dwattr $C$DW$172, DW_AT_bit_offset(0x0e)
    2488                      .dwattr $C$DW$172, DW_AT_bit_size(0x01)
    2489                      .dwattr $C$DW$172, DW_AT_data_member_location[DW_OP_plus_uconst 0x0]
    2490                      .dwattr $C$DW$172, DW_AT_accessibility(DW_ACCESS_public)
    2491              
    2492              $C$DW$173       .dwtag  DW_TAG_member
    2493                      .dwattr $C$DW$173, DW_AT_type(*$C$DW$T$19)
    2494                      .dwattr $C$DW$173, DW_AT_name("rsvd1")
    2495                      .dwattr $C$DW$173, DW_AT_TI_symbol_name("_rsvd1")
    2496                      .dwattr $C$DW$173, DW_AT_bit_offset(0x0d)
    2497                      .dwattr $C$DW$173, DW_AT_bit_size(0x01)
    2498                      .dwattr $C$DW$173, DW_AT_data_member_location[DW_OP_plus_uconst 0x0]
    2499                      .dwattr $C$DW$173, DW_AT_accessibility(DW_ACCESS_public)
    2500              
    2501              $C$DW$174       .dwtag  DW_TAG_member
    2502                      .dwattr $C$DW$174, DW_AT_type(*$C$DW$T$19)
    2503                      .dwattr $C$DW$174, DW_AT_name("rsvd2")
    2504                      .dwattr $C$DW$174, DW_AT_TI_symbol_name("_rsvd2")
    2505                      .dwattr $C$DW$174, DW_AT_bit_offset(0x0c)
    2506                      .dwattr $C$DW$174, DW_AT_bit_size(0x01)
    2507                      .dwattr $C$DW$174, DW_AT_data_member_location[DW_OP_plus_uconst 0x0]
    2508                      .dwattr $C$DW$174, DW_AT_accessibility(DW_ACCESS_public)
    2509              
    2510              $C$DW$175       .dwtag  DW_TAG_member
    2511                      .dwattr $C$DW$175, DW_AT_type(*$C$DW$T$19)
    2512                      .dwattr $C$DW$175, DW_AT_name("rsvd3")
    2513                      .dwattr $C$DW$175, DW_AT_TI_symbol_name("_rsvd3")
    2514                      .dwattr $C$DW$175, DW_AT_bit_offset(0x0b)
    2515                      .dwattr $C$DW$175, DW_AT_bit_size(0x01)
    2516                      .dwattr $C$DW$175, DW_AT_data_member_location[DW_OP_plus_uconst 0x0]
    2517                      .dwattr $C$DW$175, DW_AT_accessibility(DW_ACCESS_public)
    2518              
    2519              $C$DW$176       .dwtag  DW_TAG_member
    2520                      .dwattr $C$DW$176, DW_AT_type(*$C$DW$T$19)
    2521                      .dwattr $C$DW$176, DW_AT_name("rsvd4")
TMS320C2000 Assembler PC v18.1.2 Fri Dec 14 17:55:26 2018

Tools Copyright (c) 1996-2017 Texas Instruments Incorporated
F2837xD_Gpio.asm                                                     PAGE   48

    2522                      .dwattr $C$DW$176, DW_AT_TI_symbol_name("_rsvd4")
    2523                      .dwattr $C$DW$176, DW_AT_bit_offset(0x0a)
    2524                      .dwattr $C$DW$176, DW_AT_bit_size(0x01)
    2525                      .dwattr $C$DW$176, DW_AT_data_member_location[DW_OP_plus_uconst 0x0]
    2526                      .dwattr $C$DW$176, DW_AT_accessibility(DW_ACCESS_public)
    2527              
    2528              $C$DW$177       .dwtag  DW_TAG_member
    2529                      .dwattr $C$DW$177, DW_AT_type(*$C$DW$T$19)
    2530                      .dwattr $C$DW$177, DW_AT_name("rsvd5")
    2531                      .dwattr $C$DW$177, DW_AT_TI_symbol_name("_rsvd5")
    2532                      .dwattr $C$DW$177, DW_AT_bit_offset(0x09)
    2533                      .dwattr $C$DW$177, DW_AT_bit_size(0x01)
    2534                      .dwattr $C$DW$177, DW_AT_data_member_location[DW_OP_plus_uconst 0x0]
    2535                      .dwattr $C$DW$177, DW_AT_accessibility(DW_ACCESS_public)
    2536              
    2537              $C$DW$178       .dwtag  DW_TAG_member
    2538                      .dwattr $C$DW$178, DW_AT_type(*$C$DW$T$19)
    2539                      .dwattr $C$DW$178, DW_AT_name("rsvd6")
    2540                      .dwattr $C$DW$178, DW_AT_TI_symbol_name("_rsvd6")
    2541                      .dwattr $C$DW$178, DW_AT_bit_offset(0x08)
    2542                      .dwattr $C$DW$178, DW_AT_bit_size(0x01)
    2543                      .dwattr $C$DW$178, DW_AT_data_member_location[DW_OP_plus_uconst 0x0]
    2544                      .dwattr $C$DW$178, DW_AT_accessibility(DW_ACCESS_public)
    2545              
    2546              $C$DW$179       .dwtag  DW_TAG_member
    2547                      .dwattr $C$DW$179, DW_AT_type(*$C$DW$T$19)
    2548                      .dwattr $C$DW$179, DW_AT_name("rsvd7")
    2549                      .dwattr $C$DW$179, DW_AT_TI_symbol_name("_rsvd7")
    2550                      .dwattr $C$DW$179, DW_AT_bit_offset(0x00)
    2551                      .dwattr $C$DW$179, DW_AT_bit_size(0x08)
    2552                      .dwattr $C$DW$179, DW_AT_data_member_location[DW_OP_plus_uconst 0x0]
    2553                      .dwattr $C$DW$179, DW_AT_accessibility(DW_ACCESS_public)
    2554              
    2555              $C$DW$180       .dwtag  DW_TAG_member
    2556                      .dwattr $C$DW$180, DW_AT_type(*$C$DW$T$19)
    2557                      .dwattr $C$DW$180, DW_AT_name("rsvd8")
    2558                      .dwattr $C$DW$180, DW_AT_TI_symbol_name("_rsvd8")
    2559                      .dwattr $C$DW$180, DW_AT_bit_offset(0x00)
    2560                      .dwattr $C$DW$180, DW_AT_bit_size(0x10)
    2561                      .dwattr $C$DW$180, DW_AT_data_member_location[DW_OP_plus_uconst 0x1]
    2562                      .dwattr $C$DW$180, DW_AT_accessibility(DW_ACCESS_public)
    2563              
    2564                      .dwendtag $C$DW$T$35
    2565              
    2566              
    2567              $C$DW$T$36      .dwtag  DW_TAG_union_type
    2568                      .dwattr $C$DW$T$36, DW_AT_name("CPUSEL4_REG")
    2569                      .dwattr $C$DW$T$36, DW_AT_byte_size(0x02)
    2570              $C$DW$181       .dwtag  DW_TAG_member
    2571                      .dwattr $C$DW$181, DW_AT_type(*$C$DW$T$21)
    2572                      .dwattr $C$DW$181, DW_AT_name("all")
    2573                      .dwattr $C$DW$181, DW_AT_TI_symbol_name("_all")
    2574                      .dwattr $C$DW$181, DW_AT_data_member_location[DW_OP_plus_uconst 0x0]
    2575                      .dwattr $C$DW$181, DW_AT_accessibility(DW_ACCESS_public)
    2576              
TMS320C2000 Assembler PC v18.1.2 Fri Dec 14 17:55:26 2018

Tools Copyright (c) 1996-2017 Texas Instruments Incorporated
F2837xD_Gpio.asm                                                     PAGE   49

    2577              $C$DW$182       .dwtag  DW_TAG_member
    2578                      .dwattr $C$DW$182, DW_AT_type(*$C$DW$T$35)
    2579                      .dwattr $C$DW$182, DW_AT_name("bit")
    2580                      .dwattr $C$DW$182, DW_AT_TI_symbol_name("_bit")
    2581                      .dwattr $C$DW$182, DW_AT_data_member_location[DW_OP_plus_uconst 0x0]
    2582                      .dwattr $C$DW$182, DW_AT_accessibility(DW_ACCESS_public)
    2583              
    2584                      .dwendtag $C$DW$T$36
    2585              
    2586              
    2587              $C$DW$T$37      .dwtag  DW_TAG_structure_type
    2588                      .dwattr $C$DW$T$37, DW_AT_name("CPUSEL5_BITS")
    2589                      .dwattr $C$DW$T$37, DW_AT_byte_size(0x02)
    2590              $C$DW$183       .dwtag  DW_TAG_member
    2591                      .dwattr $C$DW$183, DW_AT_type(*$C$DW$T$19)
    2592                      .dwattr $C$DW$183, DW_AT_name("SCI_A")
    2593                      .dwattr $C$DW$183, DW_AT_TI_symbol_name("_SCI_A")
    2594                      .dwattr $C$DW$183, DW_AT_bit_offset(0x0f)
    2595                      .dwattr $C$DW$183, DW_AT_bit_size(0x01)
    2596                      .dwattr $C$DW$183, DW_AT_data_member_location[DW_OP_plus_uconst 0x0]
    2597                      .dwattr $C$DW$183, DW_AT_accessibility(DW_ACCESS_public)
    2598              
    2599              $C$DW$184       .dwtag  DW_TAG_member
    2600                      .dwattr $C$DW$184, DW_AT_type(*$C$DW$T$19)
    2601                      .dwattr $C$DW$184, DW_AT_name("SCI_B")
    2602                      .dwattr $C$DW$184, DW_AT_TI_symbol_name("_SCI_B")
    2603                      .dwattr $C$DW$184, DW_AT_bit_offset(0x0e)
    2604                      .dwattr $C$DW$184, DW_AT_bit_size(0x01)
    2605                      .dwattr $C$DW$184, DW_AT_data_member_location[DW_OP_plus_uconst 0x0]
    2606                      .dwattr $C$DW$184, DW_AT_accessibility(DW_ACCESS_public)
    2607              
    2608              $C$DW$185       .dwtag  DW_TAG_member
    2609                      .dwattr $C$DW$185, DW_AT_type(*$C$DW$T$19)
    2610                      .dwattr $C$DW$185, DW_AT_name("SCI_C")
    2611                      .dwattr $C$DW$185, DW_AT_TI_symbol_name("_SCI_C")
    2612                      .dwattr $C$DW$185, DW_AT_bit_offset(0x0d)
    2613                      .dwattr $C$DW$185, DW_AT_bit_size(0x01)
    2614                      .dwattr $C$DW$185, DW_AT_data_member_location[DW_OP_plus_uconst 0x0]
    2615                      .dwattr $C$DW$185, DW_AT_accessibility(DW_ACCESS_public)
    2616              
    2617              $C$DW$186       .dwtag  DW_TAG_member
    2618                      .dwattr $C$DW$186, DW_AT_type(*$C$DW$T$19)
    2619                      .dwattr $C$DW$186, DW_AT_name("SCI_D")
    2620                      .dwattr $C$DW$186, DW_AT_TI_symbol_name("_SCI_D")
    2621                      .dwattr $C$DW$186, DW_AT_bit_offset(0x0c)
    2622                      .dwattr $C$DW$186, DW_AT_bit_size(0x01)
    2623                      .dwattr $C$DW$186, DW_AT_data_member_location[DW_OP_plus_uconst 0x0]
    2624                      .dwattr $C$DW$186, DW_AT_accessibility(DW_ACCESS_public)
    2625              
    2626              $C$DW$187       .dwtag  DW_TAG_member
    2627                      .dwattr $C$DW$187, DW_AT_type(*$C$DW$T$19)
    2628                      .dwattr $C$DW$187, DW_AT_name("rsvd1")
    2629                      .dwattr $C$DW$187, DW_AT_TI_symbol_name("_rsvd1")
    2630                      .dwattr $C$DW$187, DW_AT_bit_offset(0x00)
    2631                      .dwattr $C$DW$187, DW_AT_bit_size(0x0c)
TMS320C2000 Assembler PC v18.1.2 Fri Dec 14 17:55:26 2018

Tools Copyright (c) 1996-2017 Texas Instruments Incorporated
F2837xD_Gpio.asm                                                     PAGE   50

    2632                      .dwattr $C$DW$187, DW_AT_data_member_location[DW_OP_plus_uconst 0x0]
    2633                      .dwattr $C$DW$187, DW_AT_accessibility(DW_ACCESS_public)
    2634              
    2635              $C$DW$188       .dwtag  DW_TAG_member
    2636                      .dwattr $C$DW$188, DW_AT_type(*$C$DW$T$19)
    2637                      .dwattr $C$DW$188, DW_AT_name("rsvd2")
    2638                      .dwattr $C$DW$188, DW_AT_TI_symbol_name("_rsvd2")
    2639                      .dwattr $C$DW$188, DW_AT_bit_offset(0x00)
    2640                      .dwattr $C$DW$188, DW_AT_bit_size(0x10)
    2641                      .dwattr $C$DW$188, DW_AT_data_member_location[DW_OP_plus_uconst 0x1]
    2642                      .dwattr $C$DW$188, DW_AT_accessibility(DW_ACCESS_public)
    2643              
    2644                      .dwendtag $C$DW$T$37
    2645              
    2646              
    2647              $C$DW$T$38      .dwtag  DW_TAG_union_type
    2648                      .dwattr $C$DW$T$38, DW_AT_name("CPUSEL5_REG")
    2649                      .dwattr $C$DW$T$38, DW_AT_byte_size(0x02)
    2650              $C$DW$189       .dwtag  DW_TAG_member
    2651                      .dwattr $C$DW$189, DW_AT_type(*$C$DW$T$21)
    2652                      .dwattr $C$DW$189, DW_AT_name("all")
    2653                      .dwattr $C$DW$189, DW_AT_TI_symbol_name("_all")
    2654                      .dwattr $C$DW$189, DW_AT_data_member_location[DW_OP_plus_uconst 0x0]
    2655                      .dwattr $C$DW$189, DW_AT_accessibility(DW_ACCESS_public)
    2656              
    2657              $C$DW$190       .dwtag  DW_TAG_member
    2658                      .dwattr $C$DW$190, DW_AT_type(*$C$DW$T$37)
    2659                      .dwattr $C$DW$190, DW_AT_name("bit")
    2660                      .dwattr $C$DW$190, DW_AT_TI_symbol_name("_bit")
    2661                      .dwattr $C$DW$190, DW_AT_data_member_location[DW_OP_plus_uconst 0x0]
    2662                      .dwattr $C$DW$190, DW_AT_accessibility(DW_ACCESS_public)
    2663              
    2664                      .dwendtag $C$DW$T$38
    2665              
    2666              
    2667              $C$DW$T$39      .dwtag  DW_TAG_structure_type
    2668                      .dwattr $C$DW$T$39, DW_AT_name("CPUSEL6_BITS")
    2669                      .dwattr $C$DW$T$39, DW_AT_byte_size(0x02)
    2670              $C$DW$191       .dwtag  DW_TAG_member
    2671                      .dwattr $C$DW$191, DW_AT_type(*$C$DW$T$19)
    2672                      .dwattr $C$DW$191, DW_AT_name("SPI_A")
    2673                      .dwattr $C$DW$191, DW_AT_TI_symbol_name("_SPI_A")
    2674                      .dwattr $C$DW$191, DW_AT_bit_offset(0x0f)
    2675                      .dwattr $C$DW$191, DW_AT_bit_size(0x01)
    2676                      .dwattr $C$DW$191, DW_AT_data_member_location[DW_OP_plus_uconst 0x0]
    2677                      .dwattr $C$DW$191, DW_AT_accessibility(DW_ACCESS_public)
    2678              
    2679              $C$DW$192       .dwtag  DW_TAG_member
    2680                      .dwattr $C$DW$192, DW_AT_type(*$C$DW$T$19)
    2681                      .dwattr $C$DW$192, DW_AT_name("SPI_B")
    2682                      .dwattr $C$DW$192, DW_AT_TI_symbol_name("_SPI_B")
    2683                      .dwattr $C$DW$192, DW_AT_bit_offset(0x0e)
    2684                      .dwattr $C$DW$192, DW_AT_bit_size(0x01)
    2685                      .dwattr $C$DW$192, DW_AT_data_member_location[DW_OP_plus_uconst 0x0]
    2686                      .dwattr $C$DW$192, DW_AT_accessibility(DW_ACCESS_public)
TMS320C2000 Assembler PC v18.1.2 Fri Dec 14 17:55:26 2018

Tools Copyright (c) 1996-2017 Texas Instruments Incorporated
F2837xD_Gpio.asm                                                     PAGE   51

    2687              
    2688              $C$DW$193       .dwtag  DW_TAG_member
    2689                      .dwattr $C$DW$193, DW_AT_type(*$C$DW$T$19)
    2690                      .dwattr $C$DW$193, DW_AT_name("SPI_C")
    2691                      .dwattr $C$DW$193, DW_AT_TI_symbol_name("_SPI_C")
    2692                      .dwattr $C$DW$193, DW_AT_bit_offset(0x0d)
    2693                      .dwattr $C$DW$193, DW_AT_bit_size(0x01)
    2694                      .dwattr $C$DW$193, DW_AT_data_member_location[DW_OP_plus_uconst 0x0]
    2695                      .dwattr $C$DW$193, DW_AT_accessibility(DW_ACCESS_public)
    2696              
    2697              $C$DW$194       .dwtag  DW_TAG_member
    2698                      .dwattr $C$DW$194, DW_AT_type(*$C$DW$T$19)
    2699                      .dwattr $C$DW$194, DW_AT_name("rsvd1")
    2700                      .dwattr $C$DW$194, DW_AT_TI_symbol_name("_rsvd1")
    2701                      .dwattr $C$DW$194, DW_AT_bit_offset(0x0c)
    2702                      .dwattr $C$DW$194, DW_AT_bit_size(0x01)
    2703                      .dwattr $C$DW$194, DW_AT_data_member_location[DW_OP_plus_uconst 0x0]
    2704                      .dwattr $C$DW$194, DW_AT_accessibility(DW_ACCESS_public)
    2705              
    2706              $C$DW$195       .dwtag  DW_TAG_member
    2707                      .dwattr $C$DW$195, DW_AT_type(*$C$DW$T$19)
    2708                      .dwattr $C$DW$195, DW_AT_name("rsvd2")
    2709                      .dwattr $C$DW$195, DW_AT_TI_symbol_name("_rsvd2")
    2710                      .dwattr $C$DW$195, DW_AT_bit_offset(0x00)
    2711                      .dwattr $C$DW$195, DW_AT_bit_size(0x0c)
    2712                      .dwattr $C$DW$195, DW_AT_data_member_location[DW_OP_plus_uconst 0x0]
    2713                      .dwattr $C$DW$195, DW_AT_accessibility(DW_ACCESS_public)
    2714              
    2715              $C$DW$196       .dwtag  DW_TAG_member
    2716                      .dwattr $C$DW$196, DW_AT_type(*$C$DW$T$19)
    2717                      .dwattr $C$DW$196, DW_AT_name("rsvd3")
    2718                      .dwattr $C$DW$196, DW_AT_TI_symbol_name("_rsvd3")
    2719                      .dwattr $C$DW$196, DW_AT_bit_offset(0x0f)
    2720                      .dwattr $C$DW$196, DW_AT_bit_size(0x01)
    2721                      .dwattr $C$DW$196, DW_AT_data_member_location[DW_OP_plus_uconst 0x1]
    2722                      .dwattr $C$DW$196, DW_AT_accessibility(DW_ACCESS_public)
    2723              
    2724              $C$DW$197       .dwtag  DW_TAG_member
    2725                      .dwattr $C$DW$197, DW_AT_type(*$C$DW$T$19)
    2726                      .dwattr $C$DW$197, DW_AT_name("rsvd4")
    2727                      .dwattr $C$DW$197, DW_AT_TI_symbol_name("_rsvd4")
    2728                      .dwattr $C$DW$197, DW_AT_bit_offset(0x0e)
    2729                      .dwattr $C$DW$197, DW_AT_bit_size(0x01)
    2730                      .dwattr $C$DW$197, DW_AT_data_member_location[DW_OP_plus_uconst 0x1]
    2731                      .dwattr $C$DW$197, DW_AT_accessibility(DW_ACCESS_public)
    2732              
    2733              $C$DW$198       .dwtag  DW_TAG_member
    2734                      .dwattr $C$DW$198, DW_AT_type(*$C$DW$T$19)
    2735                      .dwattr $C$DW$198, DW_AT_name("rsvd5")
    2736                      .dwattr $C$DW$198, DW_AT_TI_symbol_name("_rsvd5")
    2737                      .dwattr $C$DW$198, DW_AT_bit_offset(0x00)
    2738                      .dwattr $C$DW$198, DW_AT_bit_size(0x0e)
    2739                      .dwattr $C$DW$198, DW_AT_data_member_location[DW_OP_plus_uconst 0x1]
    2740                      .dwattr $C$DW$198, DW_AT_accessibility(DW_ACCESS_public)
    2741              
TMS320C2000 Assembler PC v18.1.2 Fri Dec 14 17:55:26 2018

Tools Copyright (c) 1996-2017 Texas Instruments Incorporated
F2837xD_Gpio.asm                                                     PAGE   52

    2742                      .dwendtag $C$DW$T$39
    2743              
    2744              
    2745              $C$DW$T$40      .dwtag  DW_TAG_union_type
    2746                      .dwattr $C$DW$T$40, DW_AT_name("CPUSEL6_REG")
    2747                      .dwattr $C$DW$T$40, DW_AT_byte_size(0x02)
    2748              $C$DW$199       .dwtag  DW_TAG_member
    2749                      .dwattr $C$DW$199, DW_AT_type(*$C$DW$T$21)
    2750                      .dwattr $C$DW$199, DW_AT_name("all")
    2751                      .dwattr $C$DW$199, DW_AT_TI_symbol_name("_all")
    2752                      .dwattr $C$DW$199, DW_AT_data_member_location[DW_OP_plus_uconst 0x0]
    2753                      .dwattr $C$DW$199, DW_AT_accessibility(DW_ACCESS_public)
    2754              
    2755              $C$DW$200       .dwtag  DW_TAG_member
    2756                      .dwattr $C$DW$200, DW_AT_type(*$C$DW$T$39)
    2757                      .dwattr $C$DW$200, DW_AT_name("bit")
    2758                      .dwattr $C$DW$200, DW_AT_TI_symbol_name("_bit")
    2759                      .dwattr $C$DW$200, DW_AT_data_member_location[DW_OP_plus_uconst 0x0]
    2760                      .dwattr $C$DW$200, DW_AT_accessibility(DW_ACCESS_public)
    2761              
    2762                      .dwendtag $C$DW$T$40
    2763              
    2764              
    2765              $C$DW$T$41      .dwtag  DW_TAG_structure_type
    2766                      .dwattr $C$DW$T$41, DW_AT_name("CPUSEL7_BITS")
    2767                      .dwattr $C$DW$T$41, DW_AT_byte_size(0x02)
    2768              $C$DW$201       .dwtag  DW_TAG_member
    2769                      .dwattr $C$DW$201, DW_AT_type(*$C$DW$T$19)
    2770                      .dwattr $C$DW$201, DW_AT_name("I2C_A")
    2771                      .dwattr $C$DW$201, DW_AT_TI_symbol_name("_I2C_A")
    2772                      .dwattr $C$DW$201, DW_AT_bit_offset(0x0f)
    2773                      .dwattr $C$DW$201, DW_AT_bit_size(0x01)
    2774                      .dwattr $C$DW$201, DW_AT_data_member_location[DW_OP_plus_uconst 0x0]
    2775                      .dwattr $C$DW$201, DW_AT_accessibility(DW_ACCESS_public)
    2776              
    2777              $C$DW$202       .dwtag  DW_TAG_member
    2778                      .dwattr $C$DW$202, DW_AT_type(*$C$DW$T$19)
    2779                      .dwattr $C$DW$202, DW_AT_name("I2C_B")
    2780                      .dwattr $C$DW$202, DW_AT_TI_symbol_name("_I2C_B")
    2781                      .dwattr $C$DW$202, DW_AT_bit_offset(0x0e)
    2782                      .dwattr $C$DW$202, DW_AT_bit_size(0x01)
    2783                      .dwattr $C$DW$202, DW_AT_data_member_location[DW_OP_plus_uconst 0x0]
    2784                      .dwattr $C$DW$202, DW_AT_accessibility(DW_ACCESS_public)
    2785              
    2786              $C$DW$203       .dwtag  DW_TAG_member
    2787                      .dwattr $C$DW$203, DW_AT_type(*$C$DW$T$19)
    2788                      .dwattr $C$DW$203, DW_AT_name("rsvd1")
    2789                      .dwattr $C$DW$203, DW_AT_TI_symbol_name("_rsvd1")
    2790                      .dwattr $C$DW$203, DW_AT_bit_offset(0x00)
    2791                      .dwattr $C$DW$203, DW_AT_bit_size(0x0e)
    2792                      .dwattr $C$DW$203, DW_AT_data_member_location[DW_OP_plus_uconst 0x0]
    2793                      .dwattr $C$DW$203, DW_AT_accessibility(DW_ACCESS_public)
    2794              
    2795              $C$DW$204       .dwtag  DW_TAG_member
    2796                      .dwattr $C$DW$204, DW_AT_type(*$C$DW$T$19)
TMS320C2000 Assembler PC v18.1.2 Fri Dec 14 17:55:26 2018

Tools Copyright (c) 1996-2017 Texas Instruments Incorporated
F2837xD_Gpio.asm                                                     PAGE   53

    2797                      .dwattr $C$DW$204, DW_AT_name("rsvd2")
    2798                      .dwattr $C$DW$204, DW_AT_TI_symbol_name("_rsvd2")
    2799                      .dwattr $C$DW$204, DW_AT_bit_offset(0x0f)
    2800                      .dwattr $C$DW$204, DW_AT_bit_size(0x01)
    2801                      .dwattr $C$DW$204, DW_AT_data_member_location[DW_OP_plus_uconst 0x1]
    2802                      .dwattr $C$DW$204, DW_AT_accessibility(DW_ACCESS_public)
    2803              
    2804              $C$DW$205       .dwtag  DW_TAG_member
    2805                      .dwattr $C$DW$205, DW_AT_type(*$C$DW$T$19)
    2806                      .dwattr $C$DW$205, DW_AT_name("rsvd3")
    2807                      .dwattr $C$DW$205, DW_AT_TI_symbol_name("_rsvd3")
    2808                      .dwattr $C$DW$205, DW_AT_bit_offset(0x0e)
    2809                      .dwattr $C$DW$205, DW_AT_bit_size(0x01)
    2810                      .dwattr $C$DW$205, DW_AT_data_member_location[DW_OP_plus_uconst 0x1]
    2811                      .dwattr $C$DW$205, DW_AT_accessibility(DW_ACCESS_public)
    2812              
    2813              $C$DW$206       .dwtag  DW_TAG_member
    2814                      .dwattr $C$DW$206, DW_AT_type(*$C$DW$T$19)
    2815                      .dwattr $C$DW$206, DW_AT_name("rsvd4")
    2816                      .dwattr $C$DW$206, DW_AT_TI_symbol_name("_rsvd4")
    2817                      .dwattr $C$DW$206, DW_AT_bit_offset(0x00)
    2818                      .dwattr $C$DW$206, DW_AT_bit_size(0x0e)
    2819                      .dwattr $C$DW$206, DW_AT_data_member_location[DW_OP_plus_uconst 0x1]
    2820                      .dwattr $C$DW$206, DW_AT_accessibility(DW_ACCESS_public)
    2821              
    2822                      .dwendtag $C$DW$T$41
    2823              
    2824              
    2825              $C$DW$T$42      .dwtag  DW_TAG_union_type
    2826                      .dwattr $C$DW$T$42, DW_AT_name("CPUSEL7_REG")
    2827                      .dwattr $C$DW$T$42, DW_AT_byte_size(0x02)
    2828              $C$DW$207       .dwtag  DW_TAG_member
    2829                      .dwattr $C$DW$207, DW_AT_type(*$C$DW$T$21)
    2830                      .dwattr $C$DW$207, DW_AT_name("all")
    2831                      .dwattr $C$DW$207, DW_AT_TI_symbol_name("_all")
    2832                      .dwattr $C$DW$207, DW_AT_data_member_location[DW_OP_plus_uconst 0x0]
    2833                      .dwattr $C$DW$207, DW_AT_accessibility(DW_ACCESS_public)
    2834              
    2835              $C$DW$208       .dwtag  DW_TAG_member
    2836                      .dwattr $C$DW$208, DW_AT_type(*$C$DW$T$41)
    2837                      .dwattr $C$DW$208, DW_AT_name("bit")
    2838                      .dwattr $C$DW$208, DW_AT_TI_symbol_name("_bit")
    2839                      .dwattr $C$DW$208, DW_AT_data_member_location[DW_OP_plus_uconst 0x0]
    2840                      .dwattr $C$DW$208, DW_AT_accessibility(DW_ACCESS_public)
    2841              
    2842                      .dwendtag $C$DW$T$42
    2843              
    2844              
    2845              $C$DW$T$43      .dwtag  DW_TAG_structure_type
    2846                      .dwattr $C$DW$T$43, DW_AT_name("CPUSEL8_BITS")
    2847                      .dwattr $C$DW$T$43, DW_AT_byte_size(0x02)
    2848              $C$DW$209       .dwtag  DW_TAG_member
    2849                      .dwattr $C$DW$209, DW_AT_type(*$C$DW$T$19)
    2850                      .dwattr $C$DW$209, DW_AT_name("CAN_A")
    2851                      .dwattr $C$DW$209, DW_AT_TI_symbol_name("_CAN_A")
TMS320C2000 Assembler PC v18.1.2 Fri Dec 14 17:55:26 2018

Tools Copyright (c) 1996-2017 Texas Instruments Incorporated
F2837xD_Gpio.asm                                                     PAGE   54

    2852                      .dwattr $C$DW$209, DW_AT_bit_offset(0x0f)
    2853                      .dwattr $C$DW$209, DW_AT_bit_size(0x01)
    2854                      .dwattr $C$DW$209, DW_AT_data_member_location[DW_OP_plus_uconst 0x0]
    2855                      .dwattr $C$DW$209, DW_AT_accessibility(DW_ACCESS_public)
    2856              
    2857              $C$DW$210       .dwtag  DW_TAG_member
    2858                      .dwattr $C$DW$210, DW_AT_type(*$C$DW$T$19)
    2859                      .dwattr $C$DW$210, DW_AT_name("CAN_B")
    2860                      .dwattr $C$DW$210, DW_AT_TI_symbol_name("_CAN_B")
    2861                      .dwattr $C$DW$210, DW_AT_bit_offset(0x0e)
    2862                      .dwattr $C$DW$210, DW_AT_bit_size(0x01)
    2863                      .dwattr $C$DW$210, DW_AT_data_member_location[DW_OP_plus_uconst 0x0]
    2864                      .dwattr $C$DW$210, DW_AT_accessibility(DW_ACCESS_public)
    2865              
    2866              $C$DW$211       .dwtag  DW_TAG_member
    2867                      .dwattr $C$DW$211, DW_AT_type(*$C$DW$T$19)
    2868                      .dwattr $C$DW$211, DW_AT_name("rsvd1")
    2869                      .dwattr $C$DW$211, DW_AT_TI_symbol_name("_rsvd1")
    2870                      .dwattr $C$DW$211, DW_AT_bit_offset(0x0d)
    2871                      .dwattr $C$DW$211, DW_AT_bit_size(0x01)
    2872                      .dwattr $C$DW$211, DW_AT_data_member_location[DW_OP_plus_uconst 0x0]
    2873                      .dwattr $C$DW$211, DW_AT_accessibility(DW_ACCESS_public)
    2874              
    2875              $C$DW$212       .dwtag  DW_TAG_member
    2876                      .dwattr $C$DW$212, DW_AT_type(*$C$DW$T$19)
    2877                      .dwattr $C$DW$212, DW_AT_name("rsvd2")
    2878                      .dwattr $C$DW$212, DW_AT_TI_symbol_name("_rsvd2")
    2879                      .dwattr $C$DW$212, DW_AT_bit_offset(0x0c)
    2880                      .dwattr $C$DW$212, DW_AT_bit_size(0x01)
    2881                      .dwattr $C$DW$212, DW_AT_data_member_location[DW_OP_plus_uconst 0x0]
    2882                      .dwattr $C$DW$212, DW_AT_accessibility(DW_ACCESS_public)
    2883              
    2884              $C$DW$213       .dwtag  DW_TAG_member
    2885                      .dwattr $C$DW$213, DW_AT_type(*$C$DW$T$19)
    2886                      .dwattr $C$DW$213, DW_AT_name("rsvd3")
    2887                      .dwattr $C$DW$213, DW_AT_TI_symbol_name("_rsvd3")
    2888                      .dwattr $C$DW$213, DW_AT_bit_offset(0x00)
    2889                      .dwattr $C$DW$213, DW_AT_bit_size(0x0c)
    2890                      .dwattr $C$DW$213, DW_AT_data_member_location[DW_OP_plus_uconst 0x0]
    2891                      .dwattr $C$DW$213, DW_AT_accessibility(DW_ACCESS_public)
    2892              
    2893              $C$DW$214       .dwtag  DW_TAG_member
    2894                      .dwattr $C$DW$214, DW_AT_type(*$C$DW$T$19)
    2895                      .dwattr $C$DW$214, DW_AT_name("rsvd4")
    2896                      .dwattr $C$DW$214, DW_AT_TI_symbol_name("_rsvd4")
    2897                      .dwattr $C$DW$214, DW_AT_bit_offset(0x00)
    2898                      .dwattr $C$DW$214, DW_AT_bit_size(0x10)
    2899                      .dwattr $C$DW$214, DW_AT_data_member_location[DW_OP_plus_uconst 0x1]
    2900                      .dwattr $C$DW$214, DW_AT_accessibility(DW_ACCESS_public)
    2901              
    2902                      .dwendtag $C$DW$T$43
    2903              
    2904              
    2905              $C$DW$T$44      .dwtag  DW_TAG_union_type
    2906                      .dwattr $C$DW$T$44, DW_AT_name("CPUSEL8_REG")
TMS320C2000 Assembler PC v18.1.2 Fri Dec 14 17:55:26 2018

Tools Copyright (c) 1996-2017 Texas Instruments Incorporated
F2837xD_Gpio.asm                                                     PAGE   55

    2907                      .dwattr $C$DW$T$44, DW_AT_byte_size(0x02)
    2908              $C$DW$215       .dwtag  DW_TAG_member
    2909                      .dwattr $C$DW$215, DW_AT_type(*$C$DW$T$21)
    2910                      .dwattr $C$DW$215, DW_AT_name("all")
    2911                      .dwattr $C$DW$215, DW_AT_TI_symbol_name("_all")
    2912                      .dwattr $C$DW$215, DW_AT_data_member_location[DW_OP_plus_uconst 0x0]
    2913                      .dwattr $C$DW$215, DW_AT_accessibility(DW_ACCESS_public)
    2914              
    2915              $C$DW$216       .dwtag  DW_TAG_member
    2916                      .dwattr $C$DW$216, DW_AT_type(*$C$DW$T$43)
    2917                      .dwattr $C$DW$216, DW_AT_name("bit")
    2918                      .dwattr $C$DW$216, DW_AT_TI_symbol_name("_bit")
    2919                      .dwattr $C$DW$216, DW_AT_data_member_location[DW_OP_plus_uconst 0x0]
    2920                      .dwattr $C$DW$216, DW_AT_accessibility(DW_ACCESS_public)
    2921              
    2922                      .dwendtag $C$DW$T$44
    2923              
    2924              
    2925              $C$DW$T$45      .dwtag  DW_TAG_structure_type
    2926                      .dwattr $C$DW$T$45, DW_AT_name("CPUSEL9_BITS")
    2927                      .dwattr $C$DW$T$45, DW_AT_byte_size(0x02)
    2928              $C$DW$217       .dwtag  DW_TAG_member
    2929                      .dwattr $C$DW$217, DW_AT_type(*$C$DW$T$19)
    2930                      .dwattr $C$DW$217, DW_AT_name("McBSP_A")
    2931                      .dwattr $C$DW$217, DW_AT_TI_symbol_name("_McBSP_A")
    2932                      .dwattr $C$DW$217, DW_AT_bit_offset(0x0f)
    2933                      .dwattr $C$DW$217, DW_AT_bit_size(0x01)
    2934                      .dwattr $C$DW$217, DW_AT_data_member_location[DW_OP_plus_uconst 0x0]
    2935                      .dwattr $C$DW$217, DW_AT_accessibility(DW_ACCESS_public)
    2936              
    2937              $C$DW$218       .dwtag  DW_TAG_member
    2938                      .dwattr $C$DW$218, DW_AT_type(*$C$DW$T$19)
    2939                      .dwattr $C$DW$218, DW_AT_name("McBSP_B")
    2940                      .dwattr $C$DW$218, DW_AT_TI_symbol_name("_McBSP_B")
    2941                      .dwattr $C$DW$218, DW_AT_bit_offset(0x0e)
    2942                      .dwattr $C$DW$218, DW_AT_bit_size(0x01)
    2943                      .dwattr $C$DW$218, DW_AT_data_member_location[DW_OP_plus_uconst 0x0]
    2944                      .dwattr $C$DW$218, DW_AT_accessibility(DW_ACCESS_public)
    2945              
    2946              $C$DW$219       .dwtag  DW_TAG_member
    2947                      .dwattr $C$DW$219, DW_AT_type(*$C$DW$T$19)
    2948                      .dwattr $C$DW$219, DW_AT_name("rsvd1")
    2949                      .dwattr $C$DW$219, DW_AT_TI_symbol_name("_rsvd1")
    2950                      .dwattr $C$DW$219, DW_AT_bit_offset(0x00)
    2951                      .dwattr $C$DW$219, DW_AT_bit_size(0x0e)
    2952                      .dwattr $C$DW$219, DW_AT_data_member_location[DW_OP_plus_uconst 0x0]
    2953                      .dwattr $C$DW$219, DW_AT_accessibility(DW_ACCESS_public)
    2954              
    2955              $C$DW$220       .dwtag  DW_TAG_member
    2956                      .dwattr $C$DW$220, DW_AT_type(*$C$DW$T$19)
    2957                      .dwattr $C$DW$220, DW_AT_name("rsvd2")
    2958                      .dwattr $C$DW$220, DW_AT_TI_symbol_name("_rsvd2")
    2959                      .dwattr $C$DW$220, DW_AT_bit_offset(0x00)
    2960                      .dwattr $C$DW$220, DW_AT_bit_size(0x10)
    2961                      .dwattr $C$DW$220, DW_AT_data_member_location[DW_OP_plus_uconst 0x1]
TMS320C2000 Assembler PC v18.1.2 Fri Dec 14 17:55:26 2018

Tools Copyright (c) 1996-2017 Texas Instruments Incorporated
F2837xD_Gpio.asm                                                     PAGE   56

    2962                      .dwattr $C$DW$220, DW_AT_accessibility(DW_ACCESS_public)
    2963              
    2964                      .dwendtag $C$DW$T$45
    2965              
    2966              
    2967              $C$DW$T$46      .dwtag  DW_TAG_union_type
    2968                      .dwattr $C$DW$T$46, DW_AT_name("CPUSEL9_REG")
    2969                      .dwattr $C$DW$T$46, DW_AT_byte_size(0x02)
    2970              $C$DW$221       .dwtag  DW_TAG_member
    2971                      .dwattr $C$DW$221, DW_AT_type(*$C$DW$T$21)
    2972                      .dwattr $C$DW$221, DW_AT_name("all")
    2973                      .dwattr $C$DW$221, DW_AT_TI_symbol_name("_all")
    2974                      .dwattr $C$DW$221, DW_AT_data_member_location[DW_OP_plus_uconst 0x0]
    2975                      .dwattr $C$DW$221, DW_AT_accessibility(DW_ACCESS_public)
    2976              
    2977              $C$DW$222       .dwtag  DW_TAG_member
    2978                      .dwattr $C$DW$222, DW_AT_type(*$C$DW$T$45)
    2979                      .dwattr $C$DW$222, DW_AT_name("bit")
    2980                      .dwattr $C$DW$222, DW_AT_TI_symbol_name("_bit")
    2981                      .dwattr $C$DW$222, DW_AT_data_member_location[DW_OP_plus_uconst 0x0]
    2982                      .dwattr $C$DW$222, DW_AT_accessibility(DW_ACCESS_public)
    2983              
    2984                      .dwendtag $C$DW$T$46
    2985              
    2986              
    2987              $C$DW$T$47      .dwtag  DW_TAG_structure_type
    2988                      .dwattr $C$DW$T$47, DW_AT_name("DC0_BITS")
    2989                      .dwattr $C$DW$T$47, DW_AT_byte_size(0x02)
    2990              $C$DW$223       .dwtag  DW_TAG_member
    2991                      .dwattr $C$DW$223, DW_AT_type(*$C$DW$T$19)
    2992                      .dwattr $C$DW$223, DW_AT_name("SINGLE_CORE")
    2993                      .dwattr $C$DW$223, DW_AT_TI_symbol_name("_SINGLE_CORE")
    2994                      .dwattr $C$DW$223, DW_AT_bit_offset(0x0f)
    2995                      .dwattr $C$DW$223, DW_AT_bit_size(0x01)
    2996                      .dwattr $C$DW$223, DW_AT_data_member_location[DW_OP_plus_uconst 0x0]
    2997                      .dwattr $C$DW$223, DW_AT_accessibility(DW_ACCESS_public)
    2998              
    2999              $C$DW$224       .dwtag  DW_TAG_member
    3000                      .dwattr $C$DW$224, DW_AT_type(*$C$DW$T$19)
    3001                      .dwattr $C$DW$224, DW_AT_name("rsvd1")
    3002                      .dwattr $C$DW$224, DW_AT_TI_symbol_name("_rsvd1")
    3003                      .dwattr $C$DW$224, DW_AT_bit_offset(0x00)
    3004                      .dwattr $C$DW$224, DW_AT_bit_size(0x0f)
    3005                      .dwattr $C$DW$224, DW_AT_data_member_location[DW_OP_plus_uconst 0x0]
    3006                      .dwattr $C$DW$224, DW_AT_accessibility(DW_ACCESS_public)
    3007              
    3008              $C$DW$225       .dwtag  DW_TAG_member
    3009                      .dwattr $C$DW$225, DW_AT_type(*$C$DW$T$19)
    3010                      .dwattr $C$DW$225, DW_AT_name("rsvd2")
    3011                      .dwattr $C$DW$225, DW_AT_TI_symbol_name("_rsvd2")
    3012                      .dwattr $C$DW$225, DW_AT_bit_offset(0x00)
    3013                      .dwattr $C$DW$225, DW_AT_bit_size(0x10)
    3014                      .dwattr $C$DW$225, DW_AT_data_member_location[DW_OP_plus_uconst 0x1]
    3015                      .dwattr $C$DW$225, DW_AT_accessibility(DW_ACCESS_public)
    3016              
TMS320C2000 Assembler PC v18.1.2 Fri Dec 14 17:55:26 2018

Tools Copyright (c) 1996-2017 Texas Instruments Incorporated
F2837xD_Gpio.asm                                                     PAGE   57

    3017                      .dwendtag $C$DW$T$47
    3018              
    3019              
    3020              $C$DW$T$48      .dwtag  DW_TAG_union_type
    3021                      .dwattr $C$DW$T$48, DW_AT_name("DC0_REG")
    3022                      .dwattr $C$DW$T$48, DW_AT_byte_size(0x02)
    3023              $C$DW$226       .dwtag  DW_TAG_member
    3024                      .dwattr $C$DW$226, DW_AT_type(*$C$DW$T$21)
    3025                      .dwattr $C$DW$226, DW_AT_name("all")
    3026                      .dwattr $C$DW$226, DW_AT_TI_symbol_name("_all")
    3027                      .dwattr $C$DW$226, DW_AT_data_member_location[DW_OP_plus_uconst 0x0]
    3028                      .dwattr $C$DW$226, DW_AT_accessibility(DW_ACCESS_public)
    3029              
    3030              $C$DW$227       .dwtag  DW_TAG_member
    3031                      .dwattr $C$DW$227, DW_AT_type(*$C$DW$T$47)
    3032                      .dwattr $C$DW$227, DW_AT_name("bit")
    3033                      .dwattr $C$DW$227, DW_AT_TI_symbol_name("_bit")
    3034                      .dwattr $C$DW$227, DW_AT_data_member_location[DW_OP_plus_uconst 0x0]
    3035                      .dwattr $C$DW$227, DW_AT_accessibility(DW_ACCESS_public)
    3036              
    3037                      .dwendtag $C$DW$T$48
    3038              
    3039              
    3040              $C$DW$T$49      .dwtag  DW_TAG_structure_type
    3041                      .dwattr $C$DW$T$49, DW_AT_name("DC10_BITS")
    3042                      .dwattr $C$DW$T$49, DW_AT_byte_size(0x02)
    3043              $C$DW$228       .dwtag  DW_TAG_member
    3044                      .dwattr $C$DW$228, DW_AT_type(*$C$DW$T$19)
    3045                      .dwattr $C$DW$228, DW_AT_name("I2C_A")
    3046                      .dwattr $C$DW$228, DW_AT_TI_symbol_name("_I2C_A")
    3047                      .dwattr $C$DW$228, DW_AT_bit_offset(0x0f)
    3048                      .dwattr $C$DW$228, DW_AT_bit_size(0x01)
    3049                      .dwattr $C$DW$228, DW_AT_data_member_location[DW_OP_plus_uconst 0x0]
    3050                      .dwattr $C$DW$228, DW_AT_accessibility(DW_ACCESS_public)
    3051              
    3052              $C$DW$229       .dwtag  DW_TAG_member
    3053                      .dwattr $C$DW$229, DW_AT_type(*$C$DW$T$19)
    3054                      .dwattr $C$DW$229, DW_AT_name("I2C_B")
    3055                      .dwattr $C$DW$229, DW_AT_TI_symbol_name("_I2C_B")
    3056                      .dwattr $C$DW$229, DW_AT_bit_offset(0x0e)
    3057                      .dwattr $C$DW$229, DW_AT_bit_size(0x01)
    3058                      .dwattr $C$DW$229, DW_AT_data_member_location[DW_OP_plus_uconst 0x0]
    3059                      .dwattr $C$DW$229, DW_AT_accessibility(DW_ACCESS_public)
    3060              
    3061              $C$DW$230       .dwtag  DW_TAG_member
    3062                      .dwattr $C$DW$230, DW_AT_type(*$C$DW$T$19)
    3063                      .dwattr $C$DW$230, DW_AT_name("rsvd1")
    3064                      .dwattr $C$DW$230, DW_AT_TI_symbol_name("_rsvd1")
    3065                      .dwattr $C$DW$230, DW_AT_bit_offset(0x00)
    3066                      .dwattr $C$DW$230, DW_AT_bit_size(0x0e)
    3067                      .dwattr $C$DW$230, DW_AT_data_member_location[DW_OP_plus_uconst 0x0]
    3068                      .dwattr $C$DW$230, DW_AT_accessibility(DW_ACCESS_public)
    3069              
    3070              $C$DW$231       .dwtag  DW_TAG_member
    3071                      .dwattr $C$DW$231, DW_AT_type(*$C$DW$T$19)
TMS320C2000 Assembler PC v18.1.2 Fri Dec 14 17:55:26 2018

Tools Copyright (c) 1996-2017 Texas Instruments Incorporated
F2837xD_Gpio.asm                                                     PAGE   58

    3072                      .dwattr $C$DW$231, DW_AT_name("rsvd2")
    3073                      .dwattr $C$DW$231, DW_AT_TI_symbol_name("_rsvd2")
    3074                      .dwattr $C$DW$231, DW_AT_bit_offset(0x0f)
    3075                      .dwattr $C$DW$231, DW_AT_bit_size(0x01)
    3076                      .dwattr $C$DW$231, DW_AT_data_member_location[DW_OP_plus_uconst 0x1]
    3077                      .dwattr $C$DW$231, DW_AT_accessibility(DW_ACCESS_public)
    3078              
    3079              $C$DW$232       .dwtag  DW_TAG_member
    3080                      .dwattr $C$DW$232, DW_AT_type(*$C$DW$T$19)
    3081                      .dwattr $C$DW$232, DW_AT_name("rsvd3")
    3082                      .dwattr $C$DW$232, DW_AT_TI_symbol_name("_rsvd3")
    3083                      .dwattr $C$DW$232, DW_AT_bit_offset(0x0e)
    3084                      .dwattr $C$DW$232, DW_AT_bit_size(0x01)
    3085                      .dwattr $C$DW$232, DW_AT_data_member_location[DW_OP_plus_uconst 0x1]
    3086                      .dwattr $C$DW$232, DW_AT_accessibility(DW_ACCESS_public)
    3087              
    3088              $C$DW$233       .dwtag  DW_TAG_member
    3089                      .dwattr $C$DW$233, DW_AT_type(*$C$DW$T$19)
    3090                      .dwattr $C$DW$233, DW_AT_name("rsvd4")
    3091                      .dwattr $C$DW$233, DW_AT_TI_symbol_name("_rsvd4")
    3092                      .dwattr $C$DW$233, DW_AT_bit_offset(0x00)
    3093                      .dwattr $C$DW$233, DW_AT_bit_size(0x0e)
    3094                      .dwattr $C$DW$233, DW_AT_data_member_location[DW_OP_plus_uconst 0x1]
    3095                      .dwattr $C$DW$233, DW_AT_accessibility(DW_ACCESS_public)
    3096              
    3097                      .dwendtag $C$DW$T$49
    3098              
    3099              
    3100              $C$DW$T$50      .dwtag  DW_TAG_union_type
    3101                      .dwattr $C$DW$T$50, DW_AT_name("DC10_REG")
    3102                      .dwattr $C$DW$T$50, DW_AT_byte_size(0x02)
    3103              $C$DW$234       .dwtag  DW_TAG_member
    3104                      .dwattr $C$DW$234, DW_AT_type(*$C$DW$T$21)
    3105                      .dwattr $C$DW$234, DW_AT_name("all")
    3106                      .dwattr $C$DW$234, DW_AT_TI_symbol_name("_all")
    3107                      .dwattr $C$DW$234, DW_AT_data_member_location[DW_OP_plus_uconst 0x0]
    3108                      .dwattr $C$DW$234, DW_AT_accessibility(DW_ACCESS_public)
    3109              
    3110              $C$DW$235       .dwtag  DW_TAG_member
    3111                      .dwattr $C$DW$235, DW_AT_type(*$C$DW$T$49)
    3112                      .dwattr $C$DW$235, DW_AT_name("bit")
    3113                      .dwattr $C$DW$235, DW_AT_TI_symbol_name("_bit")
    3114                      .dwattr $C$DW$235, DW_AT_data_member_location[DW_OP_plus_uconst 0x0]
    3115                      .dwattr $C$DW$235, DW_AT_accessibility(DW_ACCESS_public)
    3116              
    3117                      .dwendtag $C$DW$T$50
    3118              
    3119              
    3120              $C$DW$T$51      .dwtag  DW_TAG_structure_type
    3121                      .dwattr $C$DW$T$51, DW_AT_name("DC11_BITS")
    3122                      .dwattr $C$DW$T$51, DW_AT_byte_size(0x02)
    3123              $C$DW$236       .dwtag  DW_TAG_member
    3124                      .dwattr $C$DW$236, DW_AT_type(*$C$DW$T$19)
    3125                      .dwattr $C$DW$236, DW_AT_name("CAN_A")
    3126                      .dwattr $C$DW$236, DW_AT_TI_symbol_name("_CAN_A")
TMS320C2000 Assembler PC v18.1.2 Fri Dec 14 17:55:26 2018

Tools Copyright (c) 1996-2017 Texas Instruments Incorporated
F2837xD_Gpio.asm                                                     PAGE   59

    3127                      .dwattr $C$DW$236, DW_AT_bit_offset(0x0f)
    3128                      .dwattr $C$DW$236, DW_AT_bit_size(0x01)
    3129                      .dwattr $C$DW$236, DW_AT_data_member_location[DW_OP_plus_uconst 0x0]
    3130                      .dwattr $C$DW$236, DW_AT_accessibility(DW_ACCESS_public)
    3131              
    3132              $C$DW$237       .dwtag  DW_TAG_member
    3133                      .dwattr $C$DW$237, DW_AT_type(*$C$DW$T$19)
    3134                      .dwattr $C$DW$237, DW_AT_name("CAN_B")
    3135                      .dwattr $C$DW$237, DW_AT_TI_symbol_name("_CAN_B")
    3136                      .dwattr $C$DW$237, DW_AT_bit_offset(0x0e)
    3137                      .dwattr $C$DW$237, DW_AT_bit_size(0x01)
    3138                      .dwattr $C$DW$237, DW_AT_data_member_location[DW_OP_plus_uconst 0x0]
    3139                      .dwattr $C$DW$237, DW_AT_accessibility(DW_ACCESS_public)
    3140              
    3141              $C$DW$238       .dwtag  DW_TAG_member
    3142                      .dwattr $C$DW$238, DW_AT_type(*$C$DW$T$19)
    3143                      .dwattr $C$DW$238, DW_AT_name("rsvd1")
    3144                      .dwattr $C$DW$238, DW_AT_TI_symbol_name("_rsvd1")
    3145                      .dwattr $C$DW$238, DW_AT_bit_offset(0x0d)
    3146                      .dwattr $C$DW$238, DW_AT_bit_size(0x01)
    3147                      .dwattr $C$DW$238, DW_AT_data_member_location[DW_OP_plus_uconst 0x0]
    3148                      .dwattr $C$DW$238, DW_AT_accessibility(DW_ACCESS_public)
    3149              
    3150              $C$DW$239       .dwtag  DW_TAG_member
    3151                      .dwattr $C$DW$239, DW_AT_type(*$C$DW$T$19)
    3152                      .dwattr $C$DW$239, DW_AT_name("rsvd2")
    3153                      .dwattr $C$DW$239, DW_AT_TI_symbol_name("_rsvd2")
    3154                      .dwattr $C$DW$239, DW_AT_bit_offset(0x0c)
    3155                      .dwattr $C$DW$239, DW_AT_bit_size(0x01)
    3156                      .dwattr $C$DW$239, DW_AT_data_member_location[DW_OP_plus_uconst 0x0]
    3157                      .dwattr $C$DW$239, DW_AT_accessibility(DW_ACCESS_public)
    3158              
    3159              $C$DW$240       .dwtag  DW_TAG_member
    3160                      .dwattr $C$DW$240, DW_AT_type(*$C$DW$T$19)
    3161                      .dwattr $C$DW$240, DW_AT_name("rsvd3")
    3162                      .dwattr $C$DW$240, DW_AT_TI_symbol_name("_rsvd3")
    3163                      .dwattr $C$DW$240, DW_AT_bit_offset(0x00)
    3164                      .dwattr $C$DW$240, DW_AT_bit_size(0x0c)
    3165                      .dwattr $C$DW$240, DW_AT_data_member_location[DW_OP_plus_uconst 0x0]
    3166                      .dwattr $C$DW$240, DW_AT_accessibility(DW_ACCESS_public)
    3167              
    3168              $C$DW$241       .dwtag  DW_TAG_member
    3169                      .dwattr $C$DW$241, DW_AT_type(*$C$DW$T$19)
    3170                      .dwattr $C$DW$241, DW_AT_name("rsvd4")
    3171                      .dwattr $C$DW$241, DW_AT_TI_symbol_name("_rsvd4")
    3172                      .dwattr $C$DW$241, DW_AT_bit_offset(0x00)
    3173                      .dwattr $C$DW$241, DW_AT_bit_size(0x10)
    3174                      .dwattr $C$DW$241, DW_AT_data_member_location[DW_OP_plus_uconst 0x1]
    3175                      .dwattr $C$DW$241, DW_AT_accessibility(DW_ACCESS_public)
    3176              
    3177                      .dwendtag $C$DW$T$51
    3178              
    3179              
    3180              $C$DW$T$52      .dwtag  DW_TAG_union_type
    3181                      .dwattr $C$DW$T$52, DW_AT_name("DC11_REG")
TMS320C2000 Assembler PC v18.1.2 Fri Dec 14 17:55:26 2018

Tools Copyright (c) 1996-2017 Texas Instruments Incorporated
F2837xD_Gpio.asm                                                     PAGE   60

    3182                      .dwattr $C$DW$T$52, DW_AT_byte_size(0x02)
    3183              $C$DW$242       .dwtag  DW_TAG_member
    3184                      .dwattr $C$DW$242, DW_AT_type(*$C$DW$T$21)
    3185                      .dwattr $C$DW$242, DW_AT_name("all")
    3186                      .dwattr $C$DW$242, DW_AT_TI_symbol_name("_all")
    3187                      .dwattr $C$DW$242, DW_AT_data_member_location[DW_OP_plus_uconst 0x0]
    3188                      .dwattr $C$DW$242, DW_AT_accessibility(DW_ACCESS_public)
    3189              
    3190              $C$DW$243       .dwtag  DW_TAG_member
    3191                      .dwattr $C$DW$243, DW_AT_type(*$C$DW$T$51)
    3192                      .dwattr $C$DW$243, DW_AT_name("bit")
    3193                      .dwattr $C$DW$243, DW_AT_TI_symbol_name("_bit")
    3194                      .dwattr $C$DW$243, DW_AT_data_member_location[DW_OP_plus_uconst 0x0]
    3195                      .dwattr $C$DW$243, DW_AT_accessibility(DW_ACCESS_public)
    3196              
    3197                      .dwendtag $C$DW$T$52
    3198              
    3199              
    3200              $C$DW$T$53      .dwtag  DW_TAG_structure_type
    3201                      .dwattr $C$DW$T$53, DW_AT_name("DC12_BITS")
    3202                      .dwattr $C$DW$T$53, DW_AT_byte_size(0x02)
    3203              $C$DW$244       .dwtag  DW_TAG_member
    3204                      .dwattr $C$DW$244, DW_AT_type(*$C$DW$T$19)
    3205                      .dwattr $C$DW$244, DW_AT_name("McBSP_A")
    3206                      .dwattr $C$DW$244, DW_AT_TI_symbol_name("_McBSP_A")
    3207                      .dwattr $C$DW$244, DW_AT_bit_offset(0x0f)
    3208                      .dwattr $C$DW$244, DW_AT_bit_size(0x01)
    3209                      .dwattr $C$DW$244, DW_AT_data_member_location[DW_OP_plus_uconst 0x0]
    3210                      .dwattr $C$DW$244, DW_AT_accessibility(DW_ACCESS_public)
    3211              
    3212              $C$DW$245       .dwtag  DW_TAG_member
    3213                      .dwattr $C$DW$245, DW_AT_type(*$C$DW$T$19)
    3214                      .dwattr $C$DW$245, DW_AT_name("McBSP_B")
    3215                      .dwattr $C$DW$245, DW_AT_TI_symbol_name("_McBSP_B")
    3216                      .dwattr $C$DW$245, DW_AT_bit_offset(0x0e)
    3217                      .dwattr $C$DW$245, DW_AT_bit_size(0x01)
    3218                      .dwattr $C$DW$245, DW_AT_data_member_location[DW_OP_plus_uconst 0x0]
    3219                      .dwattr $C$DW$245, DW_AT_accessibility(DW_ACCESS_public)
    3220              
    3221              $C$DW$246       .dwtag  DW_TAG_member
    3222                      .dwattr $C$DW$246, DW_AT_type(*$C$DW$T$19)
    3223                      .dwattr $C$DW$246, DW_AT_name("rsvd1")
    3224                      .dwattr $C$DW$246, DW_AT_TI_symbol_name("_rsvd1")
    3225                      .dwattr $C$DW$246, DW_AT_bit_offset(0x00)
    3226                      .dwattr $C$DW$246, DW_AT_bit_size(0x0e)
    3227                      .dwattr $C$DW$246, DW_AT_data_member_location[DW_OP_plus_uconst 0x0]
    3228                      .dwattr $C$DW$246, DW_AT_accessibility(DW_ACCESS_public)
    3229              
    3230              $C$DW$247       .dwtag  DW_TAG_member
    3231                      .dwattr $C$DW$247, DW_AT_type(*$C$DW$T$19)
    3232                      .dwattr $C$DW$247, DW_AT_name("USB_A")
    3233                      .dwattr $C$DW$247, DW_AT_TI_symbol_name("_USB_A")
    3234                      .dwattr $C$DW$247, DW_AT_bit_offset(0x0e)
    3235                      .dwattr $C$DW$247, DW_AT_bit_size(0x02)
    3236                      .dwattr $C$DW$247, DW_AT_data_member_location[DW_OP_plus_uconst 0x1]
TMS320C2000 Assembler PC v18.1.2 Fri Dec 14 17:55:26 2018

Tools Copyright (c) 1996-2017 Texas Instruments Incorporated
F2837xD_Gpio.asm                                                     PAGE   61

    3237                      .dwattr $C$DW$247, DW_AT_accessibility(DW_ACCESS_public)
    3238              
    3239              $C$DW$248       .dwtag  DW_TAG_member
    3240                      .dwattr $C$DW$248, DW_AT_type(*$C$DW$T$19)
    3241                      .dwattr $C$DW$248, DW_AT_name("rsvd2")
    3242                      .dwattr $C$DW$248, DW_AT_TI_symbol_name("_rsvd2")
    3243                      .dwattr $C$DW$248, DW_AT_bit_offset(0x0c)
    3244                      .dwattr $C$DW$248, DW_AT_bit_size(0x02)
    3245                      .dwattr $C$DW$248, DW_AT_data_member_location[DW_OP_plus_uconst 0x1]
    3246                      .dwattr $C$DW$248, DW_AT_accessibility(DW_ACCESS_public)
    3247              
    3248              $C$DW$249       .dwtag  DW_TAG_member
    3249                      .dwattr $C$DW$249, DW_AT_type(*$C$DW$T$19)
    3250                      .dwattr $C$DW$249, DW_AT_name("rsvd3")
    3251                      .dwattr $C$DW$249, DW_AT_TI_symbol_name("_rsvd3")
    3252                      .dwattr $C$DW$249, DW_AT_bit_offset(0x00)
    3253                      .dwattr $C$DW$249, DW_AT_bit_size(0x0c)
    3254                      .dwattr $C$DW$249, DW_AT_data_member_location[DW_OP_plus_uconst 0x1]
    3255                      .dwattr $C$DW$249, DW_AT_accessibility(DW_ACCESS_public)
    3256              
    3257                      .dwendtag $C$DW$T$53
    3258              
    3259              
    3260              $C$DW$T$54      .dwtag  DW_TAG_union_type
    3261                      .dwattr $C$DW$T$54, DW_AT_name("DC12_REG")
    3262                      .dwattr $C$DW$T$54, DW_AT_byte_size(0x02)
    3263              $C$DW$250       .dwtag  DW_TAG_member
    3264                      .dwattr $C$DW$250, DW_AT_type(*$C$DW$T$21)
    3265                      .dwattr $C$DW$250, DW_AT_name("all")
    3266                      .dwattr $C$DW$250, DW_AT_TI_symbol_name("_all")
    3267                      .dwattr $C$DW$250, DW_AT_data_member_location[DW_OP_plus_uconst 0x0]
    3268                      .dwattr $C$DW$250, DW_AT_accessibility(DW_ACCESS_public)
    3269              
    3270              $C$DW$251       .dwtag  DW_TAG_member
    3271                      .dwattr $C$DW$251, DW_AT_type(*$C$DW$T$53)
    3272                      .dwattr $C$DW$251, DW_AT_name("bit")
    3273                      .dwattr $C$DW$251, DW_AT_TI_symbol_name("_bit")
    3274                      .dwattr $C$DW$251, DW_AT_data_member_location[DW_OP_plus_uconst 0x0]
    3275                      .dwattr $C$DW$251, DW_AT_accessibility(DW_ACCESS_public)
    3276              
    3277                      .dwendtag $C$DW$T$54
    3278              
    3279              
    3280              $C$DW$T$55      .dwtag  DW_TAG_structure_type
    3281                      .dwattr $C$DW$T$55, DW_AT_name("DC13_BITS")
    3282                      .dwattr $C$DW$T$55, DW_AT_byte_size(0x02)
    3283              $C$DW$252       .dwtag  DW_TAG_member
    3284                      .dwattr $C$DW$252, DW_AT_type(*$C$DW$T$19)
    3285                      .dwattr $C$DW$252, DW_AT_name("uPP_A")
    3286                      .dwattr $C$DW$252, DW_AT_TI_symbol_name("_uPP_A")
    3287                      .dwattr $C$DW$252, DW_AT_bit_offset(0x0f)
    3288                      .dwattr $C$DW$252, DW_AT_bit_size(0x01)
    3289                      .dwattr $C$DW$252, DW_AT_data_member_location[DW_OP_plus_uconst 0x0]
    3290                      .dwattr $C$DW$252, DW_AT_accessibility(DW_ACCESS_public)
    3291              
TMS320C2000 Assembler PC v18.1.2 Fri Dec 14 17:55:26 2018

Tools Copyright (c) 1996-2017 Texas Instruments Incorporated
F2837xD_Gpio.asm                                                     PAGE   62

    3292              $C$DW$253       .dwtag  DW_TAG_member
    3293                      .dwattr $C$DW$253, DW_AT_type(*$C$DW$T$19)
    3294                      .dwattr $C$DW$253, DW_AT_name("rsvd1")
    3295                      .dwattr $C$DW$253, DW_AT_TI_symbol_name("_rsvd1")
    3296                      .dwattr $C$DW$253, DW_AT_bit_offset(0x0e)
    3297                      .dwattr $C$DW$253, DW_AT_bit_size(0x01)
    3298                      .dwattr $C$DW$253, DW_AT_data_member_location[DW_OP_plus_uconst 0x0]
    3299                      .dwattr $C$DW$253, DW_AT_accessibility(DW_ACCESS_public)
    3300              
    3301              $C$DW$254       .dwtag  DW_TAG_member
    3302                      .dwattr $C$DW$254, DW_AT_type(*$C$DW$T$19)
    3303                      .dwattr $C$DW$254, DW_AT_name("rsvd2")
    3304                      .dwattr $C$DW$254, DW_AT_TI_symbol_name("_rsvd2")
    3305                      .dwattr $C$DW$254, DW_AT_bit_offset(0x00)
    3306                      .dwattr $C$DW$254, DW_AT_bit_size(0x0e)
    3307                      .dwattr $C$DW$254, DW_AT_data_member_location[DW_OP_plus_uconst 0x0]
    3308                      .dwattr $C$DW$254, DW_AT_accessibility(DW_ACCESS_public)
    3309              
    3310              $C$DW$255       .dwtag  DW_TAG_member
    3311                      .dwattr $C$DW$255, DW_AT_type(*$C$DW$T$19)
    3312                      .dwattr $C$DW$255, DW_AT_name("rsvd3")
    3313                      .dwattr $C$DW$255, DW_AT_TI_symbol_name("_rsvd3")
    3314                      .dwattr $C$DW$255, DW_AT_bit_offset(0x00)
    3315                      .dwattr $C$DW$255, DW_AT_bit_size(0x10)
    3316                      .dwattr $C$DW$255, DW_AT_data_member_location[DW_OP_plus_uconst 0x1]
    3317                      .dwattr $C$DW$255, DW_AT_accessibility(DW_ACCESS_public)
    3318              
    3319                      .dwendtag $C$DW$T$55
    3320              
    3321              
    3322              $C$DW$T$56      .dwtag  DW_TAG_union_type
    3323                      .dwattr $C$DW$T$56, DW_AT_name("DC13_REG")
    3324                      .dwattr $C$DW$T$56, DW_AT_byte_size(0x02)
    3325              $C$DW$256       .dwtag  DW_TAG_member
    3326                      .dwattr $C$DW$256, DW_AT_type(*$C$DW$T$21)
    3327                      .dwattr $C$DW$256, DW_AT_name("all")
    3328                      .dwattr $C$DW$256, DW_AT_TI_symbol_name("_all")
    3329                      .dwattr $C$DW$256, DW_AT_data_member_location[DW_OP_plus_uconst 0x0]
    3330                      .dwattr $C$DW$256, DW_AT_accessibility(DW_ACCESS_public)
    3331              
    3332              $C$DW$257       .dwtag  DW_TAG_member
    3333                      .dwattr $C$DW$257, DW_AT_type(*$C$DW$T$55)
    3334                      .dwattr $C$DW$257, DW_AT_name("bit")
    3335                      .dwattr $C$DW$257, DW_AT_TI_symbol_name("_bit")
    3336                      .dwattr $C$DW$257, DW_AT_data_member_location[DW_OP_plus_uconst 0x0]
    3337                      .dwattr $C$DW$257, DW_AT_accessibility(DW_ACCESS_public)
    3338              
    3339                      .dwendtag $C$DW$T$56
    3340              
    3341              
    3342              $C$DW$T$57      .dwtag  DW_TAG_structure_type
    3343                      .dwattr $C$DW$T$57, DW_AT_name("DC14_BITS")
    3344                      .dwattr $C$DW$T$57, DW_AT_byte_size(0x02)
    3345              $C$DW$258       .dwtag  DW_TAG_member
    3346                      .dwattr $C$DW$258, DW_AT_type(*$C$DW$T$19)
TMS320C2000 Assembler PC v18.1.2 Fri Dec 14 17:55:26 2018

Tools Copyright (c) 1996-2017 Texas Instruments Incorporated
F2837xD_Gpio.asm                                                     PAGE   63

    3347                      .dwattr $C$DW$258, DW_AT_name("ADC_A")
    3348                      .dwattr $C$DW$258, DW_AT_TI_symbol_name("_ADC_A")
    3349                      .dwattr $C$DW$258, DW_AT_bit_offset(0x0f)
    3350                      .dwattr $C$DW$258, DW_AT_bit_size(0x01)
    3351                      .dwattr $C$DW$258, DW_AT_data_member_location[DW_OP_plus_uconst 0x0]
    3352                      .dwattr $C$DW$258, DW_AT_accessibility(DW_ACCESS_public)
    3353              
    3354              $C$DW$259       .dwtag  DW_TAG_member
    3355                      .dwattr $C$DW$259, DW_AT_type(*$C$DW$T$19)
    3356                      .dwattr $C$DW$259, DW_AT_name("ADC_B")
    3357                      .dwattr $C$DW$259, DW_AT_TI_symbol_name("_ADC_B")
    3358                      .dwattr $C$DW$259, DW_AT_bit_offset(0x0e)
    3359                      .dwattr $C$DW$259, DW_AT_bit_size(0x01)
    3360                      .dwattr $C$DW$259, DW_AT_data_member_location[DW_OP_plus_uconst 0x0]
    3361                      .dwattr $C$DW$259, DW_AT_accessibility(DW_ACCESS_public)
    3362              
    3363              $C$DW$260       .dwtag  DW_TAG_member
    3364                      .dwattr $C$DW$260, DW_AT_type(*$C$DW$T$19)
    3365                      .dwattr $C$DW$260, DW_AT_name("ADC_C")
    3366                      .dwattr $C$DW$260, DW_AT_TI_symbol_name("_ADC_C")
    3367                      .dwattr $C$DW$260, DW_AT_bit_offset(0x0d)
    3368                      .dwattr $C$DW$260, DW_AT_bit_size(0x01)
    3369                      .dwattr $C$DW$260, DW_AT_data_member_location[DW_OP_plus_uconst 0x0]
    3370                      .dwattr $C$DW$260, DW_AT_accessibility(DW_ACCESS_public)
    3371              
    3372              $C$DW$261       .dwtag  DW_TAG_member
