TMS320C2000 Assembler PC v18.1.2 Fri Dec 14 17:55:30 2018

Tools Copyright (c) 1996-2017 Texas Instruments Incorporated
F2837xD_Ipc_Driver_Util.asm                                          PAGE    1

       1              ;***************************************************************
       2              ;* TMS320C2000 C/C++ Codegen                    PC v18.1.2.LTS *
       3              ;* Date/Time created: Fri Dec 14 17:55:30 2018                 *
       4              ;***************************************************************
       5                      .compiler_opts --abi=coffabi --cla_support=cla1 --diag_wrap=off --float_support=fpu32 --hll_source=on
       6                      .asg    XAR2, FP
       7              
       8              $C$DW$CU        .dwtag  DW_TAG_compile_unit
       9                      .dwattr $C$DW$CU, DW_AT_name("../F2837xD/F2837xD_Ipc_Driver_Util.c")
      10                      .dwattr $C$DW$CU, DW_AT_producer("TI TMS320C2000 C/C++ Codegen PC v18.1.2.LTS Copyright (c) 1996-2017
      11                      .dwattr $C$DW$CU, DW_AT_TI_version(0x01)
      12                      .dwattr $C$DW$CU, DW_AT_comp_dir("D:\WorkSpace\CCS_WorkSpace\CanTest\Debug")
      13              
      14              $C$DW$1 .dwtag  DW_TAG_subprogram
      15                      .dwattr $C$DW$1, DW_AT_name("GPIO_SetupPinOptions")
      16                      .dwattr $C$DW$1, DW_AT_TI_symbol_name("_GPIO_SetupPinOptions")
      17                      .dwattr $C$DW$1, DW_AT_declaration
      18                      .dwattr $C$DW$1, DW_AT_external
      19              $C$DW$2 .dwtag  DW_TAG_formal_parameter
      20                      .dwattr $C$DW$2, DW_AT_type(*$C$DW$T$19)
      21              
      22              $C$DW$3 .dwtag  DW_TAG_formal_parameter
      23                      .dwattr $C$DW$3, DW_AT_type(*$C$DW$T$19)
      24              
      25              $C$DW$4 .dwtag  DW_TAG_formal_parameter
      26                      .dwattr $C$DW$4, DW_AT_type(*$C$DW$T$19)
      27              
      28                      .dwendtag $C$DW$1
      29              
      30              
      31              $C$DW$5 .dwtag  DW_TAG_subprogram
      32                      .dwattr $C$DW$5, DW_AT_name("GPIO_SetupPinMux")
      33                      .dwattr $C$DW$5, DW_AT_TI_symbol_name("_GPIO_SetupPinMux")
      34                      .dwattr $C$DW$5, DW_AT_declaration
      35                      .dwattr $C$DW$5, DW_AT_external
      36              $C$DW$6 .dwtag  DW_TAG_formal_parameter
      37                      .dwattr $C$DW$6, DW_AT_type(*$C$DW$T$19)
      38              
      39              $C$DW$7 .dwtag  DW_TAG_formal_parameter
      40                      .dwattr $C$DW$7, DW_AT_type(*$C$DW$T$19)
      41              
      42              $C$DW$8 .dwtag  DW_TAG_formal_parameter
      43                      .dwattr $C$DW$8, DW_AT_type(*$C$DW$T$19)
      44              
      45                      .dwendtag $C$DW$5
      46              
      47              $C$DW$9 .dwtag  DW_TAG_variable
      48                      .dwattr $C$DW$9, DW_AT_name("IpcRegs")
      49                      .dwattr $C$DW$9, DW_AT_TI_symbol_name("_IpcRegs")
      50                      .dwattr $C$DW$9, DW_AT_type(*$C$DW$T$461)
      51                      .dwattr $C$DW$9, DW_AT_declaration
      52                      .dwattr $C$DW$9, DW_AT_external
      53              
      54              $C$DW$10        .dwtag  DW_TAG_variable
      55                      .dwattr $C$DW$10, DW_AT_name("ClkCfgRegs")
TMS320C2000 Assembler PC v18.1.2 Fri Dec 14 17:55:30 2018

Tools Copyright (c) 1996-2017 Texas Instruments Incorporated
F2837xD_Ipc_Driver_Util.asm                                          PAGE    2

      56                      .dwattr $C$DW$10, DW_AT_TI_symbol_name("_ClkCfgRegs")
      57                      .dwattr $C$DW$10, DW_AT_type(*$C$DW$T$437)
      58                      .dwattr $C$DW$10, DW_AT_declaration
      59                      .dwattr $C$DW$10, DW_AT_external
      60              
      61              $C$DW$11        .dwtag  DW_TAG_variable
      62                      .dwattr $C$DW$11, DW_AT_name("CpuSysRegs")
      63                      .dwattr $C$DW$11, DW_AT_TI_symbol_name("_CpuSysRegs")
      64                      .dwattr $C$DW$11, DW_AT_type(*$C$DW$T$444)
      65                      .dwattr $C$DW$11, DW_AT_declaration
      66                      .dwattr $C$DW$11, DW_AT_external
      67              
      68              $C$DW$12        .dwtag  DW_TAG_variable
      69                      .dwattr $C$DW$12, DW_AT_name("DevCfgRegs")
      70                      .dwattr $C$DW$12, DW_AT_TI_symbol_name("_DevCfgRegs")
      71                      .dwattr $C$DW$12, DW_AT_type(*$C$DW$T$445)
      72                      .dwattr $C$DW$12, DW_AT_declaration
      73                      .dwattr $C$DW$12, DW_AT_external
      74              
      75              $C$DW$13        .dwtag  DW_TAG_variable
      76                      .dwattr $C$DW$13, DW_AT_name("GpioCtrlRegs")
      77                      .dwattr $C$DW$13, DW_AT_TI_symbol_name("_GpioCtrlRegs")
      78                      .dwattr $C$DW$13, DW_AT_type(*$C$DW$T$455)
      79                      .dwattr $C$DW$13, DW_AT_declaration
      80                      .dwattr $C$DW$13, DW_AT_external
      81              
      82              ;       D:\ProgramFiles\ti\ccsv8\tools\compiler\ti-cgt-c2000_18.1.2.LTS\bin\ac2000.exe -@C:\\Users\\qd\\AppDa
      83 00000000               .sect   ".text"
      84                      .clink
      85                      .global _IPCRtoLFlagAcknowledge
      86              
      87              $C$DW$14        .dwtag  DW_TAG_subprogram
      88                      .dwattr $C$DW$14, DW_AT_name("IPCRtoLFlagAcknowledge")
      89                      .dwattr $C$DW$14, DW_AT_low_pc(_IPCRtoLFlagAcknowledge)
      90                      .dwattr $C$DW$14, DW_AT_high_pc(0x00)
      91                      .dwattr $C$DW$14, DW_AT_TI_symbol_name("_IPCRtoLFlagAcknowledge")
      92                      .dwattr $C$DW$14, DW_AT_external
      93                      .dwattr $C$DW$14, DW_AT_TI_begin_file("../F2837xD/F2837xD_Ipc_Driver_Util.c")
      94                      .dwattr $C$DW$14, DW_AT_TI_begin_line(0x3d)
      95                      .dwattr $C$DW$14, DW_AT_TI_begin_column(0x01)
      96                      .dwattr $C$DW$14, DW_AT_TI_max_frame_size(-4)
      97                      .dwpsn  file "../F2837xD/F2837xD_Ipc_Driver_Util.c",line 62,column 1,is_stmt,address _IPCRtoLFlagAckn
      98              
      99                      .dwfde $C$DW$CIE, _IPCRtoLFlagAcknowledge
     100              $C$DW$15        .dwtag  DW_TAG_formal_parameter
     101                      .dwattr $C$DW$15, DW_AT_name("ulFlags")
     102                      .dwattr $C$DW$15, DW_AT_TI_symbol_name("_ulFlags")
     103                      .dwattr $C$DW$15, DW_AT_type(*$C$DW$T$467)
     104                      .dwattr $C$DW$15, DW_AT_location[DW_OP_reg0]
     105              
     106              
     107              ;***************************************************************
     108              ;* FNAME: _IPCRtoLFlagAcknowledge       FR SIZE:   2           *
     109              ;*                                                             *
     110              ;* FUNCTION ENVIRONMENT                                        *
TMS320C2000 Assembler PC v18.1.2 Fri Dec 14 17:55:30 2018

Tools Copyright (c) 1996-2017 Texas Instruments Incorporated
F2837xD_Ipc_Driver_Util.asm                                          PAGE    3

     111              ;*                                                             *
     112              ;* FUNCTION PROPERTIES                                         *
     113              ;*                            0 Parameter,  2 Auto,  0 SOE     *
     114              ;***************************************************************
     115              
     116 00000000       _IPCRtoLFlagAcknowledge:
     117                      .dwcfi  cfa_offset, -2
     118                      .dwcfi  save_reg_to_mem, 26, 0
     119 00000000 FE02          ADDB      SP,#2                 ; [CPU_ARAU] 
     120                      .dwcfi  cfa_offset, -4
     121              $C$DW$16        .dwtag  DW_TAG_variable
     122                      .dwattr $C$DW$16, DW_AT_name("ulFlags")
     123                      .dwattr $C$DW$16, DW_AT_TI_symbol_name("_ulFlags")
     124                      .dwattr $C$DW$16, DW_AT_type(*$C$DW$T$467)
     125                      .dwattr $C$DW$16, DW_AT_location[DW_OP_breg20 -2]
     126              
     127 00000001 1E42          MOVL      *-SP[2],ACC           ; [CPU_ALU] |62| 
     128                      .dwpsn  file "../F2837xD/F2837xD_Ipc_Driver_Util.c",line 63,column 5,is_stmt,isa 0
     129 00000002 761F!         MOVW      DP,#_IpcRegs          ; [CPU_ARAU] 
         00000003 0000 
     130 00000004 9800!         OR        @_IpcRegs,AL          ; [CPU_ALU] |63| 
     131 00000005 9901!         OR        @_IpcRegs+1,AH        ; [CPU_ALU] |63| 
     132                      .dwpsn  file "../F2837xD/F2837xD_Ipc_Driver_Util.c",line 64,column 1,is_stmt,isa 0
     133 00000006 FE82          SUBB      SP,#2                 ; [CPU_ARAU] 
     134                      .dwcfi  cfa_offset, -2
     135              $C$DW$17        .dwtag  DW_TAG_TI_branch
     136                      .dwattr $C$DW$17, DW_AT_low_pc(0x00)
     137                      .dwattr $C$DW$17, DW_AT_TI_return
     138              
     139 00000007 0006          LRETR     ; [CPU_ALU] 
     140                      ; return occurs ; [] 
     141                      .dwattr $C$DW$14, DW_AT_TI_end_file("../F2837xD/F2837xD_Ipc_Driver_Util.c")
     142                      .dwattr $C$DW$14, DW_AT_TI_end_line(0x40)
     143                      .dwattr $C$DW$14, DW_AT_TI_end_column(0x01)
     144                      .dwendentry
     145                      .dwendtag $C$DW$14
     146              
     147 00000008               .sect   ".text"
     148                      .clink
     149                      .global _IPCRtoLFlagBusy
     150              
     151              $C$DW$18        .dwtag  DW_TAG_subprogram
     152                      .dwattr $C$DW$18, DW_AT_name("IPCRtoLFlagBusy")
     153                      .dwattr $C$DW$18, DW_AT_low_pc(_IPCRtoLFlagBusy)
     154                      .dwattr $C$DW$18, DW_AT_high_pc(0x00)
     155                      .dwattr $C$DW$18, DW_AT_TI_symbol_name("_IPCRtoLFlagBusy")
     156                      .dwattr $C$DW$18, DW_AT_external
     157                      .dwattr $C$DW$18, DW_AT_type(*$C$DW$T$19)
     158                      .dwattr $C$DW$18, DW_AT_TI_begin_file("../F2837xD/F2837xD_Ipc_Driver_Util.c")
     159                      .dwattr $C$DW$18, DW_AT_TI_begin_line(0x52)
     160                      .dwattr $C$DW$18, DW_AT_TI_begin_column(0x01)
     161                      .dwattr $C$DW$18, DW_AT_TI_max_frame_size(-6)
     162                      .dwpsn  file "../F2837xD/F2837xD_Ipc_Driver_Util.c",line 83,column 1,is_stmt,address _IPCRtoLFlagBusy
     163              
     164                      .dwfde $C$DW$CIE, _IPCRtoLFlagBusy
TMS320C2000 Assembler PC v18.1.2 Fri Dec 14 17:55:30 2018

Tools Copyright (c) 1996-2017 Texas Instruments Incorporated
F2837xD_Ipc_Driver_Util.asm                                          PAGE    4

     165              $C$DW$19        .dwtag  DW_TAG_formal_parameter
     166                      .dwattr $C$DW$19, DW_AT_name("ulFlags")
     167                      .dwattr $C$DW$19, DW_AT_TI_symbol_name("_ulFlags")
     168                      .dwattr $C$DW$19, DW_AT_type(*$C$DW$T$467)
     169                      .dwattr $C$DW$19, DW_AT_location[DW_OP_reg0]
     170              
     171              
     172              ;***************************************************************
     173              ;* FNAME: _IPCRtoLFlagBusy              FR SIZE:   4           *
     174              ;*                                                             *
     175              ;* FUNCTION ENVIRONMENT                                        *
     176              ;*                                                             *
     177              ;* FUNCTION PROPERTIES                                         *
     178              ;*                            0 Parameter,  3 Auto,  0 SOE     *
     179              ;***************************************************************
     180              
     181 00000008       _IPCRtoLFlagBusy:
     182                      .dwcfi  cfa_offset, -2
     183                      .dwcfi  save_reg_to_mem, 26, 0
     184 00000008 FE04          ADDB      SP,#4                 ; [CPU_ARAU] 
     185                      .dwcfi  cfa_offset, -6
     186              $C$DW$20        .dwtag  DW_TAG_variable
     187                      .dwattr $C$DW$20, DW_AT_name("ulFlags")
     188                      .dwattr $C$DW$20, DW_AT_TI_symbol_name("_ulFlags")
     189                      .dwattr $C$DW$20, DW_AT_type(*$C$DW$T$467)
     190                      .dwattr $C$DW$20, DW_AT_location[DW_OP_breg20 -2]
     191              
     192              $C$DW$21        .dwtag  DW_TAG_variable
     193                      .dwattr $C$DW$21, DW_AT_name("returnStatus")
     194                      .dwattr $C$DW$21, DW_AT_TI_symbol_name("_returnStatus")
     195                      .dwattr $C$DW$21, DW_AT_type(*$C$DW$T$19)
     196                      .dwattr $C$DW$21, DW_AT_location[DW_OP_breg20 -3]
     197              
     198 00000009 1E42          MOVL      *-SP[2],ACC           ; [CPU_ALU] |83| 
     199                      .dwpsn  file "../F2837xD/F2837xD_Ipc_Driver_Util.c",line 86,column 5,is_stmt,isa 0
     200 0000000a 761F!         MOVW      DP,#_IpcRegs+2        ; [CPU_ARAU] 
         0000000b 0000 
     201 0000000c CE02!         AND       AL,@_IpcRegs+2        ; [CPU_ALU] |86| 
     202 0000000d CF03!         AND       AH,@_IpcRegs+3        ; [CPU_ALU] |86| 
     203 0000000e FF58          TEST      ACC                   ; [CPU_ALU] |86| 
     204 0000000f 6003          B         $C$L1,NEQ             ; [CPU_ALU] |86| 
     205                      ; branchcc occurs ; [] |86| 
     206                      .dwpsn  file "../F2837xD/F2837xD_Ipc_Driver_Util.c",line 88,column 9,is_stmt,isa 0
     207 00000010 2B43          MOV       *-SP[3],#0            ; [CPU_ALU] |88| 
     208                      .dwpsn  file "../F2837xD/F2837xD_Ipc_Driver_Util.c",line 89,column 5,is_stmt,isa 0
     209 00000011 6F03          B         $C$L2,UNC             ; [CPU_ALU] |89| 
     210                      ; branch occurs ; [] |89| 
     211 00000012       $C$L1:    
     212                      .dwpsn  file "../F2837xD/F2837xD_Ipc_Driver_Util.c",line 92,column 9,is_stmt,isa 0
     213 00000012 56BF          MOVB      *-SP[3],#1,UNC        ; [CPU_ALU] |92| 
         00000013 0143 
     214 00000014       $C$L2:    
     215                      .dwpsn  file "../F2837xD/F2837xD_Ipc_Driver_Util.c",line 95,column 5,is_stmt,isa 0
     216 00000014 9243          MOV       AL,*-SP[3]            ; [CPU_ALU] |95| 
     217                      .dwpsn  file "../F2837xD/F2837xD_Ipc_Driver_Util.c",line 96,column 1,is_stmt,isa 0
TMS320C2000 Assembler PC v18.1.2 Fri Dec 14 17:55:30 2018

Tools Copyright (c) 1996-2017 Texas Instruments Incorporated
F2837xD_Ipc_Driver_Util.asm                                          PAGE    5

     218 00000015 FE84          SUBB      SP,#4                 ; [CPU_ARAU] 
     219                      .dwcfi  cfa_offset, -2
     220              $C$DW$22        .dwtag  DW_TAG_TI_branch
     221                      .dwattr $C$DW$22, DW_AT_low_pc(0x00)
     222                      .dwattr $C$DW$22, DW_AT_TI_return
     223              
     224 00000016 0006          LRETR     ; [CPU_ALU] 
     225                      ; return occurs ; [] 
     226                      .dwattr $C$DW$18, DW_AT_TI_end_file("../F2837xD/F2837xD_Ipc_Driver_Util.c")
     227                      .dwattr $C$DW$18, DW_AT_TI_end_line(0x60)
     228                      .dwattr $C$DW$18, DW_AT_TI_end_column(0x01)
     229                      .dwendentry
     230                      .dwendtag $C$DW$18
     231              
     232 00000017               .sect   ".text"
     233                      .clink
     234                      .global _IPCLtoRFlagBusy
     235              
     236              $C$DW$23        .dwtag  DW_TAG_subprogram
     237                      .dwattr $C$DW$23, DW_AT_name("IPCLtoRFlagBusy")
     238                      .dwattr $C$DW$23, DW_AT_low_pc(_IPCLtoRFlagBusy)
     239                      .dwattr $C$DW$23, DW_AT_high_pc(0x00)
     240                      .dwattr $C$DW$23, DW_AT_TI_symbol_name("_IPCLtoRFlagBusy")
     241                      .dwattr $C$DW$23, DW_AT_external
     242                      .dwattr $C$DW$23, DW_AT_type(*$C$DW$T$19)
     243                      .dwattr $C$DW$23, DW_AT_TI_begin_file("../F2837xD/F2837xD_Ipc_Driver_Util.c")
     244                      .dwattr $C$DW$23, DW_AT_TI_begin_line(0x74)
     245                      .dwattr $C$DW$23, DW_AT_TI_begin_column(0x01)
     246                      .dwattr $C$DW$23, DW_AT_TI_max_frame_size(-6)
     247                      .dwpsn  file "../F2837xD/F2837xD_Ipc_Driver_Util.c",line 117,column 1,is_stmt,address _IPCLtoRFlagBus
     248              
     249                      .dwfde $C$DW$CIE, _IPCLtoRFlagBusy
     250              $C$DW$24        .dwtag  DW_TAG_formal_parameter
     251                      .dwattr $C$DW$24, DW_AT_name("ulFlags")
     252                      .dwattr $C$DW$24, DW_AT_TI_symbol_name("_ulFlags")
     253                      .dwattr $C$DW$24, DW_AT_type(*$C$DW$T$467)
     254                      .dwattr $C$DW$24, DW_AT_location[DW_OP_reg0]
     255              
     256              
     257              ;***************************************************************
     258              ;* FNAME: _IPCLtoRFlagBusy              FR SIZE:   4           *
     259              ;*                                                             *
     260              ;* FUNCTION ENVIRONMENT                                        *
     261              ;*                                                             *
     262              ;* FUNCTION PROPERTIES                                         *
     263              ;*                            0 Parameter,  3 Auto,  0 SOE     *
     264              ;***************************************************************
     265              
     266 00000017       _IPCLtoRFlagBusy:
     267                      .dwcfi  cfa_offset, -2
     268                      .dwcfi  save_reg_to_mem, 26, 0
     269 00000017 FE04          ADDB      SP,#4                 ; [CPU_ARAU] 
     270                      .dwcfi  cfa_offset, -6
     271              $C$DW$25        .dwtag  DW_TAG_variable
     272                      .dwattr $C$DW$25, DW_AT_name("ulFlags")
TMS320C2000 Assembler PC v18.1.2 Fri Dec 14 17:55:30 2018

Tools Copyright (c) 1996-2017 Texas Instruments Incorporated
F2837xD_Ipc_Driver_Util.asm                                          PAGE    6

     273                      .dwattr $C$DW$25, DW_AT_TI_symbol_name("_ulFlags")
     274                      .dwattr $C$DW$25, DW_AT_type(*$C$DW$T$467)
     275                      .dwattr $C$DW$25, DW_AT_location[DW_OP_breg20 -2]
     276              
     277              $C$DW$26        .dwtag  DW_TAG_variable
     278                      .dwattr $C$DW$26, DW_AT_name("returnStatus")
     279                      .dwattr $C$DW$26, DW_AT_TI_symbol_name("_returnStatus")
     280                      .dwattr $C$DW$26, DW_AT_type(*$C$DW$T$19)
     281                      .dwattr $C$DW$26, DW_AT_location[DW_OP_breg20 -3]
     282              
     283 00000018 1E42          MOVL      *-SP[2],ACC           ; [CPU_ALU] |117| 
     284                      .dwpsn  file "../F2837xD/F2837xD_Ipc_Driver_Util.c",line 120,column 5,is_stmt,isa 0
     285 00000019 761F!         MOVW      DP,#_IpcRegs+8        ; [CPU_ARAU] 
         0000001a 0000 
     286 0000001b CE08!         AND       AL,@_IpcRegs+8        ; [CPU_ALU] |120| 
     287 0000001c CF09!         AND       AH,@_IpcRegs+9        ; [CPU_ALU] |120| 
     288 0000001d FF58          TEST      ACC                   ; [CPU_ALU] |120| 
     289 0000001e 6003          B         $C$L3,NEQ             ; [CPU_ALU] |120| 
     290                      ; branchcc occurs ; [] |120| 
     291                      .dwpsn  file "../F2837xD/F2837xD_Ipc_Driver_Util.c",line 122,column 9,is_stmt,isa 0
     292 0000001f 2B43          MOV       *-SP[3],#0            ; [CPU_ALU] |122| 
     293                      .dwpsn  file "../F2837xD/F2837xD_Ipc_Driver_Util.c",line 123,column 5,is_stmt,isa 0
     294 00000020 6F03          B         $C$L4,UNC             ; [CPU_ALU] |123| 
     295                      ; branch occurs ; [] |123| 
     296 00000021       $C$L3:    
     297                      .dwpsn  file "../F2837xD/F2837xD_Ipc_Driver_Util.c",line 126,column 9,is_stmt,isa 0
     298 00000021 56BF          MOVB      *-SP[3],#1,UNC        ; [CPU_ALU] |126| 
         00000022 0143 
     299 00000023       $C$L4:    
     300                      .dwpsn  file "../F2837xD/F2837xD_Ipc_Driver_Util.c",line 129,column 5,is_stmt,isa 0
     301 00000023 9243          MOV       AL,*-SP[3]            ; [CPU_ALU] |129| 
     302                      .dwpsn  file "../F2837xD/F2837xD_Ipc_Driver_Util.c",line 130,column 1,is_stmt,isa 0
     303 00000024 FE84          SUBB      SP,#4                 ; [CPU_ARAU] 
     304                      .dwcfi  cfa_offset, -2
     305              $C$DW$27        .dwtag  DW_TAG_TI_branch
     306                      .dwattr $C$DW$27, DW_AT_low_pc(0x00)
     307                      .dwattr $C$DW$27, DW_AT_TI_return
     308              
     309 00000025 0006          LRETR     ; [CPU_ALU] 
     310                      ; return occurs ; [] 
     311                      .dwattr $C$DW$23, DW_AT_TI_end_file("../F2837xD/F2837xD_Ipc_Driver_Util.c")
     312                      .dwattr $C$DW$23, DW_AT_TI_end_line(0x82)
     313                      .dwattr $C$DW$23, DW_AT_TI_end_column(0x01)
     314                      .dwendentry
     315                      .dwendtag $C$DW$23
     316              
     317 00000026               .sect   ".text"
     318                      .clink
     319                      .global _IPCLtoRFlagSet
     320              
     321              $C$DW$28        .dwtag  DW_TAG_subprogram
     322                      .dwattr $C$DW$28, DW_AT_name("IPCLtoRFlagSet")
     323                      .dwattr $C$DW$28, DW_AT_low_pc(_IPCLtoRFlagSet)
     324                      .dwattr $C$DW$28, DW_AT_high_pc(0x00)
     325                      .dwattr $C$DW$28, DW_AT_TI_symbol_name("_IPCLtoRFlagSet")
TMS320C2000 Assembler PC v18.1.2 Fri Dec 14 17:55:30 2018

Tools Copyright (c) 1996-2017 Texas Instruments Incorporated
F2837xD_Ipc_Driver_Util.asm                                          PAGE    7

     326                      .dwattr $C$DW$28, DW_AT_external
     327                      .dwattr $C$DW$28, DW_AT_TI_begin_file("../F2837xD/F2837xD_Ipc_Driver_Util.c")
     328                      .dwattr $C$DW$28, DW_AT_TI_begin_line(0x92)
     329                      .dwattr $C$DW$28, DW_AT_TI_begin_column(0x01)
     330                      .dwattr $C$DW$28, DW_AT_TI_max_frame_size(-4)
     331                      .dwpsn  file "../F2837xD/F2837xD_Ipc_Driver_Util.c",line 147,column 1,is_stmt,address _IPCLtoRFlagSet
     332              
     333                      .dwfde $C$DW$CIE, _IPCLtoRFlagSet
     334              $C$DW$29        .dwtag  DW_TAG_formal_parameter
     335                      .dwattr $C$DW$29, DW_AT_name("ulFlags")
     336                      .dwattr $C$DW$29, DW_AT_TI_symbol_name("_ulFlags")
     337                      .dwattr $C$DW$29, DW_AT_type(*$C$DW$T$467)
     338                      .dwattr $C$DW$29, DW_AT_location[DW_OP_reg0]
     339              
     340              
     341              ;***************************************************************
     342              ;* FNAME: _IPCLtoRFlagSet               FR SIZE:   2           *
     343              ;*                                                             *
     344              ;* FUNCTION ENVIRONMENT                                        *
     345              ;*                                                             *
     346              ;* FUNCTION PROPERTIES                                         *
     347              ;*                            0 Parameter,  2 Auto,  0 SOE     *
     348              ;***************************************************************
     349              
     350 00000026       _IPCLtoRFlagSet:
     351                      .dwcfi  cfa_offset, -2
     352                      .dwcfi  save_reg_to_mem, 26, 0
     353 00000026 FE02          ADDB      SP,#2                 ; [CPU_ARAU] 
     354                      .dwcfi  cfa_offset, -4
     355              $C$DW$30        .dwtag  DW_TAG_variable
     356                      .dwattr $C$DW$30, DW_AT_name("ulFlags")
     357                      .dwattr $C$DW$30, DW_AT_TI_symbol_name("_ulFlags")
     358                      .dwattr $C$DW$30, DW_AT_type(*$C$DW$T$467)
     359                      .dwattr $C$DW$30, DW_AT_location[DW_OP_breg20 -2]
     360              
     361 00000027 1E42          MOVL      *-SP[2],ACC           ; [CPU_ALU] |147| 
     362                      .dwpsn  file "../F2837xD/F2837xD_Ipc_Driver_Util.c",line 148,column 5,is_stmt,isa 0
     363 00000028 761F!         MOVW      DP,#_IpcRegs+4        ; [CPU_ARAU] 
         00000029 0000 
     364 0000002a 9804!         OR        @_IpcRegs+4,AL        ; [CPU_ALU] |148| 
     365 0000002b 9905!         OR        @_IpcRegs+5,AH        ; [CPU_ALU] |148| 
     366                      .dwpsn  file "../F2837xD/F2837xD_Ipc_Driver_Util.c",line 149,column 1,is_stmt,isa 0
     367 0000002c FE82          SUBB      SP,#2                 ; [CPU_ARAU] 
     368                      .dwcfi  cfa_offset, -2
     369              $C$DW$31        .dwtag  DW_TAG_TI_branch
     370                      .dwattr $C$DW$31, DW_AT_low_pc(0x00)
     371                      .dwattr $C$DW$31, DW_AT_TI_return
     372              
     373 0000002d 0006          LRETR     ; [CPU_ALU] 
     374                      ; return occurs ; [] 
     375                      .dwattr $C$DW$28, DW_AT_TI_end_file("../F2837xD/F2837xD_Ipc_Driver_Util.c")
     376                      .dwattr $C$DW$28, DW_AT_TI_end_line(0x95)
     377                      .dwattr $C$DW$28, DW_AT_TI_end_column(0x01)
     378                      .dwendentry
     379                      .dwendtag $C$DW$28
TMS320C2000 Assembler PC v18.1.2 Fri Dec 14 17:55:30 2018

Tools Copyright (c) 1996-2017 Texas Instruments Incorporated
F2837xD_Ipc_Driver_Util.asm                                          PAGE    8

     380              
     381 0000002e               .sect   ".text"
     382                      .clink
     383                      .global _IPCLtoRFlagClear
     384              
     385              $C$DW$32        .dwtag  DW_TAG_subprogram
     386                      .dwattr $C$DW$32, DW_AT_name("IPCLtoRFlagClear")
     387                      .dwattr $C$DW$32, DW_AT_low_pc(_IPCLtoRFlagClear)
     388                      .dwattr $C$DW$32, DW_AT_high_pc(0x00)
     389                      .dwattr $C$DW$32, DW_AT_TI_symbol_name("_IPCLtoRFlagClear")
     390                      .dwattr $C$DW$32, DW_AT_external
     391                      .dwattr $C$DW$32, DW_AT_TI_begin_file("../F2837xD/F2837xD_Ipc_Driver_Util.c")
     392                      .dwattr $C$DW$32, DW_AT_TI_begin_line(0xa5)
     393                      .dwattr $C$DW$32, DW_AT_TI_begin_column(0x01)
     394                      .dwattr $C$DW$32, DW_AT_TI_max_frame_size(-4)
     395                      .dwpsn  file "../F2837xD/F2837xD_Ipc_Driver_Util.c",line 166,column 1,is_stmt,address _IPCLtoRFlagCle
     396              
     397                      .dwfde $C$DW$CIE, _IPCLtoRFlagClear
     398              $C$DW$33        .dwtag  DW_TAG_formal_parameter
     399                      .dwattr $C$DW$33, DW_AT_name("ulFlags")
     400                      .dwattr $C$DW$33, DW_AT_TI_symbol_name("_ulFlags")
     401                      .dwattr $C$DW$33, DW_AT_type(*$C$DW$T$467)
     402                      .dwattr $C$DW$33, DW_AT_location[DW_OP_reg0]
     403              
     404              
     405              ;***************************************************************
     406              ;* FNAME: _IPCLtoRFlagClear             FR SIZE:   2           *
     407              ;*                                                             *
     408              ;* FUNCTION ENVIRONMENT                                        *
     409              ;*                                                             *
     410              ;* FUNCTION PROPERTIES                                         *
     411              ;*                            0 Parameter,  2 Auto,  0 SOE     *
     412              ;***************************************************************
     413              
     414 0000002e       _IPCLtoRFlagClear:
     415                      .dwcfi  cfa_offset, -2
     416                      .dwcfi  save_reg_to_mem, 26, 0
     417 0000002e FE02          ADDB      SP,#2                 ; [CPU_ARAU] 
     418                      .dwcfi  cfa_offset, -4
     419              $C$DW$34        .dwtag  DW_TAG_variable
     420                      .dwattr $C$DW$34, DW_AT_name("ulFlags")
     421                      .dwattr $C$DW$34, DW_AT_TI_symbol_name("_ulFlags")
     422                      .dwattr $C$DW$34, DW_AT_type(*$C$DW$T$467)
     423                      .dwattr $C$DW$34, DW_AT_location[DW_OP_breg20 -2]
     424              
     425 0000002f 1E42          MOVL      *-SP[2],ACC           ; [CPU_ALU] |166| 
     426                      .dwpsn  file "../F2837xD/F2837xD_Ipc_Driver_Util.c",line 167,column 5,is_stmt,isa 0
     427 00000030 761F!         MOVW      DP,#_IpcRegs+6        ; [CPU_ARAU] 
         00000031 0000 
     428 00000032 9806!         OR        @_IpcRegs+6,AL        ; [CPU_ALU] |167| 
     429 00000033 9907!         OR        @_IpcRegs+7,AH        ; [CPU_ALU] |167| 
     430                      .dwpsn  file "../F2837xD/F2837xD_Ipc_Driver_Util.c",line 168,column 1,is_stmt,isa 0
     431 00000034 FE82          SUBB      SP,#2                 ; [CPU_ARAU] 
     432                      .dwcfi  cfa_offset, -2
     433              $C$DW$35        .dwtag  DW_TAG_TI_branch
TMS320C2000 Assembler PC v18.1.2 Fri Dec 14 17:55:30 2018

Tools Copyright (c) 1996-2017 Texas Instruments Incorporated
F2837xD_Ipc_Driver_Util.asm                                          PAGE    9

     434                      .dwattr $C$DW$35, DW_AT_low_pc(0x00)
     435                      .dwattr $C$DW$35, DW_AT_TI_return
     436              
     437 00000035 0006          LRETR     ; [CPU_ALU] 
     438                      ; return occurs ; [] 
     439                      .dwattr $C$DW$32, DW_AT_TI_end_file("../F2837xD/F2837xD_Ipc_Driver_Util.c")
     440                      .dwattr $C$DW$32, DW_AT_TI_end_line(0xa8)
     441                      .dwattr $C$DW$32, DW_AT_TI_end_column(0x01)
     442                      .dwendentry
     443                      .dwendtag $C$DW$32
     444              
     445 00000036               .sect   ".text"
     446                      .clink
     447                      .global _IPCGetBootStatus
     448              
     449              $C$DW$36        .dwtag  DW_TAG_subprogram
     450                      .dwattr $C$DW$36, DW_AT_name("IPCGetBootStatus")
     451                      .dwattr $C$DW$36, DW_AT_low_pc(_IPCGetBootStatus)
     452                      .dwattr $C$DW$36, DW_AT_high_pc(0x00)
     453                      .dwattr $C$DW$36, DW_AT_TI_symbol_name("_IPCGetBootStatus")
     454                      .dwattr $C$DW$36, DW_AT_external
     455                      .dwattr $C$DW$36, DW_AT_type(*$C$DW$T$467)
     456                      .dwattr $C$DW$36, DW_AT_TI_begin_file("../F2837xD/F2837xD_Ipc_Driver_Util.c")
     457                      .dwattr $C$DW$36, DW_AT_TI_begin_line(0xb4)
     458                      .dwattr $C$DW$36, DW_AT_TI_begin_column(0x01)
     459                      .dwattr $C$DW$36, DW_AT_TI_max_frame_size(-2)
     460                      .dwpsn  file "../F2837xD/F2837xD_Ipc_Driver_Util.c",line 181,column 1,is_stmt,address _IPCGetBootStat
     461              
     462                      .dwfde $C$DW$CIE, _IPCGetBootStatus
     463              
     464              ;***************************************************************
     465              ;* FNAME: _IPCGetBootStatus             FR SIZE:   0           *
     466              ;*                                                             *
     467              ;* FUNCTION ENVIRONMENT                                        *
     468              ;*                                                             *
     469              ;* FUNCTION PROPERTIES                                         *
     470              ;*                            0 Parameter,  0 Auto,  0 SOE     *
     471              ;***************************************************************
     472              
     473 00000036       _IPCGetBootStatus:
     474                      .dwcfi  cfa_offset, -2
     475                      .dwcfi  save_reg_to_mem, 26, 0
     476                      .dwpsn  file "../F2837xD/F2837xD_Ipc_Driver_Util.c",line 182,column 4,is_stmt,isa 0
     477 00000036 761F!         MOVW      DP,#_IpcRegs+32       ; [CPU_ARAU] 
         00000037 0000 
     478 00000038 0620!         MOVL      ACC,@_IpcRegs+32      ; [CPU_ALU] |182| 
     479                      .dwpsn  file "../F2837xD/F2837xD_Ipc_Driver_Util.c",line 183,column 1,is_stmt,isa 0
     480              $C$DW$37        .dwtag  DW_TAG_TI_branch
     481                      .dwattr $C$DW$37, DW_AT_low_pc(0x00)
     482                      .dwattr $C$DW$37, DW_AT_TI_return
     483              
     484 00000039 0006          LRETR     ; [CPU_ALU] 
     485                      ; return occurs ; [] 
     486                      .dwattr $C$DW$36, DW_AT_TI_end_file("../F2837xD/F2837xD_Ipc_Driver_Util.c")
     487                      .dwattr $C$DW$36, DW_AT_TI_end_line(0xb7)
TMS320C2000 Assembler PC v18.1.2 Fri Dec 14 17:55:30 2018

Tools Copyright (c) 1996-2017 Texas Instruments Incorporated
F2837xD_Ipc_Driver_Util.asm                                          PAGE   10

     488                      .dwattr $C$DW$36, DW_AT_TI_end_column(0x01)
     489                      .dwendentry
     490                      .dwendtag $C$DW$36
     491              
     492 0000003a               .sect   ".text"
     493                      .clink
     494                      .global _IPCBootCPU2
     495              
     496              $C$DW$38        .dwtag  DW_TAG_subprogram
     497                      .dwattr $C$DW$38, DW_AT_name("IPCBootCPU2")
     498                      .dwattr $C$DW$38, DW_AT_low_pc(_IPCBootCPU2)
     499                      .dwattr $C$DW$38, DW_AT_high_pc(0x00)
     500                      .dwattr $C$DW$38, DW_AT_TI_symbol_name("_IPCBootCPU2")
     501                      .dwattr $C$DW$38, DW_AT_external
     502                      .dwattr $C$DW$38, DW_AT_type(*$C$DW$T$472)
     503                      .dwattr $C$DW$38, DW_AT_TI_begin_file("../F2837xD/F2837xD_Ipc_Driver_Util.c")
     504                      .dwattr $C$DW$38, DW_AT_TI_begin_line(0xd3)
     505                      .dwattr $C$DW$38, DW_AT_TI_begin_column(0x01)
     506                      .dwattr $C$DW$38, DW_AT_TI_max_frame_size(-8)
     507                      .dwpsn  file "../F2837xD/F2837xD_Ipc_Driver_Util.c",line 212,column 1,is_stmt,address _IPCBootCPU2,is
     508              
     509                      .dwfde $C$DW$CIE, _IPCBootCPU2
     510              $C$DW$39        .dwtag  DW_TAG_formal_parameter
     511                      .dwattr $C$DW$39, DW_AT_name("ulBootMode")
     512                      .dwattr $C$DW$39, DW_AT_TI_symbol_name("_ulBootMode")
     513                      .dwattr $C$DW$39, DW_AT_type(*$C$DW$T$467)
     514                      .dwattr $C$DW$39, DW_AT_location[DW_OP_reg0]
     515              
     516              
     517              ;***************************************************************
     518              ;* FNAME: _IPCBootCPU2                  FR SIZE:   6           *
     519              ;*                                                             *
     520              ;* FUNCTION ENVIRONMENT                                        *
     521              ;*                                                             *
     522              ;* FUNCTION PROPERTIES                                         *
     523              ;*                            0 Parameter,  6 Auto,  0 SOE     *
     524              ;***************************************************************
     525              
     526 0000003a       _IPCBootCPU2:
     527                      .dwcfi  cfa_offset, -2
     528                      .dwcfi  save_reg_to_mem, 26, 0
     529 0000003a FE06          ADDB      SP,#6                 ; [CPU_ARAU] 
     530                      .dwcfi  cfa_offset, -8
     531              $C$DW$40        .dwtag  DW_TAG_variable
     532                      .dwattr $C$DW$40, DW_AT_name("ulBootMode")
     533                      .dwattr $C$DW$40, DW_AT_TI_symbol_name("_ulBootMode")
     534                      .dwattr $C$DW$40, DW_AT_type(*$C$DW$T$467)
     535                      .dwattr $C$DW$40, DW_AT_location[DW_OP_breg20 -2]
     536              
     537              $C$DW$41        .dwtag  DW_TAG_variable
     538                      .dwattr $C$DW$41, DW_AT_name("bootStatus")
     539                      .dwattr $C$DW$41, DW_AT_TI_symbol_name("_bootStatus")
     540                      .dwattr $C$DW$41, DW_AT_type(*$C$DW$T$467)
     541                      .dwattr $C$DW$41, DW_AT_location[DW_OP_breg20 -4]
     542              
TMS320C2000 Assembler PC v18.1.2 Fri Dec 14 17:55:30 2018

Tools Copyright (c) 1996-2017 Texas Instruments Incorporated
F2837xD_Ipc_Driver_Util.asm                                          PAGE   11

     543              $C$DW$42        .dwtag  DW_TAG_variable
     544                      .dwattr $C$DW$42, DW_AT_name("pin")
     545                      .dwattr $C$DW$42, DW_AT_TI_symbol_name("_pin")
     546                      .dwattr $C$DW$42, DW_AT_type(*$C$DW$T$472)
     547                      .dwattr $C$DW$42, DW_AT_location[DW_OP_breg20 -5]
     548              
     549              $C$DW$43        .dwtag  DW_TAG_variable
     550                      .dwattr $C$DW$43, DW_AT_name("returnStatus")
     551                      .dwattr $C$DW$43, DW_AT_TI_symbol_name("_returnStatus")
     552                      .dwattr $C$DW$43, DW_AT_type(*$C$DW$T$472)
     553                      .dwattr $C$DW$43, DW_AT_location[DW_OP_breg20 -6]
     554              
     555 0000003b 1E42          MOVL      *-SP[2],ACC           ; [CPU_ALU] |212| 
     556                      .dwpsn  file "../F2837xD/F2837xD_Ipc_Driver_Util.c",line 215,column 27,is_stmt,isa 0
     557 0000003c 2B46          MOV       *-SP[6],#0            ; [CPU_ALU] |215| 
     558                      .dwpsn  file "../F2837xD/F2837xD_Ipc_Driver_Util.c",line 221,column 5,is_stmt,isa 0
     559              $C$DW$44        .dwtag  DW_TAG_TI_branch
     560                      .dwattr $C$DW$44, DW_AT_low_pc(0x00)
     561                      .dwattr $C$DW$44, DW_AT_name("_IPCGetBootStatus")
     562                      .dwattr $C$DW$44, DW_AT_TI_call
     563              
     564 0000003d 7640'         LCR       #_IPCGetBootStatus    ; [CPU_ALU] |221| 
         0000003e 0036 
     565                      ; call occurs [#_IPCGetBootStatus] ; [] |221| 
     566 0000003f 9B00          MOVB      AH,#0                 ; [CPU_ALU] |221| 
     567 00000040 900F          ANDB      AL,#0x0f              ; [CPU_ALU] |221| 
     568 00000041 1E44          MOVL      *-SP[4],ACC           ; [CPU_ALU] |221| 
     569                      .dwpsn  file "../F2837xD/F2837xD_Ipc_Driver_Util.c",line 223,column 5,is_stmt,isa 0
     570 00000042 0203          MOVB      ACC,#3                ; [CPU_ALU] |223| 
     571 00000043 0F44          CMPL      ACC,*-SP[4]           ; [CPU_ALU] |223| 
     572 00000044 6006          B         $C$L5,NEQ             ; [CPU_ALU] |223| 
     573                      ; branchcc occurs ; [] |223| 
     574                      .dwpsn  file "../F2837xD/F2837xD_Ipc_Driver_Util.c",line 225,column 9,is_stmt,isa 0
     575 00000045 56BF          MOVB      *-SP[6],#1,UNC        ; [CPU_ALU] |225| 
         00000046 0146 
     576                      .dwpsn  file "../F2837xD/F2837xD_Ipc_Driver_Util.c",line 227,column 9,is_stmt,isa 0
     577 00000047 9246          MOV       AL,*-SP[6]            ; [CPU_ALU] |227| 
     578 00000048 FFEF          B         $C$L18,UNC            ; [CPU_ALU] |227| 
         00000049 011B 
     579                      ; branch occurs ; [] |227| 
     580 0000004a       $C$L5:    
     581                      .dwpsn  file "../F2837xD/F2837xD_Ipc_Driver_Util.c",line 236,column 9,is_stmt,isa 0
     582              $C$DW$45        .dwtag  DW_TAG_TI_branch
     583                      .dwattr $C$DW$45, DW_AT_low_pc(0x00)
     584                      .dwattr $C$DW$45, DW_AT_name("_IPCGetBootStatus")
     585                      .dwattr $C$DW$45, DW_AT_TI_call
     586              
     587 0000004a 7640'         LCR       #_IPCGetBootStatus    ; [CPU_ALU] |236| 
         0000004b 0036 
     588                      ; call occurs [#_IPCGetBootStatus] ; [] |236| 
     589 0000004c 9B00          MOVB      AH,#0                 ; [CPU_ALU] |236| 
     590 0000004d 900F          ANDB      AL,#0x0f              ; [CPU_ALU] |236| 
     591 0000004e 1E44          MOVL      *-SP[4],ACC           ; [CPU_ALU] |236| 
     592                      .dwpsn  file "../F2837xD/F2837xD_Ipc_Driver_Util.c",line 237,column 15,is_stmt,isa 0
     593 0000004f 0202          MOVB      ACC,#2                ; [CPU_ALU] |237| 
TMS320C2000 Assembler PC v18.1.2 Fri Dec 14 17:55:30 2018

Tools Copyright (c) 1996-2017 Texas Instruments Incorporated
F2837xD_Ipc_Driver_Util.asm                                          PAGE   12

     594 00000050 0F44          CMPL      ACC,*-SP[4]           ; [CPU_ALU] |237| 
     595 00000051 60F9          B         $C$L5,NEQ             ; [CPU_ALU] |237| 
     596                      ; branchcc occurs ; [] |237| 
     597                      .dwpsn  file "../F2837xD/F2837xD_Ipc_Driver_Util.c",line 242,column 5,is_stmt,isa 0
     598 00000052       $C$L6:    
     599                      .dwpsn  file "../F2837xD/F2837xD_Ipc_Driver_Util.c",line 242,column 12,is_stmt,isa 0
     600 00000052 0201          MOVB      ACC,#1                ; [CPU_ALU] |242| 
     601              $C$DW$46        .dwtag  DW_TAG_TI_branch
     602                      .dwattr $C$DW$46, DW_AT_low_pc(0x00)
     603                      .dwattr $C$DW$46, DW_AT_name("_IPCLtoRFlagBusy")
     604                      .dwattr $C$DW$46, DW_AT_TI_call
     605              
     606 00000053 7640'         LCR       #_IPCLtoRFlagBusy     ; [CPU_ALU] |242| 
         00000054 0017 
     607                      ; call occurs [#_IPCLtoRFlagBusy] ; [] |242| 
     608 00000055 5201          CMPB      AL,#1                 ; [CPU_ALU] |242| 
     609 00000056 61FC          B         $C$L6,EQ              ; [CPU_ALU] |242| 
     610                      ; branchcc occurs ; [] |242| 
     611 00000057 9A00          MOVB      AL,#0                 ; [CPU_ALU] |242| 
     612 00000058 28A8          MOV       AH,#32768             ; [CPU_ALU] |242| 
         00000059 8000 
     613              $C$DW$47        .dwtag  DW_TAG_TI_branch
     614                      .dwattr $C$DW$47, DW_AT_low_pc(0x00)
     615                      .dwattr $C$DW$47, DW_AT_name("_IPCLtoRFlagBusy")
     616                      .dwattr $C$DW$47, DW_AT_TI_call
     617              
     618 0000005a 7640'         LCR       #_IPCLtoRFlagBusy     ; [CPU_ALU] |242| 
         0000005b 0017 
     619                      ; call occurs [#_IPCLtoRFlagBusy] ; [] |242| 
     620 0000005c 5201          CMPB      AL,#1                 ; [CPU_ALU] |242| 
     621 0000005d 61F5          B         $C$L6,EQ              ; [CPU_ALU] |242| 
     622                      ; branchcc occurs ; [] |242| 
     623                      .dwpsn  file "../F2837xD/F2837xD_Ipc_Driver_Util.c",line 248,column 5,is_stmt,isa 0
     624 0000005e 020C          MOVB      ACC,#12               ; [CPU_ALU] |248| 
     625 0000005f 0F42          CMPL      ACC,*-SP[2]           ; [CPU_ALU] |248| 
     626 00000060 FFE6          B         $C$L14,HI             ; [CPU_ALU] |248| 
         00000061 00E3 
     627                      ; branchcc occurs ; [] |248| 
     628                      .dwpsn  file "../F2837xD/F2837xD_Ipc_Driver_Util.c",line 250,column 9,is_stmt,isa 0
     629 00000062 56BF          MOVB      *-SP[6],#1,UNC        ; [CPU_ALU] |250| 
         00000063 0146 
     630                      .dwpsn  file "../F2837xD/F2837xD_Ipc_Driver_Util.c",line 251,column 5,is_stmt,isa 0
     631 00000064 FFEF          B         $C$L17,UNC            ; [CPU_ALU] |251| 
         00000065 00FE 
     632                      ; branch occurs ; [] |251| 
     633 00000066       $C$L7:    
     634                      .dwpsn  file "../F2837xD/F2837xD_Ipc_Driver_Util.c",line 262,column 18,is_stmt,isa 0
     635 00000066 7622   EALLOW
     636                      .dwpsn  file "../F2837xD/F2837xD_Ipc_Driver_Util.c",line 267,column 18,is_stmt,isa 0
     637 00000067 761F!         MOVW      DP,#_DevCfgRegs+224   ; [CPU_ARAU] 
         00000068 0003 
     638 00000069 1A20!         OR        @_DevCfgRegs+224,#0x0001 ; [CPU_ALU] |267| 
         0000006a 0001 
     639                      .dwpsn  file "../F2837xD/F2837xD_Ipc_Driver_Util.c",line 273,column 18,is_stmt,isa 0
     640 0000006b 9A00          MOVB      AL,#0                 ; [CPU_ALU] |273| 
TMS320C2000 Assembler PC v18.1.2 Fri Dec 14 17:55:30 2018

Tools Copyright (c) 1996-2017 Texas Instruments Incorporated
F2837xD_Ipc_Driver_Util.asm                                          PAGE   13

     641 0000006c 28A8          MOV       AH,#42405             ; [CPU_ALU] |273| 
         0000006d A5A5 
     642 0000006e 761F!         MOVW      DP,#_ClkCfgRegs       ; [CPU_ARAU] 
         0000006f 0000 
     643 00000070 1E00!         MOVL      @_ClkCfgRegs,ACC      ; [CPU_ALU] |273| 
     644                      .dwpsn  file "../F2837xD/F2837xD_Ipc_Driver_Util.c",line 275,column 18,is_stmt,isa 0
     645 00000071 0202          MOVB      ACC,#2                ; [CPU_ALU] |275| 
     646 00000072 1E2C!         MOVL      @_ClkCfgRegs+44,ACC   ; [CPU_ALU] |275| 
     647                      .dwpsn  file "../F2837xD/F2837xD_Ipc_Driver_Util.c",line 276,column 18,is_stmt,isa 0
     648 00000073 761A   EDIS
     649                      .dwpsn  file "../F2837xD/F2837xD_Ipc_Driver_Util.c",line 278,column 18,is_stmt,isa 0
     650 00000074 D430          MOVB      XAR4,#48              ; [CPU_ALU] |278| 
     651 00000075 FF69          SPM       #0                    ; [CPU_ALU] 
     652 00000076 9A1D          MOVB      AL,#29                ; [CPU_ALU] |278| 
     653 00000077 9B01          MOVB      AH,#1                 ; [CPU_ALU] |278| 
     654              $C$DW$48        .dwtag  DW_TAG_TI_branch
     655                      .dwattr $C$DW$48, DW_AT_low_pc(0x00)
     656                      .dwattr $C$DW$48, DW_AT_name("_GPIO_SetupPinOptions")
     657                      .dwattr $C$DW$48, DW_AT_TI_call
     658              
     659 00000078 7640!         LCR       #_GPIO_SetupPinOptions ; [CPU_ALU] |278| 
         00000079 0000 
     660                      ; call occurs [#_GPIO_SetupPinOptions] ; [] |278| 
     661                      .dwpsn  file "../F2837xD/F2837xD_Ipc_Driver_Util.c",line 279,column 18,is_stmt,isa 0
     662 0000007a 9A1D          MOVB      AL,#29                ; [CPU_ALU] |279| 
     663 0000007b D401          MOVB      XAR4,#1               ; [CPU_ALU] |279| 
     664 0000007c 9B02          MOVB      AH,#2                 ; [CPU_ALU] |279| 
     665              $C$DW$49        .dwtag  DW_TAG_TI_branch
     666                      .dwattr $C$DW$49, DW_AT_low_pc(0x00)
     667                      .dwattr $C$DW$49, DW_AT_name("_GPIO_SetupPinMux")
     668                      .dwattr $C$DW$49, DW_AT_TI_call
     669              
     670 0000007d 7640!         LCR       #_GPIO_SetupPinMux    ; [CPU_ALU] |279| 
         0000007e 0000 
     671                      ; call occurs [#_GPIO_SetupPinMux] ; [] |279| 
     672                      .dwpsn  file "../F2837xD/F2837xD_Ipc_Driver_Util.c",line 281,column 18,is_stmt,isa 0
     673 0000007f 9A1C          MOVB      AL,#28                ; [CPU_ALU] |281| 
     674 00000080 D430          MOVB      XAR4,#48              ; [CPU_ALU] |281| 
     675 00000081 9B00          MOVB      AH,#0                 ; [CPU_ALU] |281| 
     676              $C$DW$50        .dwtag  DW_TAG_TI_branch
     677                      .dwattr $C$DW$50, DW_AT_low_pc(0x00)
     678                      .dwattr $C$DW$50, DW_AT_name("_GPIO_SetupPinOptions")
     679                      .dwattr $C$DW$50, DW_AT_TI_call
     680              
     681 00000082 7640!         LCR       #_GPIO_SetupPinOptions ; [CPU_ALU] |281| 
         00000083 0000 
     682                      ; call occurs [#_GPIO_SetupPinOptions] ; [] |281| 
     683                      .dwpsn  file "../F2837xD/F2837xD_Ipc_Driver_Util.c",line 282,column 18,is_stmt,isa 0
     684 00000084 9A1C          MOVB      AL,#28                ; [CPU_ALU] |282| 
     685 00000085 D401          MOVB      XAR4,#1               ; [CPU_ALU] |282| 
     686 00000086 9B02          MOVB      AH,#2                 ; [CPU_ALU] |282| 
     687              $C$DW$51        .dwtag  DW_TAG_TI_branch
     688                      .dwattr $C$DW$51, DW_AT_low_pc(0x00)
     689                      .dwattr $C$DW$51, DW_AT_name("_GPIO_SetupPinMux")
     690                      .dwattr $C$DW$51, DW_AT_TI_call
TMS320C2000 Assembler PC v18.1.2 Fri Dec 14 17:55:30 2018

Tools Copyright (c) 1996-2017 Texas Instruments Incorporated
F2837xD_Ipc_Driver_Util.asm                                          PAGE   14

     691              
     692 00000087 7640!         LCR       #_GPIO_SetupPinMux    ; [CPU_ALU] |282| 
         00000088 0000 
     693                      ; call occurs [#_GPIO_SetupPinMux] ; [] |282| 
     694                      .dwpsn  file "../F2837xD/F2837xD_Ipc_Driver_Util.c",line 284,column 17,is_stmt,isa 0
     695 00000089 FFEF          B         $C$L16,UNC            ; [CPU_ALU] |284| 
         0000008a 00CF 
     696                      ; branch occurs ; [] |284| 
     697 0000008b       $C$L8:    
     698                      .dwpsn  file "../F2837xD/F2837xD_Ipc_Driver_Util.c",line 287,column 18,is_stmt,isa 0
     699 0000008b 7622   EALLOW
     700                      .dwpsn  file "../F2837xD/F2837xD_Ipc_Driver_Util.c",line 292,column 18,is_stmt,isa 0
     701 0000008c 761F!         MOVW      DP,#_DevCfgRegs+226   ; [CPU_ARAU] 
         0000008d 0003 
     702 0000008e 1A22!         OR        @_DevCfgRegs+226,#0x0001 ; [CPU_ALU] |292| 
         0000008f 0001 
     703                      .dwpsn  file "../F2837xD/F2837xD_Ipc_Driver_Util.c",line 298,column 18,is_stmt,isa 0
     704 00000090 9A00          MOVB      AL,#0                 ; [CPU_ALU] |298| 
     705 00000091 28A8          MOV       AH,#42405             ; [CPU_ALU] |298| 
         00000092 A5A5 
     706 00000093 761F!         MOVW      DP,#_ClkCfgRegs       ; [CPU_ARAU] 
         00000094 0000 
     707 00000095 1E00!         MOVL      @_ClkCfgRegs,ACC      ; [CPU_ALU] |298| 
     708                      .dwpsn  file "../F2837xD/F2837xD_Ipc_Driver_Util.c",line 299,column 18,is_stmt,isa 0
     709 00000096 761A   EDIS
     710                      .dwpsn  file "../F2837xD/F2837xD_Ipc_Driver_Util.c",line 301,column 18,is_stmt,isa 0
     711 00000097 D430          MOVB      XAR4,#48              ; [CPU_ALU] |301| 
     712 00000098 FF69          SPM       #0                    ; [CPU_ALU] 
     713 00000099 9A10          MOVB      AL,#16                ; [CPU_ALU] |301| 
     714 0000009a 9B00          MOVB      AH,#0                 ; [CPU_ALU] |301| 
     715              $C$DW$52        .dwtag  DW_TAG_TI_branch
     716                      .dwattr $C$DW$52, DW_AT_low_pc(0x00)
     717                      .dwattr $C$DW$52, DW_AT_name("_GPIO_SetupPinOptions")
     718                      .dwattr $C$DW$52, DW_AT_TI_call
     719              
     720 0000009b 7640!         LCR       #_GPIO_SetupPinOptions ; [CPU_ALU] |301| 
         0000009c 0000 
     721                      ; call occurs [#_GPIO_SetupPinOptions] ; [] |301| 
     722                      .dwpsn  file "../F2837xD/F2837xD_Ipc_Driver_Util.c",line 302,column 18,is_stmt,isa 0
     723 0000009d 9A10          MOVB      AL,#16                ; [CPU_ALU] |302| 
     724 0000009e D401          MOVB      XAR4,#1               ; [CPU_ALU] |302| 
     725 0000009f 9B02          MOVB      AH,#2                 ; [CPU_ALU] |302| 
     726              $C$DW$53        .dwtag  DW_TAG_TI_branch
     727                      .dwattr $C$DW$53, DW_AT_low_pc(0x00)
     728                      .dwattr $C$DW$53, DW_AT_name("_GPIO_SetupPinMux")
     729                      .dwattr $C$DW$53, DW_AT_TI_call
     730              
     731 000000a0 7640!         LCR       #_GPIO_SetupPinMux    ; [CPU_ALU] |302| 
         000000a1 0000 
     732                      ; call occurs [#_GPIO_SetupPinMux] ; [] |302| 
     733                      .dwpsn  file "../F2837xD/F2837xD_Ipc_Driver_Util.c",line 304,column 18,is_stmt,isa 0
     734 000000a2 9A11          MOVB      AL,#17                ; [CPU_ALU] |304| 
     735 000000a3 D430          MOVB      XAR4,#48              ; [CPU_ALU] |304| 
     736 000000a4 9B00          MOVB      AH,#0                 ; [CPU_ALU] |304| 
     737              $C$DW$54        .dwtag  DW_TAG_TI_branch
TMS320C2000 Assembler PC v18.1.2 Fri Dec 14 17:55:30 2018

Tools Copyright (c) 1996-2017 Texas Instruments Incorporated
F2837xD_Ipc_Driver_Util.asm                                          PAGE   15

     738                      .dwattr $C$DW$54, DW_AT_low_pc(0x00)
     739                      .dwattr $C$DW$54, DW_AT_name("_GPIO_SetupPinOptions")
     740                      .dwattr $C$DW$54, DW_AT_TI_call
     741              
     742 000000a5 7640!         LCR       #_GPIO_SetupPinOptions ; [CPU_ALU] |304| 
         000000a6 0000 
     743                      ; call occurs [#_GPIO_SetupPinOptions] ; [] |304| 
     744                      .dwpsn  file "../F2837xD/F2837xD_Ipc_Driver_Util.c",line 305,column 18,is_stmt,isa 0
     745 000000a7 9A11          MOVB      AL,#17                ; [CPU_ALU] |305| 
     746 000000a8 D401          MOVB      XAR4,#1               ; [CPU_ALU] |305| 
     747 000000a9 9B02          MOVB      AH,#2                 ; [CPU_ALU] |305| 
     748              $C$DW$55        .dwtag  DW_TAG_TI_branch
     749                      .dwattr $C$DW$55, DW_AT_low_pc(0x00)
     750                      .dwattr $C$DW$55, DW_AT_name("_GPIO_SetupPinMux")
     751                      .dwattr $C$DW$55, DW_AT_TI_call
     752              
     753 000000aa 7640!         LCR       #_GPIO_SetupPinMux    ; [CPU_ALU] |305| 
         000000ab 0000 
     754                      ; call occurs [#_GPIO_SetupPinMux] ; [] |305| 
     755                      .dwpsn  file "../F2837xD/F2837xD_Ipc_Driver_Util.c",line 307,column 18,is_stmt,isa 0
     756 000000ac 9A12          MOVB      AL,#18                ; [CPU_ALU] |307| 
     757 000000ad D430          MOVB      XAR4,#48              ; [CPU_ALU] |307| 
     758 000000ae 9B00          MOVB      AH,#0                 ; [CPU_ALU] |307| 
     759              $C$DW$56        .dwtag  DW_TAG_TI_branch
     760                      .dwattr $C$DW$56, DW_AT_low_pc(0x00)
     761                      .dwattr $C$DW$56, DW_AT_name("_GPIO_SetupPinOptions")
     762                      .dwattr $C$DW$56, DW_AT_TI_call
     763              
     764 000000af 7640!         LCR       #_GPIO_SetupPinOptions ; [CPU_ALU] |307| 
         000000b0 0000 
     765                      ; call occurs [#_GPIO_SetupPinOptions] ; [] |307| 
     766                      .dwpsn  file "../F2837xD/F2837xD_Ipc_Driver_Util.c",line 308,column 18,is_stmt,isa 0
     767 000000b1 9A12          MOVB      AL,#18                ; [CPU_ALU] |308| 
     768 000000b2 D401          MOVB      XAR4,#1               ; [CPU_ALU] |308| 
     769 000000b3 9B02          MOVB      AH,#2                 ; [CPU_ALU] |308| 
     770              $C$DW$57        .dwtag  DW_TAG_TI_branch
     771                      .dwattr $C$DW$57, DW_AT_low_pc(0x00)
     772                      .dwattr $C$DW$57, DW_AT_name("_GPIO_SetupPinMux")
     773                      .dwattr $C$DW$57, DW_AT_TI_call
     774              
     775 000000b4 7640!         LCR       #_GPIO_SetupPinMux    ; [CPU_ALU] |308| 
         000000b5 0000 
     776                      ; call occurs [#_GPIO_SetupPinMux] ; [] |308| 
     777                      .dwpsn  file "../F2837xD/F2837xD_Ipc_Driver_Util.c",line 310,column 18,is_stmt,isa 0
     778 000000b6 9A13          MOVB      AL,#19                ; [CPU_ALU] |310| 
     779 000000b7 D430          MOVB      XAR4,#48              ; [CPU_ALU] |310| 
     780 000000b8 9B01          MOVB      AH,#1                 ; [CPU_ALU] |310| 
     781              $C$DW$58        .dwtag  DW_TAG_TI_branch
     782                      .dwattr $C$DW$58, DW_AT_low_pc(0x00)
     783                      .dwattr $C$DW$58, DW_AT_name("_GPIO_SetupPinOptions")
     784                      .dwattr $C$DW$58, DW_AT_TI_call
     785              
     786 000000b9 7640!         LCR       #_GPIO_SetupPinOptions ; [CPU_ALU] |310| 
         000000ba 0000 
     787                      ; call occurs [#_GPIO_SetupPinOptions] ; [] |310| 
TMS320C2000 Assembler PC v18.1.2 Fri Dec 14 17:55:30 2018

Tools Copyright (c) 1996-2017 Texas Instruments Incorporated
F2837xD_Ipc_Driver_Util.asm                                          PAGE   16

     788                      .dwpsn  file "../F2837xD/F2837xD_Ipc_Driver_Util.c",line 311,column 18,is_stmt,isa 0
     789 000000bb 9A13          MOVB      AL,#19                ; [CPU_ALU] |311| 
     790 000000bc D400          MOVB      XAR4,#0               ; [CPU_ALU] |311| 
     791 000000bd 9B02          MOVB      AH,#2                 ; [CPU_ALU] |311| 
     792              $C$DW$59        .dwtag  DW_TAG_TI_branch
     793                      .dwattr $C$DW$59, DW_AT_low_pc(0x00)
     794                      .dwattr $C$DW$59, DW_AT_name("_GPIO_SetupPinMux")
     795                      .dwattr $C$DW$59, DW_AT_TI_call
     796              
     797 000000be 7640!         LCR       #_GPIO_SetupPinMux    ; [CPU_ALU] |311| 
         000000bf 0000 
     798                      ; call occurs [#_GPIO_SetupPinMux] ; [] |311| 
     799                      .dwpsn  file "../F2837xD/F2837xD_Ipc_Driver_Util.c",line 313,column 17,is_stmt,isa 0
     800 000000c0 FFEF          B         $C$L16,UNC            ; [CPU_ALU] |313| 
         000000c1 0098 
     801                      ; branch occurs ; [] |313| 
     802 000000c2       $C$L9:    
     803                      .dwpsn  file "../F2837xD/F2837xD_Ipc_Driver_Util.c",line 316,column 18,is_stmt,isa 0
     804 000000c2 7622   EALLOW
     805                      .dwpsn  file "../F2837xD/F2837xD_Ipc_Driver_Util.c",line 321,column 18,is_stmt,isa 0
     806 000000c3 761F!         MOVW      DP,#_DevCfgRegs+228   ; [CPU_ARAU] 
         000000c4 0003 
     807 000000c5 1A24!         OR        @_DevCfgRegs+228,#0x0001 ; [CPU_ALU] |321| 
         000000c6 0001 
     808                      .dwpsn  file "../F2837xD/F2837xD_Ipc_Driver_Util.c",line 327,column 18,is_stmt,isa 0
     809 000000c7 9A00          MOVB      AL,#0                 ; [CPU_ALU] |327| 
     810 000000c8 28A8          MOV       AH,#42405             ; [CPU_ALU] |327| 
         000000c9 A5A5 
     811 000000ca 761F!         MOVW      DP,#_ClkCfgRegs       ; [CPU_ARAU] 
         000000cb 0000 
     812 000000cc 1E00!         MOVL      @_ClkCfgRegs,ACC      ; [CPU_ALU] |327| 
     813                      .dwpsn  file "../F2837xD/F2837xD_Ipc_Driver_Util.c",line 328,column 18,is_stmt,isa 0
     814 000000cd 0202          MOVB      ACC,#2                ; [CPU_ALU] |328| 
     815 000000ce 1E2C!         MOVL      @_ClkCfgRegs+44,ACC   ; [CPU_ALU] |328| 
     816                      .dwpsn  file "../F2837xD/F2837xD_Ipc_Driver_Util.c",line 329,column 18,is_stmt,isa 0
     817 000000cf 761A   EDIS
     818                      .dwpsn  file "../F2837xD/F2837xD_Ipc_Driver_Util.c",line 330,column 18,is_stmt,isa 0
     819 000000d0 D430          MOVB      XAR4,#48              ; [CPU_ALU] |330| 
     820 000000d1 FF69          SPM       #0                    ; [CPU_ALU] 
     821 000000d2 9A20          MOVB      AL,#32                ; [CPU_ALU] |330| 
     822 000000d3 9B00          MOVB      AH,#0                 ; [CPU_ALU] |330| 
     823              $C$DW$60        .dwtag  DW_TAG_TI_branch
     824                      .dwattr $C$DW$60, DW_AT_low_pc(0x00)
     825                      .dwattr $C$DW$60, DW_AT_name("_GPIO_SetupPinOptions")
     826                      .dwattr $C$DW$60, DW_AT_TI_call
     827              
     828 000000d4 7640!         LCR       #_GPIO_SetupPinOptions ; [CPU_ALU] |330| 
         000000d5 0000 
     829                      ; call occurs [#_GPIO_SetupPinOptions] ; [] |330| 
     830                      .dwpsn  file "../F2837xD/F2837xD_Ipc_Driver_Util.c",line 331,column 18,is_stmt,isa 0
     831 000000d6 9A20          MOVB      AL,#32                ; [CPU_ALU] |331| 
     832 000000d7 D401          MOVB      XAR4,#1               ; [CPU_ALU] |331| 
     833 000000d8 9B02          MOVB      AH,#2                 ; [CPU_ALU] |331| 
     834              $C$DW$61        .dwtag  DW_TAG_TI_branch
     835                      .dwattr $C$DW$61, DW_AT_low_pc(0x00)
TMS320C2000 Assembler PC v18.1.2 Fri Dec 14 17:55:30 2018

Tools Copyright (c) 1996-2017 Texas Instruments Incorporated
F2837xD_Ipc_Driver_Util.asm                                          PAGE   17

     836                      .dwattr $C$DW$61, DW_AT_name("_GPIO_SetupPinMux")
     837                      .dwattr $C$DW$61, DW_AT_TI_call
     838              
     839 000000d9 7640!         LCR       #_GPIO_SetupPinMux    ; [CPU_ALU] |331| 
         000000da 0000 
     840                      ; call occurs [#_GPIO_SetupPinMux] ; [] |331| 
     841                      .dwpsn  file "../F2837xD/F2837xD_Ipc_Driver_Util.c",line 333,column 18,is_stmt,isa 0
     842 000000db 9A21          MOVB      AL,#33                ; [CPU_ALU] |333| 
     843 000000dc D430          MOVB      XAR4,#48              ; [CPU_ALU] |333| 
     844 000000dd 9B00          MOVB      AH,#0                 ; [CPU_ALU] |333| 
     845              $C$DW$62        .dwtag  DW_TAG_TI_branch
     846                      .dwattr $C$DW$62, DW_AT_low_pc(0x00)
     847                      .dwattr $C$DW$62, DW_AT_name("_GPIO_SetupPinOptions")
     848                      .dwattr $C$DW$62, DW_AT_TI_call
     849              
     850 000000de 7640!         LCR       #_GPIO_SetupPinOptions ; [CPU_ALU] |333| 
         000000df 0000 
     851                      ; call occurs [#_GPIO_SetupPinOptions] ; [] |333| 
     852                      .dwpsn  file "../F2837xD/F2837xD_Ipc_Driver_Util.c",line 334,column 18,is_stmt,isa 0
     853 000000e0 9A21          MOVB      AL,#33                ; [CPU_ALU] |334| 
     854 000000e1 D401          MOVB      XAR4,#1               ; [CPU_ALU] |334| 
     855 000000e2 9B02          MOVB      AH,#2                 ; [CPU_ALU] |334| 
     856              $C$DW$63        .dwtag  DW_TAG_TI_branch
     857                      .dwattr $C$DW$63, DW_AT_low_pc(0x00)
     858                      .dwattr $C$DW$63, DW_AT_name("_GPIO_SetupPinMux")
     859                      .dwattr $C$DW$63, DW_AT_TI_call
     860              
     861 000000e3 7640!         LCR       #_GPIO_SetupPinMux    ; [CPU_ALU] |334| 
         000000e4 0000 
     862                      ; call occurs [#_GPIO_SetupPinMux] ; [] |334| 
     863                      .dwpsn  file "../F2837xD/F2837xD_Ipc_Driver_Util.c",line 336,column 17,is_stmt,isa 0
     864 000000e5 6F73          B         $C$L16,UNC            ; [CPU_ALU] |336| 
     865                      ; branch occurs ; [] |336| 
     866 000000e6       $C$L10:    
     867                      .dwpsn  file "../F2837xD/F2837xD_Ipc_Driver_Util.c",line 339,column 22,is_stmt,isa 0
     868 000000e6 56BF          MOVB      *-SP[5],#58,UNC       ; [CPU_ALU] |339| 
         000000e7 3A45 
     869                      .dwpsn  file "../F2837xD/F2837xD_Ipc_Driver_Util.c",line 339,column 29,is_stmt,isa 0
     870 000000e8 9245          MOV       AL,*-SP[5]            ; [CPU_ALU] |339| 
     871 000000e9 5241          CMPB      AL,#65                ; [CPU_ALU] |339| 
     872 000000ea 660E          B         $C$L12,HI             ; [CPU_ALU] |339| 
     873                      ; branchcc occurs ; [] |339| 
     874 000000eb       $C$L11:    
     875                      .dwpsn  file "../F2837xD/F2837xD_Ipc_Driver_Util.c",line 341,column 21,is_stmt,isa 0
     876 000000eb D430          MOVB      XAR4,#48              ; [CPU_ALU] |341| 
     877 000000ec 9B00          MOVB      AH,#0                 ; [CPU_ALU] |341| 
     878              $C$DW$64        .dwtag  DW_TAG_TI_branch
     879                      .dwattr $C$DW$64, DW_AT_low_pc(0x00)
     880                      .dwattr $C$DW$64, DW_AT_name("_GPIO_SetupPinOptions")
     881                      .dwattr $C$DW$64, DW_AT_TI_call
     882              
     883 000000ed 7640!         LCR       #_GPIO_SetupPinOptions ; [CPU_ALU] |341| 
         000000ee 0000 
     884                      ; call occurs [#_GPIO_SetupPinOptions] ; [] |341| 
     885                      .dwpsn  file "../F2837xD/F2837xD_Ipc_Driver_Util.c",line 342,column 21,is_stmt,isa 0
TMS320C2000 Assembler PC v18.1.2 Fri Dec 14 17:55:30 2018

Tools Copyright (c) 1996-2017 Texas Instruments Incorporated
F2837xD_Ipc_Driver_Util.asm                                          PAGE   18

     886 000000ef D400          MOVB      XAR4,#0               ; [CPU_ALU] |342| 
     887 000000f0 9B02          MOVB      AH,#2                 ; [CPU_ALU] |342| 
     888 000000f1 9245          MOV       AL,*-SP[5]            ; [CPU_ALU] |342| 
     889              $C$DW$65        .dwtag  DW_TAG_TI_branch
     890                      .dwattr $C$DW$65, DW_AT_low_pc(0x00)
     891                      .dwattr $C$DW$65, DW_AT_name("_GPIO_SetupPinMux")
     892                      .dwattr $C$DW$65, DW_AT_TI_call
     893              
     894 000000f2 7640!         LCR       #_GPIO_SetupPinMux    ; [CPU_ALU] |342| 
         000000f3 0000 
     895                      ; call occurs [#_GPIO_SetupPinMux] ; [] |342| 
     896                      .dwpsn  file "../F2837xD/F2837xD_Ipc_Driver_Util.c",line 339,column 37,is_stmt,isa 0
     897 000000f4 0A45          INC       *-SP[5]               ; [CPU_ALU] |339| 
     898                      .dwpsn  file "../F2837xD/F2837xD_Ipc_Driver_Util.c",line 339,column 29,is_stmt,isa 0
     899 000000f5 9245          MOV       AL,*-SP[5]            ; [CPU_ALU] |339| 
     900 000000f6 5241          CMPB      AL,#65                ; [CPU_ALU] |339| 
     901 000000f7 69F4          B         $C$L11,LOS            ; [CPU_ALU] |339| 
     902                      ; branchcc occurs ; [] |339| 
     903 000000f8       $C$L12:    
     904                      .dwpsn  file "../F2837xD/F2837xD_Ipc_Driver_Util.c",line 345,column 18,is_stmt,isa 0
     905 000000f8 9A45          MOVB      AL,#69                ; [CPU_ALU] |345| 
     906 000000f9 D430          MOVB      XAR4,#48              ; [CPU_ALU] |345| 
     907 000000fa 9B01          MOVB      AH,#1                 ; [CPU_ALU] |345| 
     908              $C$DW$66        .dwtag  DW_TAG_TI_branch
     909                      .dwattr $C$DW$66, DW_AT_low_pc(0x00)
     910                      .dwattr $C$DW$66, DW_AT_name("_GPIO_SetupPinOptions")
     911                      .dwattr $C$DW$66, DW_AT_TI_call
     912              
     913 000000fb 7640!         LCR       #_GPIO_SetupPinOptions ; [CPU_ALU] |345| 
         000000fc 0000 
     914                      ; call occurs [#_GPIO_SetupPinOptions] ; [] |345| 
     915                      .dwpsn  file "../F2837xD/F2837xD_Ipc_Driver_Util.c",line 346,column 18,is_stmt,isa 0
     916 000000fd 9A45          MOVB      AL,#69                ; [CPU_ALU] |346| 
     917 000000fe D400          MOVB      XAR4,#0               ; [CPU_ALU] |346| 
     918 000000ff 9B02          MOVB      AH,#2                 ; [CPU_ALU] |346| 
     919              $C$DW$67        .dwtag  DW_TAG_TI_branch
     920                      .dwattr $C$DW$67, DW_AT_low_pc(0x00)
     921                      .dwattr $C$DW$67, DW_AT_name("_GPIO_SetupPinMux")
     922                      .dwattr $C$DW$67, DW_AT_TI_call
     923              
     924 00000100 7640!         LCR       #_GPIO_SetupPinMux    ; [CPU_ALU] |346| 
         00000101 0000 
     925                      ; call occurs [#_GPIO_SetupPinMux] ; [] |346| 
     926                      .dwpsn  file "../F2837xD/F2837xD_Ipc_Driver_Util.c",line 348,column 18,is_stmt,isa 0
     927 00000102 9A46          MOVB      AL,#70                ; [CPU_ALU] |348| 
     928 00000103 D430          MOVB      XAR4,#48              ; [CPU_ALU] |348| 
     929 00000104 9B00          MOVB      AH,#0                 ; [CPU_ALU] |348| 
     930              $C$DW$68        .dwtag  DW_TAG_TI_branch
     931                      .dwattr $C$DW$68, DW_AT_low_pc(0x00)
     932                      .dwattr $C$DW$68, DW_AT_name("_GPIO_SetupPinOptions")
     933                      .dwattr $C$DW$68, DW_AT_TI_call
     934              
     935 00000105 7640!         LCR       #_GPIO_SetupPinOptions ; [CPU_ALU] |348| 
         00000106 0000 
     936                      ; call occurs [#_GPIO_SetupPinOptions] ; [] |348| 
TMS320C2000 Assembler PC v18.1.2 Fri Dec 14 17:55:30 2018

Tools Copyright (c) 1996-2017 Texas Instruments Incorporated
F2837xD_Ipc_Driver_Util.asm                                          PAGE   19

     937                      .dwpsn  file "../F2837xD/F2837xD_Ipc_Driver_Util.c",line 349,column 18,is_stmt,isa 0
     938 00000107 9A46          MOVB      AL,#70                ; [CPU_ALU] |349| 
     939 00000108 D400          MOVB      XAR4,#0               ; [CPU_ALU] |349| 
     940 00000109 9B02          MOVB      AH,#2                 ; [CPU_ALU] |349| 
     941              $C$DW$69        .dwtag  DW_TAG_TI_branch
     942                      .dwattr $C$DW$69, DW_AT_low_pc(0x00)
     943                      .dwattr $C$DW$69, DW_AT_name("_GPIO_SetupPinMux")
     944                      .dwattr $C$DW$69, DW_AT_TI_call
     945              
     946 0000010a 7640!         LCR       #_GPIO_SetupPinMux    ; [CPU_ALU] |349| 
         0000010b 0000 
     947                      ; call occurs [#_GPIO_SetupPinMux] ; [] |349| 
     948                      .dwpsn  file "../F2837xD/F2837xD_Ipc_Driver_Util.c",line 350,column 18,is_stmt,isa 0
     949 0000010c 6F4C          B         $C$L16,UNC            ; [CPU_ALU] |350| 
     950                      ; branch occurs ; [] |350| 
     951 0000010d       $C$L13:    
     952                      .dwpsn  file "../F2837xD/F2837xD_Ipc_Driver_Util.c",line 358,column 18,is_stmt,isa 0
     953 0000010d 7622   EALLOW
     954                      .dwpsn  file "../F2837xD/F2837xD_Ipc_Driver_Util.c",line 359,column 18,is_stmt,isa 0
     955 0000010e 0200          MOVB      ACC,#0                ; [CPU_ALU] |359| 
     956 0000010f 761F!         MOVW      DP,#_GpioCtrlRegs+188 ; [CPU_ARAU] 
         00000110 0002 
     957 00000111 1E3C!         MOVL      @_GpioCtrlRegs+188,ACC ; [CPU_ALU] |359| 
     958                      .dwpsn  file "../F2837xD/F2837xD_Ipc_Driver_Util.c",line 364,column 18,is_stmt,isa 0
     959 00000112 CC29!         AND       AL,@_GpioCtrlRegs+169,#0x0fff ; [CPU_ALU] |364| 
         00000113 0FFF 
     960 00000114 1AA9          OR        AL,#0x2000            ; [CPU_ALU] |364| 
         00000115 2000 
     961 00000116 9629!         MOV       @_GpioCtrlRegs+169,AL ; [CPU_ALU] |364| 
     962                      .dwpsn  file "../F2837xD/F2837xD_Ipc_Driver_Util.c",line 369,column 18,is_stmt,isa 0
     963 00000117 CC20!         AND       AL,@_GpioCtrlRegs+160,#0x3fff ; [CPU_ALU] |369| 
         00000118 3FFF 
     964 00000119 1AA9          OR        AL,#0x4000            ; [CPU_ALU] |369| 
         0000011a 4000 
     965 0000011b 9620!         MOV       @_GpioCtrlRegs+160,AL ; [CPU_ALU] |369| 
     966                      .dwpsn  file "../F2837xD/F2837xD_Ipc_Driver_Util.c",line 370,column 18,is_stmt,isa 0
     967 0000011c CC06!         AND       AL,@_GpioCtrlRegs+134,#0x3fff ; [CPU_ALU] |370| 
         0000011d 3FFF 
     968 0000011e 1AA9          OR        AL,#0x4000            ; [CPU_ALU] |370| 
         0000011f 4000 
     969 00000120 9606!         MOV       @_GpioCtrlRegs+134,AL ; [CPU_ALU] |370| 
     970                      .dwpsn  file "../F2837xD/F2837xD_Ipc_Driver_Util.c",line 375,column 18,is_stmt,isa 0
     971 00000121 1A02!         OR        @_GpioCtrlRegs+130,#0xc000 ; [CPU_ALU] |375| 
         00000122 C000 
     972                      .dwpsn  file "../F2837xD/F2837xD_Ipc_Driver_Util.c",line 377,column 18,is_stmt,isa 0
     973 00000123 0200          MOVB      ACC,#0                ; [CPU_ALU] |377| 
     974 00000124 1E3C!         MOVL      @_GpioCtrlRegs+188,ACC ; [CPU_ALU] |377| 
     975                      .dwpsn  file "../F2837xD/F2837xD_Ipc_Driver_Util.c",line 382,column 18,is_stmt,isa 0
     976 00000125 CC29!         AND       AL,@_GpioCtrlRegs+169,#0xf0ff ; [CPU_ALU] |382| 
         00000126 F0FF 
     977 00000127 1AA9          OR        AL,#0x0200            ; [CPU_ALU] |382| 
         00000128 0200 
     978 00000129 9629!         MOV       @_GpioCtrlRegs+169,AL ; [CPU_ALU] |382| 
     979                      .dwpsn  file "../F2837xD/F2837xD_Ipc_Driver_Util.c",line 387,column 18,is_stmt,isa 0
     980 0000012a CC20!         AND       AL,@_GpioCtrlRegs+160,#0xcfff ; [CPU_ALU] |387| 
TMS320C2000 Assembler PC v18.1.2 Fri Dec 14 17:55:30 2018

Tools Copyright (c) 1996-2017 Texas Instruments Incorporated
F2837xD_Ipc_Driver_Util.asm                                          PAGE   20

         0000012b CFFF 
     981 0000012c 1AA9          OR        AL,#0x1000            ; [CPU_ALU] |387| 
         0000012d 1000 
     982 0000012e 9620!         MOV       @_GpioCtrlRegs+160,AL ; [CPU_ALU] |387| 
     983                      .dwpsn  file "../F2837xD/F2837xD_Ipc_Driver_Util.c",line 388,column 18,is_stmt,isa 0
     984 0000012f CC06!         AND       AL,@_GpioCtrlRegs+134,#0xcfff ; [CPU_ALU] |388| 
         00000130 CFFF 
     985 00000131 1AA9          OR        AL,#0x1000            ; [CPU_ALU] |388| 
         00000132 1000 
     986 00000133 9606!         MOV       @_GpioCtrlRegs+134,AL ; [CPU_ALU] |388| 
     987                      .dwpsn  file "../F2837xD/F2837xD_Ipc_Driver_Util.c",line 393,column 18,is_stmt,isa 0
     988 00000134 1A02!         OR        @_GpioCtrlRegs+130,#0x3000 ; [CPU_ALU] |393| 
         00000135 3000 
     989                      .dwpsn  file "../F2837xD/F2837xD_Ipc_Driver_Util.c",line 394,column 18,is_stmt,isa 0
     990 00000136 0200          MOVB      ACC,#0                ; [CPU_ALU] |394| 
     991 00000137 1901          SUBB      ACC,#1                ; [CPU_ALU] |394| 
     992 00000138 1E3C!         MOVL      @_GpioCtrlRegs+188,ACC ; [CPU_ALU] |394| 
     993                      .dwpsn  file "../F2837xD/F2837xD_Ipc_Driver_Util.c",line 395,column 18,is_stmt,isa 0
     994 00000139 761F!         MOVW      DP,#_ClkCfgRegs+10    ; [CPU_ARAU] 
         0000013a 0000 
     995 0000013b 180A!         AND       @_ClkCfgRegs+10,#0xfff3 ; [CPU_ALU] |395| 
         0000013c FFF3 
     996                      .dwpsn  file "../F2837xD/F2837xD_Ipc_Driver_Util.c",line 396,column 18,is_stmt,isa 0
     997 0000013d 761F!         MOVW      DP,#_CpuSysRegs+54    ; [CPU_ARAU] 
         0000013e 0000 
     998 0000013f 1A36!         OR        @_CpuSysRegs+54,#0x0001 ; [CPU_ALU] |396| 
         00000140 0001 
     999                      .dwpsn  file "../F2837xD/F2837xD_Ipc_Driver_Util.c",line 397,column 18,is_stmt,isa 0
    1000 00000141 761A   EDIS
    1001                      .dwpsn  file "../F2837xD/F2837xD_Ipc_Driver_Util.c",line 399,column 16,is_stmt,isa 0
    1002 00000142 6F16          B         $C$L16,UNC            ; [CPU_ALU] |399| 
    1003                      ; branch occurs ; [] |399| 
    1004 00000143       $C$L14:    
    1005                      .dwpsn  file "../F2837xD/F2837xD_Ipc_Driver_Util.c",line 258,column 9,is_stmt,isa 0
    1006 00000143 C442          MOVL      XAR6,*-SP[2]          ; [CPU_ALU] |258| 
    1007 00000144 0204          MOVB      ACC,#4                ; [CPU_ALU] |258| 
    1008 00000145 0FA6          CMPL      ACC,XAR6              ; [CPU_ALU] |258| 
    1009 00000146 640B          B         $C$L15,LT             ; [CPU_ALU] |258| 
    1010                      ; branchcc occurs ; [] |258| 
    1011 00000147 0FA6          CMPL      ACC,XAR6              ; [CPU_ALU] |258| 
    1012 00000148 FFE1          B         $C$L8,EQ              ; [CPU_ALU] |258| 
         00000149 FF43 
    1013                      ; branchcc occurs ; [] |258| 
    1014 0000014a 06A6          MOVL      ACC,XAR6              ; [CPU_ALU] 
    1015 0000014b 619B          B         $C$L10,EQ             ; [CPU_ALU] |258| 
    1016                      ; branchcc occurs ; [] |258| 
    1017 0000014c 0201          MOVB      ACC,#1                ; [CPU_ALU] |258| 
    1018 0000014d 0FA6          CMPL      ACC,XAR6              ; [CPU_ALU] |258| 
    1019 0000014e FFE1          B         $C$L7,EQ              ; [CPU_ALU] |258| 
         0000014f FF18 
    1020                      ; branchcc occurs ; [] |258| 
    1021 00000150 6F08          B         $C$L16,UNC            ; [CPU_ALU] |258| 
    1022                      ; branch occurs ; [] |258| 
    1023 00000151       $C$L15:    
    1024 00000151 0205          MOVB      ACC,#5                ; [CPU_ALU] |258| 
TMS320C2000 Assembler PC v18.1.2 Fri Dec 14 17:55:30 2018

Tools Copyright (c) 1996-2017 Texas Instruments Incorporated
F2837xD_Ipc_Driver_Util.asm                                          PAGE   21

    1025 00000152 0FA6          CMPL      ACC,XAR6              ; [CPU_ALU] |258| 
    1026 00000153 FFE1          B         $C$L9,EQ              ; [CPU_ALU] |258| 
         00000154 FF6F 
    1027                      ; branchcc occurs ; [] |258| 
    1028 00000155 0207          MOVB      ACC,#7                ; [CPU_ALU] |258| 
    1029 00000156 0FA6          CMPL      ACC,XAR6              ; [CPU_ALU] |258| 
    1030 00000157 61B6          B         $C$L13,EQ             ; [CPU_ALU] |258| 
    1031                      ; branchcc occurs ; [] |258| 
    1032 00000158       $C$L16:    
    1033                      .dwpsn  file "../F2837xD/F2837xD_Ipc_Driver_Util.c",line 406,column 9,is_stmt,isa 0
    1034 00000158 0642          MOVL      ACC,*-SP[2]           ; [CPU_ALU] |406| 
    1035 00000159 761F!         MOVW      DP,#_IpcRegs+34       ; [CPU_ARAU] 
         0000015a 0000 
    1036 0000015b 1E22!         MOVL      @_IpcRegs+34,ACC      ; [CPU_ALU] |406| 
    1037                      .dwpsn  file "../F2837xD/F2837xD_Ipc_Driver_Util.c",line 411,column 9,is_stmt,isa 0
    1038 0000015c 0213          MOVB      ACC,#19               ; [CPU_ALU] |411| 
    1039 0000015d 1E10!         MOVL      @_IpcRegs+16,ACC      ; [CPU_ALU] |411| 
    1040                      .dwpsn  file "../F2837xD/F2837xD_Ipc_Driver_Util.c",line 416,column 9,is_stmt,isa 0
    1041 0000015e 9A01          MOV       AL,#1                 ; [CPU_ALU] |416| 
    1042 0000015f 28A8          MOV       AH,#32768             ; [CPU_ALU] |416| 
         00000160 8000 
    1043 00000161 1E04!         MOVL      @_IpcRegs+4,ACC       ; [CPU_ALU] |416| 
    1044 00000162       $C$L17:    
    1045                      .dwpsn  file "../F2837xD/F2837xD_Ipc_Driver_Util.c",line 422,column 5,is_stmt,isa 0
    1046 00000162 9246          MOV       AL,*-SP[6]            ; [CPU_ALU] |422| 
    1047 00000163       $C$L18:    
    1048                      .dwpsn  file "../F2837xD/F2837xD_Ipc_Driver_Util.c",line 423,column 1,is_stmt,isa 0
    1049 00000163 FE86          SUBB      SP,#6                 ; [CPU_ARAU] 
    1050                      .dwcfi  cfa_offset, -2
    1051 00000164 FF69          SPM       #0                    ; [CPU_ALU] 
    1052              $C$DW$70        .dwtag  DW_TAG_TI_branch
    1053                      .dwattr $C$DW$70, DW_AT_low_pc(0x00)
    1054                      .dwattr $C$DW$70, DW_AT_TI_return
    1055              
    1056 00000165 0006          LRETR     ; [CPU_ALU] 
    1057                      ; return occurs ; [] 
    1058                      .dwattr $C$DW$38, DW_AT_TI_end_file("../F2837xD/F2837xD_Ipc_Driver_Util.c")
    1059                      .dwattr $C$DW$38, DW_AT_TI_end_line(0x1a7)
    1060                      .dwattr $C$DW$38, DW_AT_TI_end_column(0x01)
    1061                      .dwendentry
    1062                      .dwendtag $C$DW$38
    1063              
    1064              ;**************************************************************
    1065              ;* UNDEFINED EXTERNAL REFERENCES                              *
    1066              ;**************************************************************
    1067                      .global _GPIO_SetupPinOptions
    1068                      .global _GPIO_SetupPinMux
    1069                      .global _IpcRegs
    1070                      .global _ClkCfgRegs
    1071                      .global _CpuSysRegs
    1072                      .global _DevCfgRegs
    1073                      .global _GpioCtrlRegs
    1074              
    1075              ;***************************************************************
    1076              ;* TYPE INFORMATION                                            *
TMS320C2000 Assembler PC v18.1.2 Fri Dec 14 17:55:30 2018

Tools Copyright (c) 1996-2017 Texas Instruments Incorporated
F2837xD_Ipc_Driver_Util.asm                                          PAGE   22

    1077              ;***************************************************************
    1078              
    1079              $C$DW$T$20      .dwtag  DW_TAG_structure_type
    1080                      .dwattr $C$DW$T$20, DW_AT_name("AUXCLKDIVSEL_BITS")
    1081                      .dwattr $C$DW$T$20, DW_AT_byte_size(0x02)
    1082              $C$DW$71        .dwtag  DW_TAG_member
    1083                      .dwattr $C$DW$71, DW_AT_type(*$C$DW$T$19)
    1084                      .dwattr $C$DW$71, DW_AT_name("AUXPLLDIV")
    1085                      .dwattr $C$DW$71, DW_AT_TI_symbol_name("_AUXPLLDIV")
    1086                      .dwattr $C$DW$71, DW_AT_bit_offset(0x0e)
    1087                      .dwattr $C$DW$71, DW_AT_bit_size(0x02)
    1088                      .dwattr $C$DW$71, DW_AT_data_member_location[DW_OP_plus_uconst 0x0]
    1089                      .dwattr $C$DW$71, DW_AT_accessibility(DW_ACCESS_public)
    1090              
    1091              $C$DW$72        .dwtag  DW_TAG_member
    1092                      .dwattr $C$DW$72, DW_AT_type(*$C$DW$T$19)
    1093                      .dwattr $C$DW$72, DW_AT_name("rsvd1")
    1094                      .dwattr $C$DW$72, DW_AT_TI_symbol_name("_rsvd1")
    1095                      .dwattr $C$DW$72, DW_AT_bit_offset(0x00)
    1096                      .dwattr $C$DW$72, DW_AT_bit_size(0x0e)
    1097                      .dwattr $C$DW$72, DW_AT_data_member_location[DW_OP_plus_uconst 0x0]
    1098                      .dwattr $C$DW$72, DW_AT_accessibility(DW_ACCESS_public)
    1099              
    1100              $C$DW$73        .dwtag  DW_TAG_member
    1101                      .dwattr $C$DW$73, DW_AT_type(*$C$DW$T$19)
    1102                      .dwattr $C$DW$73, DW_AT_name("rsvd2")
    1103                      .dwattr $C$DW$73, DW_AT_TI_symbol_name("_rsvd2")
    1104                      .dwattr $C$DW$73, DW_AT_bit_offset(0x00)
    1105                      .dwattr $C$DW$73, DW_AT_bit_size(0x10)
    1106                      .dwattr $C$DW$73, DW_AT_data_member_location[DW_OP_plus_uconst 0x1]
    1107                      .dwattr $C$DW$73, DW_AT_accessibility(DW_ACCESS_public)
    1108              
    1109                      .dwendtag $C$DW$T$20
    1110              
    1111              
    1112              $C$DW$T$22      .dwtag  DW_TAG_union_type
    1113                      .dwattr $C$DW$T$22, DW_AT_name("AUXCLKDIVSEL_REG")
    1114                      .dwattr $C$DW$T$22, DW_AT_byte_size(0x02)
    1115              $C$DW$74        .dwtag  DW_TAG_member
    1116                      .dwattr $C$DW$74, DW_AT_type(*$C$DW$T$21)
    1117                      .dwattr $C$DW$74, DW_AT_name("all")
    1118                      .dwattr $C$DW$74, DW_AT_TI_symbol_name("_all")
    1119                      .dwattr $C$DW$74, DW_AT_data_member_location[DW_OP_plus_uconst 0x0]
    1120                      .dwattr $C$DW$74, DW_AT_accessibility(DW_ACCESS_public)
    1121              
    1122              $C$DW$75        .dwtag  DW_TAG_member
    1123                      .dwattr $C$DW$75, DW_AT_type(*$C$DW$T$20)
    1124                      .dwattr $C$DW$75, DW_AT_name("bit")
    1125                      .dwattr $C$DW$75, DW_AT_TI_symbol_name("_bit")
    1126                      .dwattr $C$DW$75, DW_AT_data_member_location[DW_OP_plus_uconst 0x0]
    1127                      .dwattr $C$DW$75, DW_AT_accessibility(DW_ACCESS_public)
    1128              
    1129                      .dwendtag $C$DW$T$22
    1130              
    1131              
TMS320C2000 Assembler PC v18.1.2 Fri Dec 14 17:55:30 2018

Tools Copyright (c) 1996-2017 Texas Instruments Incorporated
F2837xD_Ipc_Driver_Util.asm                                          PAGE   23

    1132              $C$DW$T$23      .dwtag  DW_TAG_structure_type
    1133                      .dwattr $C$DW$T$23, DW_AT_name("AUXPLLCTL1_BITS")
    1134                      .dwattr $C$DW$T$23, DW_AT_byte_size(0x02)
    1135              $C$DW$76        .dwtag  DW_TAG_member
    1136                      .dwattr $C$DW$76, DW_AT_type(*$C$DW$T$19)
    1137                      .dwattr $C$DW$76, DW_AT_name("PLLEN")
    1138                      .dwattr $C$DW$76, DW_AT_TI_symbol_name("_PLLEN")
    1139                      .dwattr $C$DW$76, DW_AT_bit_offset(0x0f)
    1140                      .dwattr $C$DW$76, DW_AT_bit_size(0x01)
    1141                      .dwattr $C$DW$76, DW_AT_data_member_location[DW_OP_plus_uconst 0x0]
    1142                      .dwattr $C$DW$76, DW_AT_accessibility(DW_ACCESS_public)
    1143              
    1144              $C$DW$77        .dwtag  DW_TAG_member
    1145                      .dwattr $C$DW$77, DW_AT_type(*$C$DW$T$19)
    1146                      .dwattr $C$DW$77, DW_AT_name("PLLCLKEN")
    1147                      .dwattr $C$DW$77, DW_AT_TI_symbol_name("_PLLCLKEN")
    1148                      .dwattr $C$DW$77, DW_AT_bit_offset(0x0e)
    1149                      .dwattr $C$DW$77, DW_AT_bit_size(0x01)
    1150                      .dwattr $C$DW$77, DW_AT_data_member_location[DW_OP_plus_uconst 0x0]
    1151                      .dwattr $C$DW$77, DW_AT_accessibility(DW_ACCESS_public)
    1152              
    1153              $C$DW$78        .dwtag  DW_TAG_member
    1154                      .dwattr $C$DW$78, DW_AT_type(*$C$DW$T$19)
    1155                      .dwattr $C$DW$78, DW_AT_name("rsvd1")
    1156                      .dwattr $C$DW$78, DW_AT_TI_symbol_name("_rsvd1")
    1157                      .dwattr $C$DW$78, DW_AT_bit_offset(0x00)
    1158                      .dwattr $C$DW$78, DW_AT_bit_size(0x0e)
    1159                      .dwattr $C$DW$78, DW_AT_data_member_location[DW_OP_plus_uconst 0x0]
    1160                      .dwattr $C$DW$78, DW_AT_accessibility(DW_ACCESS_public)
    1161              
    1162              $C$DW$79        .dwtag  DW_TAG_member
    1163                      .dwattr $C$DW$79, DW_AT_type(*$C$DW$T$19)
    1164                      .dwattr $C$DW$79, DW_AT_name("rsvd2")
    1165                      .dwattr $C$DW$79, DW_AT_TI_symbol_name("_rsvd2")
    1166                      .dwattr $C$DW$79, DW_AT_bit_offset(0x00)
    1167                      .dwattr $C$DW$79, DW_AT_bit_size(0x10)
    1168                      .dwattr $C$DW$79, DW_AT_data_member_location[DW_OP_plus_uconst 0x1]
    1169                      .dwattr $C$DW$79, DW_AT_accessibility(DW_ACCESS_public)
    1170              
    1171                      .dwendtag $C$DW$T$23
    1172              
    1173              
    1174              $C$DW$T$24      .dwtag  DW_TAG_union_type
    1175                      .dwattr $C$DW$T$24, DW_AT_name("AUXPLLCTL1_REG")
    1176                      .dwattr $C$DW$T$24, DW_AT_byte_size(0x02)
    1177              $C$DW$80        .dwtag  DW_TAG_member
    1178                      .dwattr $C$DW$80, DW_AT_type(*$C$DW$T$21)
    1179                      .dwattr $C$DW$80, DW_AT_name("all")
    1180                      .dwattr $C$DW$80, DW_AT_TI_symbol_name("_all")
    1181                      .dwattr $C$DW$80, DW_AT_data_member_location[DW_OP_plus_uconst 0x0]
    1182                      .dwattr $C$DW$80, DW_AT_accessibility(DW_ACCESS_public)
    1183              
    1184              $C$DW$81        .dwtag  DW_TAG_member
    1185                      .dwattr $C$DW$81, DW_AT_type(*$C$DW$T$23)
    1186                      .dwattr $C$DW$81, DW_AT_name("bit")
TMS320C2000 Assembler PC v18.1.2 Fri Dec 14 17:55:30 2018

Tools Copyright (c) 1996-2017 Texas Instruments Incorporated
F2837xD_Ipc_Driver_Util.asm                                          PAGE   24

    1187                      .dwattr $C$DW$81, DW_AT_TI_symbol_name("_bit")
    1188                      .dwattr $C$DW$81, DW_AT_data_member_location[DW_OP_plus_uconst 0x0]
    1189                      .dwattr $C$DW$81, DW_AT_accessibility(DW_ACCESS_public)
    1190              
    1191                      .dwendtag $C$DW$T$24
    1192              
    1193              
    1194              $C$DW$T$25      .dwtag  DW_TAG_structure_type
    1195                      .dwattr $C$DW$T$25, DW_AT_name("AUXPLLMULT_BITS")
    1196                      .dwattr $C$DW$T$25, DW_AT_byte_size(0x02)
    1197              $C$DW$82        .dwtag  DW_TAG_member
    1198                      .dwattr $C$DW$82, DW_AT_type(*$C$DW$T$19)
    1199                      .dwattr $C$DW$82, DW_AT_name("IMULT")
    1200                      .dwattr $C$DW$82, DW_AT_TI_symbol_name("_IMULT")
    1201                      .dwattr $C$DW$82, DW_AT_bit_offset(0x09)
    1202                      .dwattr $C$DW$82, DW_AT_bit_size(0x07)
    1203                      .dwattr $C$DW$82, DW_AT_data_member_location[DW_OP_plus_uconst 0x0]
    1204                      .dwattr $C$DW$82, DW_AT_accessibility(DW_ACCESS_public)
    1205              
    1206              $C$DW$83        .dwtag  DW_TAG_member
    1207                      .dwattr $C$DW$83, DW_AT_type(*$C$DW$T$19)
    1208                      .dwattr $C$DW$83, DW_AT_name("rsvd1")
    1209                      .dwattr $C$DW$83, DW_AT_TI_symbol_name("_rsvd1")
    1210                      .dwattr $C$DW$83, DW_AT_bit_offset(0x08)
    1211                      .dwattr $C$DW$83, DW_AT_bit_size(0x01)
    1212                      .dwattr $C$DW$83, DW_AT_data_member_location[DW_OP_plus_uconst 0x0]
    1213                      .dwattr $C$DW$83, DW_AT_accessibility(DW_ACCESS_public)
    1214              
    1215              $C$DW$84        .dwtag  DW_TAG_member
    1216                      .dwattr $C$DW$84, DW_AT_type(*$C$DW$T$19)
    1217                      .dwattr $C$DW$84, DW_AT_name("FMULT")
    1218                      .dwattr $C$DW$84, DW_AT_TI_symbol_name("_FMULT")
    1219                      .dwattr $C$DW$84, DW_AT_bit_offset(0x06)
    1220                      .dwattr $C$DW$84, DW_AT_bit_size(0x02)
    1221                      .dwattr $C$DW$84, DW_AT_data_member_location[DW_OP_plus_uconst 0x0]
    1222                      .dwattr $C$DW$84, DW_AT_accessibility(DW_ACCESS_public)
    1223              
    1224              $C$DW$85        .dwtag  DW_TAG_member
    1225                      .dwattr $C$DW$85, DW_AT_type(*$C$DW$T$19)
    1226                      .dwattr $C$DW$85, DW_AT_name("rsvd2")
    1227                      .dwattr $C$DW$85, DW_AT_TI_symbol_name("_rsvd2")
    1228                      .dwattr $C$DW$85, DW_AT_bit_offset(0x00)
    1229                      .dwattr $C$DW$85, DW_AT_bit_size(0x06)
    1230                      .dwattr $C$DW$85, DW_AT_data_member_location[DW_OP_plus_uconst 0x0]
    1231                      .dwattr $C$DW$85, DW_AT_accessibility(DW_ACCESS_public)
    1232              
    1233              $C$DW$86        .dwtag  DW_TAG_member
    1234                      .dwattr $C$DW$86, DW_AT_type(*$C$DW$T$19)
    1235                      .dwattr $C$DW$86, DW_AT_name("rsvd3")
    1236                      .dwattr $C$DW$86, DW_AT_TI_symbol_name("_rsvd3")
    1237                      .dwattr $C$DW$86, DW_AT_bit_offset(0x00)
    1238                      .dwattr $C$DW$86, DW_AT_bit_size(0x10)
    1239                      .dwattr $C$DW$86, DW_AT_data_member_location[DW_OP_plus_uconst 0x1]
    1240                      .dwattr $C$DW$86, DW_AT_accessibility(DW_ACCESS_public)
    1241              
TMS320C2000 Assembler PC v18.1.2 Fri Dec 14 17:55:30 2018

Tools Copyright (c) 1996-2017 Texas Instruments Incorporated
F2837xD_Ipc_Driver_Util.asm                                          PAGE   25

    1242                      .dwendtag $C$DW$T$25
    1243              
    1244              
    1245              $C$DW$T$26      .dwtag  DW_TAG_union_type
    1246                      .dwattr $C$DW$T$26, DW_AT_name("AUXPLLMULT_REG")
    1247                      .dwattr $C$DW$T$26, DW_AT_byte_size(0x02)
    1248              $C$DW$87        .dwtag  DW_TAG_member
    1249                      .dwattr $C$DW$87, DW_AT_type(*$C$DW$T$21)
    1250                      .dwattr $C$DW$87, DW_AT_name("all")
    1251                      .dwattr $C$DW$87, DW_AT_TI_symbol_name("_all")
    1252                      .dwattr $C$DW$87, DW_AT_data_member_location[DW_OP_plus_uconst 0x0]
    1253                      .dwattr $C$DW$87, DW_AT_accessibility(DW_ACCESS_public)
    1254              
    1255              $C$DW$88        .dwtag  DW_TAG_member
    1256                      .dwattr $C$DW$88, DW_AT_type(*$C$DW$T$25)
    1257                      .dwattr $C$DW$88, DW_AT_name("bit")
    1258                      .dwattr $C$DW$88, DW_AT_TI_symbol_name("_bit")
    1259                      .dwattr $C$DW$88, DW_AT_data_member_location[DW_OP_plus_uconst 0x0]
    1260                      .dwattr $C$DW$88, DW_AT_accessibility(DW_ACCESS_public)
    1261              
    1262                      .dwendtag $C$DW$T$26
    1263              
    1264              
    1265              $C$DW$T$27      .dwtag  DW_TAG_structure_type
    1266                      .dwattr $C$DW$T$27, DW_AT_name("AUXPLLSTS_BITS")
    1267                      .dwattr $C$DW$T$27, DW_AT_byte_size(0x02)
    1268              $C$DW$89        .dwtag  DW_TAG_member
    1269                      .dwattr $C$DW$89, DW_AT_type(*$C$DW$T$19)
    1270                      .dwattr $C$DW$89, DW_AT_name("LOCKS")
    1271                      .dwattr $C$DW$89, DW_AT_TI_symbol_name("_LOCKS")
    1272                      .dwattr $C$DW$89, DW_AT_bit_offset(0x0f)
    1273                      .dwattr $C$DW$89, DW_AT_bit_size(0x01)
    1274                      .dwattr $C$DW$89, DW_AT_data_member_location[DW_OP_plus_uconst 0x0]
    1275                      .dwattr $C$DW$89, DW_AT_accessibility(DW_ACCESS_public)
    1276              
    1277              $C$DW$90        .dwtag  DW_TAG_member
    1278                      .dwattr $C$DW$90, DW_AT_type(*$C$DW$T$19)
    1279                      .dwattr $C$DW$90, DW_AT_name("SLIPS")
    1280                      .dwattr $C$DW$90, DW_AT_TI_symbol_name("_SLIPS")
    1281                      .dwattr $C$DW$90, DW_AT_bit_offset(0x0e)
    1282                      .dwattr $C$DW$90, DW_AT_bit_size(0x01)
    1283                      .dwattr $C$DW$90, DW_AT_data_member_location[DW_OP_plus_uconst 0x0]
    1284                      .dwattr $C$DW$90, DW_AT_accessibility(DW_ACCESS_public)
    1285              
    1286              $C$DW$91        .dwtag  DW_TAG_member
    1287                      .dwattr $C$DW$91, DW_AT_type(*$C$DW$T$19)
    1288                      .dwattr $C$DW$91, DW_AT_name("rsvd1")
    1289                      .dwattr $C$DW$91, DW_AT_TI_symbol_name("_rsvd1")
    1290                      .dwattr $C$DW$91, DW_AT_bit_offset(0x00)
    1291                      .dwattr $C$DW$91, DW_AT_bit_size(0x0e)
    1292                      .dwattr $C$DW$91, DW_AT_data_member_location[DW_OP_plus_uconst 0x0]
    1293                      .dwattr $C$DW$91, DW_AT_accessibility(DW_ACCESS_public)
    1294              
    1295              $C$DW$92        .dwtag  DW_TAG_member
    1296                      .dwattr $C$DW$92, DW_AT_type(*$C$DW$T$19)
TMS320C2000 Assembler PC v18.1.2 Fri Dec 14 17:55:30 2018

Tools Copyright (c) 1996-2017 Texas Instruments Incorporated
F2837xD_Ipc_Driver_Util.asm                                          PAGE   26

    1297                      .dwattr $C$DW$92, DW_AT_name("rsvd2")
    1298                      .dwattr $C$DW$92, DW_AT_TI_symbol_name("_rsvd2")
    1299                      .dwattr $C$DW$92, DW_AT_bit_offset(0x00)
    1300                      .dwattr $C$DW$92, DW_AT_bit_size(0x10)
    1301                      .dwattr $C$DW$92, DW_AT_data_member_location[DW_OP_plus_uconst 0x1]
    1302                      .dwattr $C$DW$92, DW_AT_accessibility(DW_ACCESS_public)
    1303              
    1304                      .dwendtag $C$DW$T$27
    1305              
    1306              
    1307              $C$DW$T$28      .dwtag  DW_TAG_union_type
    1308                      .dwattr $C$DW$T$28, DW_AT_name("AUXPLLSTS_REG")
    1309                      .dwattr $C$DW$T$28, DW_AT_byte_size(0x02)
    1310              $C$DW$93        .dwtag  DW_TAG_member
    1311                      .dwattr $C$DW$93, DW_AT_type(*$C$DW$T$21)
    1312                      .dwattr $C$DW$93, DW_AT_name("all")
    1313                      .dwattr $C$DW$93, DW_AT_TI_symbol_name("_all")
    1314                      .dwattr $C$DW$93, DW_AT_data_member_location[DW_OP_plus_uconst 0x0]
    1315                      .dwattr $C$DW$93, DW_AT_accessibility(DW_ACCESS_public)
    1316              
    1317              $C$DW$94        .dwtag  DW_TAG_member
    1318                      .dwattr $C$DW$94, DW_AT_type(*$C$DW$T$27)
    1319                      .dwattr $C$DW$94, DW_AT_name("bit")
    1320                      .dwattr $C$DW$94, DW_AT_TI_symbol_name("_bit")
    1321                      .dwattr $C$DW$94, DW_AT_data_member_location[DW_OP_plus_uconst 0x0]
    1322                      .dwattr $C$DW$94, DW_AT_accessibility(DW_ACCESS_public)
    1323              
    1324                      .dwendtag $C$DW$T$28
    1325              
    1326              
    1327              $C$DW$T$29      .dwtag  DW_TAG_structure_type
    1328                      .dwattr $C$DW$T$29, DW_AT_name("CLKCFGLOCK1_BITS")
    1329                      .dwattr $C$DW$T$29, DW_AT_byte_size(0x02)
    1330              $C$DW$95        .dwtag  DW_TAG_member
    1331                      .dwattr $C$DW$95, DW_AT_type(*$C$DW$T$19)
    1332                      .dwattr $C$DW$95, DW_AT_name("CLKSRCCTL1")
    1333                      .dwattr $C$DW$95, DW_AT_TI_symbol_name("_CLKSRCCTL1")
    1334                      .dwattr $C$DW$95, DW_AT_bit_offset(0x0f)
    1335                      .dwattr $C$DW$95, DW_AT_bit_size(0x01)
    1336                      .dwattr $C$DW$95, DW_AT_data_member_location[DW_OP_plus_uconst 0x0]
    1337                      .dwattr $C$DW$95, DW_AT_accessibility(DW_ACCESS_public)
    1338              
    1339              $C$DW$96        .dwtag  DW_TAG_member
    1340                      .dwattr $C$DW$96, DW_AT_type(*$C$DW$T$19)
    1341                      .dwattr $C$DW$96, DW_AT_name("CLKSRCCTL2")
    1342                      .dwattr $C$DW$96, DW_AT_TI_symbol_name("_CLKSRCCTL2")
    1343                      .dwattr $C$DW$96, DW_AT_bit_offset(0x0e)
    1344                      .dwattr $C$DW$96, DW_AT_bit_size(0x01)
    1345                      .dwattr $C$DW$96, DW_AT_data_member_location[DW_OP_plus_uconst 0x0]
    1346                      .dwattr $C$DW$96, DW_AT_accessibility(DW_ACCESS_public)
    1347              
    1348              $C$DW$97        .dwtag  DW_TAG_member
    1349                      .dwattr $C$DW$97, DW_AT_type(*$C$DW$T$19)
    1350                      .dwattr $C$DW$97, DW_AT_name("CLKSRCCTL3")
    1351                      .dwattr $C$DW$97, DW_AT_TI_symbol_name("_CLKSRCCTL3")
TMS320C2000 Assembler PC v18.1.2 Fri Dec 14 17:55:30 2018

Tools Copyright (c) 1996-2017 Texas Instruments Incorporated
F2837xD_Ipc_Driver_Util.asm                                          PAGE   27

    1352                      .dwattr $C$DW$97, DW_AT_bit_offset(0x0d)
    1353                      .dwattr $C$DW$97, DW_AT_bit_size(0x01)
    1354                      .dwattr $C$DW$97, DW_AT_data_member_location[DW_OP_plus_uconst 0x0]
    1355                      .dwattr $C$DW$97, DW_AT_accessibility(DW_ACCESS_public)
    1356              
    1357              $C$DW$98        .dwtag  DW_TAG_member
    1358                      .dwattr $C$DW$98, DW_AT_type(*$C$DW$T$19)
    1359                      .dwattr $C$DW$98, DW_AT_name("SYSPLLCTL1")
    1360                      .dwattr $C$DW$98, DW_AT_TI_symbol_name("_SYSPLLCTL1")
    1361                      .dwattr $C$DW$98, DW_AT_bit_offset(0x0c)
    1362                      .dwattr $C$DW$98, DW_AT_bit_size(0x01)
    1363                      .dwattr $C$DW$98, DW_AT_data_member_location[DW_OP_plus_uconst 0x0]
    1364                      .dwattr $C$DW$98, DW_AT_accessibility(DW_ACCESS_public)
    1365              
    1366              $C$DW$99        .dwtag  DW_TAG_member
    1367                      .dwattr $C$DW$99, DW_AT_type(*$C$DW$T$19)
    1368                      .dwattr $C$DW$99, DW_AT_name("SYSPLLCTL2")
    1369                      .dwattr $C$DW$99, DW_AT_TI_symbol_name("_SYSPLLCTL2")
    1370                      .dwattr $C$DW$99, DW_AT_bit_offset(0x0b)
    1371                      .dwattr $C$DW$99, DW_AT_bit_size(0x01)
    1372                      .dwattr $C$DW$99, DW_AT_data_member_location[DW_OP_plus_uconst 0x0]
    1373                      .dwattr $C$DW$99, DW_AT_accessibility(DW_ACCESS_public)
    1374              
    1375              $C$DW$100       .dwtag  DW_TAG_member
    1376                      .dwattr $C$DW$100, DW_AT_type(*$C$DW$T$19)
    1377                      .dwattr $C$DW$100, DW_AT_name("SYSPLLCTL3")
    1378                      .dwattr $C$DW$100, DW_AT_TI_symbol_name("_SYSPLLCTL3")
    1379                      .dwattr $C$DW$100, DW_AT_bit_offset(0x0a)
    1380                      .dwattr $C$DW$100, DW_AT_bit_size(0x01)
    1381                      .dwattr $C$DW$100, DW_AT_data_member_location[DW_OP_plus_uconst 0x0]
    1382                      .dwattr $C$DW$100, DW_AT_accessibility(DW_ACCESS_public)
    1383              
    1384              $C$DW$101       .dwtag  DW_TAG_member
    1385                      .dwattr $C$DW$101, DW_AT_type(*$C$DW$T$19)
    1386                      .dwattr $C$DW$101, DW_AT_name("SYSPLLMULT")
    1387                      .dwattr $C$DW$101, DW_AT_TI_symbol_name("_SYSPLLMULT")
    1388                      .dwattr $C$DW$101, DW_AT_bit_offset(0x09)
    1389                      .dwattr $C$DW$101, DW_AT_bit_size(0x01)
    1390                      .dwattr $C$DW$101, DW_AT_data_member_location[DW_OP_plus_uconst 0x0]
    1391                      .dwattr $C$DW$101, DW_AT_accessibility(DW_ACCESS_public)
    1392              
    1393              $C$DW$102       .dwtag  DW_TAG_member
    1394                      .dwattr $C$DW$102, DW_AT_type(*$C$DW$T$19)
    1395                      .dwattr $C$DW$102, DW_AT_name("AUXPLLCTL1")
    1396                      .dwattr $C$DW$102, DW_AT_TI_symbol_name("_AUXPLLCTL1")
    1397                      .dwattr $C$DW$102, DW_AT_bit_offset(0x08)
    1398                      .dwattr $C$DW$102, DW_AT_bit_size(0x01)
    1399                      .dwattr $C$DW$102, DW_AT_data_member_location[DW_OP_plus_uconst 0x0]
    1400                      .dwattr $C$DW$102, DW_AT_accessibility(DW_ACCESS_public)
    1401              
    1402              $C$DW$103       .dwtag  DW_TAG_member
    1403                      .dwattr $C$DW$103, DW_AT_type(*$C$DW$T$19)
    1404                      .dwattr $C$DW$103, DW_AT_name("rsvd1")
    1405                      .dwattr $C$DW$103, DW_AT_TI_symbol_name("_rsvd1")
    1406                      .dwattr $C$DW$103, DW_AT_bit_offset(0x07)
TMS320C2000 Assembler PC v18.1.2 Fri Dec 14 17:55:30 2018

Tools Copyright (c) 1996-2017 Texas Instruments Incorporated
F2837xD_Ipc_Driver_Util.asm                                          PAGE   28

    1407                      .dwattr $C$DW$103, DW_AT_bit_size(0x01)
    1408                      .dwattr $C$DW$103, DW_AT_data_member_location[DW_OP_plus_uconst 0x0]
    1409                      .dwattr $C$DW$103, DW_AT_accessibility(DW_ACCESS_public)
    1410              
    1411              $C$DW$104       .dwtag  DW_TAG_member
    1412                      .dwattr $C$DW$104, DW_AT_type(*$C$DW$T$19)
    1413                      .dwattr $C$DW$104, DW_AT_name("rsvd2")
    1414                      .dwattr $C$DW$104, DW_AT_TI_symbol_name("_rsvd2")
    1415                      .dwattr $C$DW$104, DW_AT_bit_offset(0x06)
    1416                      .dwattr $C$DW$104, DW_AT_bit_size(0x01)
    1417                      .dwattr $C$DW$104, DW_AT_data_member_location[DW_OP_plus_uconst 0x0]
    1418                      .dwattr $C$DW$104, DW_AT_accessibility(DW_ACCESS_public)
    1419              
    1420              $C$DW$105       .dwtag  DW_TAG_member
    1421                      .dwattr $C$DW$105, DW_AT_type(*$C$DW$T$19)
    1422                      .dwattr $C$DW$105, DW_AT_name("AUXPLLMULT")
    1423                      .dwattr $C$DW$105, DW_AT_TI_symbol_name("_AUXPLLMULT")
    1424                      .dwattr $C$DW$105, DW_AT_bit_offset(0x05)
    1425                      .dwattr $C$DW$105, DW_AT_bit_size(0x01)
    1426                      .dwattr $C$DW$105, DW_AT_data_member_location[DW_OP_plus_uconst 0x0]
    1427                      .dwattr $C$DW$105, DW_AT_accessibility(DW_ACCESS_public)
    1428              
    1429              $C$DW$106       .dwtag  DW_TAG_member
    1430                      .dwattr $C$DW$106, DW_AT_type(*$C$DW$T$19)
    1431                      .dwattr $C$DW$106, DW_AT_name("SYSCLKDIVSEL")
    1432                      .dwattr $C$DW$106, DW_AT_TI_symbol_name("_SYSCLKDIVSEL")
    1433                      .dwattr $C$DW$106, DW_AT_bit_offset(0x04)
    1434                      .dwattr $C$DW$106, DW_AT_bit_size(0x01)
    1435                      .dwattr $C$DW$106, DW_AT_data_member_location[DW_OP_plus_uconst 0x0]
    1436                      .dwattr $C$DW$106, DW_AT_accessibility(DW_ACCESS_public)
    1437              
    1438              $C$DW$107       .dwtag  DW_TAG_member
    1439                      .dwattr $C$DW$107, DW_AT_type(*$C$DW$T$19)
    1440                      .dwattr $C$DW$107, DW_AT_name("AUXCLKDIVSEL")
    1441                      .dwattr $C$DW$107, DW_AT_TI_symbol_name("_AUXCLKDIVSEL")
    1442                      .dwattr $C$DW$107, DW_AT_bit_offset(0x03)
    1443                      .dwattr $C$DW$107, DW_AT_bit_size(0x01)
    1444                      .dwattr $C$DW$107, DW_AT_data_member_location[DW_OP_plus_uconst 0x0]
    1445                      .dwattr $C$DW$107, DW_AT_accessibility(DW_ACCESS_public)
    1446              
    1447              $C$DW$108       .dwtag  DW_TAG_member
    1448                      .dwattr $C$DW$108, DW_AT_type(*$C$DW$T$19)
    1449                      .dwattr $C$DW$108, DW_AT_name("PERCLKDIVSEL")
    1450                      .dwattr $C$DW$108, DW_AT_TI_symbol_name("_PERCLKDIVSEL")
    1451                      .dwattr $C$DW$108, DW_AT_bit_offset(0x02)
    1452                      .dwattr $C$DW$108, DW_AT_bit_size(0x01)
    1453                      .dwattr $C$DW$108, DW_AT_data_member_location[DW_OP_plus_uconst 0x0]
    1454                      .dwattr $C$DW$108, DW_AT_accessibility(DW_ACCESS_public)
    1455              
    1456              $C$DW$109       .dwtag  DW_TAG_member
    1457                      .dwattr $C$DW$109, DW_AT_type(*$C$DW$T$19)
    1458                      .dwattr $C$DW$109, DW_AT_name("rsvd3")
    1459                      .dwattr $C$DW$109, DW_AT_TI_symbol_name("_rsvd3")
    1460                      .dwattr $C$DW$109, DW_AT_bit_offset(0x01)
    1461                      .dwattr $C$DW$109, DW_AT_bit_size(0x01)
TMS320C2000 Assembler PC v18.1.2 Fri Dec 14 17:55:30 2018

Tools Copyright (c) 1996-2017 Texas Instruments Incorporated
F2837xD_Ipc_Driver_Util.asm                                          PAGE   29

    1462                      .dwattr $C$DW$109, DW_AT_data_member_location[DW_OP_plus_uconst 0x0]
    1463                      .dwattr $C$DW$109, DW_AT_accessibility(DW_ACCESS_public)
    1464              
    1465              $C$DW$110       .dwtag  DW_TAG_member
    1466                      .dwattr $C$DW$110, DW_AT_type(*$C$DW$T$19)
    1467                      .dwattr $C$DW$110, DW_AT_name("LOSPCP")
    1468                      .dwattr $C$DW$110, DW_AT_TI_symbol_name("_LOSPCP")
    1469                      .dwattr $C$DW$110, DW_AT_bit_offset(0x00)
    1470                      .dwattr $C$DW$110, DW_AT_bit_size(0x01)
    1471                      .dwattr $C$DW$110, DW_AT_data_member_location[DW_OP_plus_uconst 0x0]
    1472                      .dwattr $C$DW$110, DW_AT_accessibility(DW_ACCESS_public)
    1473              
    1474              $C$DW$111       .dwtag  DW_TAG_member
    1475                      .dwattr $C$DW$111, DW_AT_type(*$C$DW$T$19)
    1476                      .dwattr $C$DW$111, DW_AT_name("rsvd4")
    1477                      .dwattr $C$DW$111, DW_AT_TI_symbol_name("_rsvd4")
    1478                      .dwattr $C$DW$111, DW_AT_bit_offset(0x00)
    1479                      .dwattr $C$DW$111, DW_AT_bit_size(0x10)
    1480                      .dwattr $C$DW$111, DW_AT_data_member_location[DW_OP_plus_uconst 0x1]
    1481                      .dwattr $C$DW$111, DW_AT_accessibility(DW_ACCESS_public)
    1482              
    1483                      .dwendtag $C$DW$T$29
    1484              
    1485              
    1486              $C$DW$T$30      .dwtag  DW_TAG_union_type
    1487                      .dwattr $C$DW$T$30, DW_AT_name("CLKCFGLOCK1_REG")
    1488                      .dwattr $C$DW$T$30, DW_AT_byte_size(0x02)
    1489              $C$DW$112       .dwtag  DW_TAG_member
    1490                      .dwattr $C$DW$112, DW_AT_type(*$C$DW$T$21)
    1491                      .dwattr $C$DW$112, DW_AT_name("all")
    1492                      .dwattr $C$DW$112, DW_AT_TI_symbol_name("_all")
    1493                      .dwattr $C$DW$112, DW_AT_data_member_location[DW_OP_plus_uconst 0x0]
    1494                      .dwattr $C$DW$112, DW_AT_accessibility(DW_ACCESS_public)
    1495              
    1496              $C$DW$113       .dwtag  DW_TAG_member
    1497                      .dwattr $C$DW$113, DW_AT_type(*$C$DW$T$29)
    1498                      .dwattr $C$DW$113, DW_AT_name("bit")
    1499                      .dwattr $C$DW$113, DW_AT_TI_symbol_name("_bit")
    1500                      .dwattr $C$DW$113, DW_AT_data_member_location[DW_OP_plus_uconst 0x0]
    1501                      .dwattr $C$DW$113, DW_AT_accessibility(DW_ACCESS_public)
    1502              
    1503                      .dwendtag $C$DW$T$30
    1504              
    1505              
    1506              $C$DW$T$31      .dwtag  DW_TAG_structure_type
    1507                      .dwattr $C$DW$T$31, DW_AT_name("CLKSEM_BITS")
    1508                      .dwattr $C$DW$T$31, DW_AT_byte_size(0x02)
    1509              $C$DW$114       .dwtag  DW_TAG_member
    1510                      .dwattr $C$DW$114, DW_AT_type(*$C$DW$T$19)
    1511                      .dwattr $C$DW$114, DW_AT_name("SEM")
    1512                      .dwattr $C$DW$114, DW_AT_TI_symbol_name("_SEM")
    1513                      .dwattr $C$DW$114, DW_AT_bit_offset(0x0e)
    1514                      .dwattr $C$DW$114, DW_AT_bit_size(0x02)
    1515                      .dwattr $C$DW$114, DW_AT_data_member_location[DW_OP_plus_uconst 0x0]
    1516                      .dwattr $C$DW$114, DW_AT_accessibility(DW_ACCESS_public)
TMS320C2000 Assembler PC v18.1.2 Fri Dec 14 17:55:30 2018

Tools Copyright (c) 1996-2017 Texas Instruments Incorporated
F2837xD_Ipc_Driver_Util.asm                                          PAGE   30

    1517              
    1518              $C$DW$115       .dwtag  DW_TAG_member
    1519                      .dwattr $C$DW$115, DW_AT_type(*$C$DW$T$19)
    1520                      .dwattr $C$DW$115, DW_AT_name("rsvd1")
    1521                      .dwattr $C$DW$115, DW_AT_TI_symbol_name("_rsvd1")
    1522                      .dwattr $C$DW$115, DW_AT_bit_offset(0x00)
    1523                      .dwattr $C$DW$115, DW_AT_bit_size(0x0e)
    1524                      .dwattr $C$DW$115, DW_AT_data_member_location[DW_OP_plus_uconst 0x0]
    1525                      .dwattr $C$DW$115, DW_AT_accessibility(DW_ACCESS_public)
    1526              
    1527              $C$DW$116       .dwtag  DW_TAG_member
    1528                      .dwattr $C$DW$116, DW_AT_type(*$C$DW$T$19)
    1529                      .dwattr $C$DW$116, DW_AT_name("KEY")
    1530                      .dwattr $C$DW$116, DW_AT_TI_symbol_name("_KEY")
    1531                      .dwattr $C$DW$116, DW_AT_bit_offset(0x00)
    1532                      .dwattr $C$DW$116, DW_AT_bit_size(0x10)
    1533                      .dwattr $C$DW$116, DW_AT_data_member_location[DW_OP_plus_uconst 0x1]
    1534                      .dwattr $C$DW$116, DW_AT_accessibility(DW_ACCESS_public)
    1535              
    1536                      .dwendtag $C$DW$T$31
    1537              
    1538              
    1539              $C$DW$T$32      .dwtag  DW_TAG_union_type
    1540                      .dwattr $C$DW$T$32, DW_AT_name("CLKSEM_REG")
    1541                      .dwattr $C$DW$T$32, DW_AT_byte_size(0x02)
    1542              $C$DW$117       .dwtag  DW_TAG_member
    1543                      .dwattr $C$DW$117, DW_AT_type(*$C$DW$T$21)
    1544                      .dwattr $C$DW$117, DW_AT_name("all")
    1545                      .dwattr $C$DW$117, DW_AT_TI_symbol_name("_all")
    1546                      .dwattr $C$DW$117, DW_AT_data_member_location[DW_OP_plus_uconst 0x0]
    1547                      .dwattr $C$DW$117, DW_AT_accessibility(DW_ACCESS_public)
    1548              
    1549              $C$DW$118       .dwtag  DW_TAG_member
    1550                      .dwattr $C$DW$118, DW_AT_type(*$C$DW$T$31)
    1551                      .dwattr $C$DW$118, DW_AT_name("bit")
    1552                      .dwattr $C$DW$118, DW_AT_TI_symbol_name("_bit")
    1553                      .dwattr $C$DW$118, DW_AT_data_member_location[DW_OP_plus_uconst 0x0]
    1554                      .dwattr $C$DW$118, DW_AT_accessibility(DW_ACCESS_public)
    1555              
    1556                      .dwendtag $C$DW$T$32
    1557              
    1558              
    1559              $C$DW$T$33      .dwtag  DW_TAG_structure_type
    1560                      .dwattr $C$DW$T$33, DW_AT_name("CLKSRCCTL1_BITS")
    1561                      .dwattr $C$DW$T$33, DW_AT_byte_size(0x02)
    1562              $C$DW$119       .dwtag  DW_TAG_member
    1563                      .dwattr $C$DW$119, DW_AT_type(*$C$DW$T$19)
    1564                      .dwattr $C$DW$119, DW_AT_name("OSCCLKSRCSEL")
    1565                      .dwattr $C$DW$119, DW_AT_TI_symbol_name("_OSCCLKSRCSEL")
    1566                      .dwattr $C$DW$119, DW_AT_bit_offset(0x0e)
    1567                      .dwattr $C$DW$119, DW_AT_bit_size(0x02)
    1568                      .dwattr $C$DW$119, DW_AT_data_member_location[DW_OP_plus_uconst 0x0]
    1569                      .dwattr $C$DW$119, DW_AT_accessibility(DW_ACCESS_public)
    1570              
    1571              $C$DW$120       .dwtag  DW_TAG_member
TMS320C2000 Assembler PC v18.1.2 Fri Dec 14 17:55:30 2018

Tools Copyright (c) 1996-2017 Texas Instruments Incorporated
F2837xD_Ipc_Driver_Util.asm                                          PAGE   31

    1572                      .dwattr $C$DW$120, DW_AT_type(*$C$DW$T$19)
    1573                      .dwattr $C$DW$120, DW_AT_name("rsvd1")
    1574                      .dwattr $C$DW$120, DW_AT_TI_symbol_name("_rsvd1")
    1575                      .dwattr $C$DW$120, DW_AT_bit_offset(0x0d)
    1576                      .dwattr $C$DW$120, DW_AT_bit_size(0x01)
    1577                      .dwattr $C$DW$120, DW_AT_data_member_location[DW_OP_plus_uconst 0x0]
    1578                      .dwattr $C$DW$120, DW_AT_accessibility(DW_ACCESS_public)
    1579              
    1580              $C$DW$121       .dwtag  DW_TAG_member
    1581                      .dwattr $C$DW$121, DW_AT_type(*$C$DW$T$19)
    1582                      .dwattr $C$DW$121, DW_AT_name("INTOSC2OFF")
    1583                      .dwattr $C$DW$121, DW_AT_TI_symbol_name("_INTOSC2OFF")
    1584                      .dwattr $C$DW$121, DW_AT_bit_offset(0x0c)
    1585                      .dwattr $C$DW$121, DW_AT_bit_size(0x01)
    1586                      .dwattr $C$DW$121, DW_AT_data_member_location[DW_OP_plus_uconst 0x0]
    1587                      .dwattr $C$DW$121, DW_AT_accessibility(DW_ACCESS_public)
    1588              
    1589              $C$DW$122       .dwtag  DW_TAG_member
    1590                      .dwattr $C$DW$122, DW_AT_type(*$C$DW$T$19)
    1591                      .dwattr $C$DW$122, DW_AT_name("XTALOFF")
    1592                      .dwattr $C$DW$122, DW_AT_TI_symbol_name("_XTALOFF")
    1593                      .dwattr $C$DW$122, DW_AT_bit_offset(0x0b)
    1594                      .dwattr $C$DW$122, DW_AT_bit_size(0x01)
    1595                      .dwattr $C$DW$122, DW_AT_data_member_location[DW_OP_plus_uconst 0x0]
    1596                      .dwattr $C$DW$122, DW_AT_accessibility(DW_ACCESS_public)
    1597              
    1598              $C$DW$123       .dwtag  DW_TAG_member
    1599                      .dwattr $C$DW$123, DW_AT_type(*$C$DW$T$19)
    1600                      .dwattr $C$DW$123, DW_AT_name("WDHALTI")
    1601                      .dwattr $C$DW$123, DW_AT_TI_symbol_name("_WDHALTI")
    1602                      .dwattr $C$DW$123, DW_AT_bit_offset(0x0a)
    1603                      .dwattr $C$DW$123, DW_AT_bit_size(0x01)
    1604                      .dwattr $C$DW$123, DW_AT_data_member_location[DW_OP_plus_uconst 0x0]
    1605                      .dwattr $C$DW$123, DW_AT_accessibility(DW_ACCESS_public)
    1606              
    1607              $C$DW$124       .dwtag  DW_TAG_member
    1608                      .dwattr $C$DW$124, DW_AT_type(*$C$DW$T$19)
    1609                      .dwattr $C$DW$124, DW_AT_name("rsvd2")
    1610                      .dwattr $C$DW$124, DW_AT_TI_symbol_name("_rsvd2")
    1611                      .dwattr $C$DW$124, DW_AT_bit_offset(0x00)
    1612                      .dwattr $C$DW$124, DW_AT_bit_size(0x0a)
    1613                      .dwattr $C$DW$124, DW_AT_data_member_location[DW_OP_plus_uconst 0x0]
    1614                      .dwattr $C$DW$124, DW_AT_accessibility(DW_ACCESS_public)
    1615              
    1616              $C$DW$125       .dwtag  DW_TAG_member
    1617                      .dwattr $C$DW$125, DW_AT_type(*$C$DW$T$19)
    1618                      .dwattr $C$DW$125, DW_AT_name("rsvd3")
    1619                      .dwattr $C$DW$125, DW_AT_TI_symbol_name("_rsvd3")
    1620                      .dwattr $C$DW$125, DW_AT_bit_offset(0x00)
    1621                      .dwattr $C$DW$125, DW_AT_bit_size(0x10)
    1622                      .dwattr $C$DW$125, DW_AT_data_member_location[DW_OP_plus_uconst 0x1]
    1623                      .dwattr $C$DW$125, DW_AT_accessibility(DW_ACCESS_public)
    1624              
    1625                      .dwendtag $C$DW$T$33
    1626              
TMS320C2000 Assembler PC v18.1.2 Fri Dec 14 17:55:30 2018

Tools Copyright (c) 1996-2017 Texas Instruments Incorporated
F2837xD_Ipc_Driver_Util.asm                                          PAGE   32

    1627              
    1628              $C$DW$T$34      .dwtag  DW_TAG_union_type
    1629                      .dwattr $C$DW$T$34, DW_AT_name("CLKSRCCTL1_REG")
    1630                      .dwattr $C$DW$T$34, DW_AT_byte_size(0x02)
    1631              $C$DW$126       .dwtag  DW_TAG_member
    1632                      .dwattr $C$DW$126, DW_AT_type(*$C$DW$T$21)
    1633                      .dwattr $C$DW$126, DW_AT_name("all")
    1634                      .dwattr $C$DW$126, DW_AT_TI_symbol_name("_all")
    1635                      .dwattr $C$DW$126, DW_AT_data_member_location[DW_OP_plus_uconst 0x0]
    1636                      .dwattr $C$DW$126, DW_AT_accessibility(DW_ACCESS_public)
    1637              
    1638              $C$DW$127       .dwtag  DW_TAG_member
    1639                      .dwattr $C$DW$127, DW_AT_type(*$C$DW$T$33)
    1640                      .dwattr $C$DW$127, DW_AT_name("bit")
    1641                      .dwattr $C$DW$127, DW_AT_TI_symbol_name("_bit")
    1642                      .dwattr $C$DW$127, DW_AT_data_member_location[DW_OP_plus_uconst 0x0]
    1643                      .dwattr $C$DW$127, DW_AT_accessibility(DW_ACCESS_public)
    1644              
    1645                      .dwendtag $C$DW$T$34
    1646              
    1647              
    1648              $C$DW$T$35      .dwtag  DW_TAG_structure_type
    1649                      .dwattr $C$DW$T$35, DW_AT_name("CLKSRCCTL2_BITS")
    1650                      .dwattr $C$DW$T$35, DW_AT_byte_size(0x02)
    1651              $C$DW$128       .dwtag  DW_TAG_member
    1652                      .dwattr $C$DW$128, DW_AT_type(*$C$DW$T$19)
    1653                      .dwattr $C$DW$128, DW_AT_name("AUXOSCCLKSRCSEL")
    1654                      .dwattr $C$DW$128, DW_AT_TI_symbol_name("_AUXOSCCLKSRCSEL")
    1655                      .dwattr $C$DW$128, DW_AT_bit_offset(0x0e)
    1656                      .dwattr $C$DW$128, DW_AT_bit_size(0x02)
    1657                      .dwattr $C$DW$128, DW_AT_data_member_location[DW_OP_plus_uconst 0x0]
    1658                      .dwattr $C$DW$128, DW_AT_accessibility(DW_ACCESS_public)
    1659              
    1660              $C$DW$129       .dwtag  DW_TAG_member
    1661                      .dwattr $C$DW$129, DW_AT_type(*$C$DW$T$19)
    1662                      .dwattr $C$DW$129, DW_AT_name("CANABCLKSEL")
    1663                      .dwattr $C$DW$129, DW_AT_TI_symbol_name("_CANABCLKSEL")
    1664                      .dwattr $C$DW$129, DW_AT_bit_offset(0x0c)
    1665                      .dwattr $C$DW$129, DW_AT_bit_size(0x02)
    1666                      .dwattr $C$DW$129, DW_AT_data_member_location[DW_OP_plus_uconst 0x0]
    1667                      .dwattr $C$DW$129, DW_AT_accessibility(DW_ACCESS_public)
    1668              
    1669              $C$DW$130       .dwtag  DW_TAG_member
    1670                      .dwattr $C$DW$130, DW_AT_type(*$C$DW$T$19)
    1671                      .dwattr $C$DW$130, DW_AT_name("CANBBCLKSEL")
    1672                      .dwattr $C$DW$130, DW_AT_TI_symbol_name("_CANBBCLKSEL")
    1673                      .dwattr $C$DW$130, DW_AT_bit_offset(0x0a)
    1674                      .dwattr $C$DW$130, DW_AT_bit_size(0x02)
    1675                      .dwattr $C$DW$130, DW_AT_data_member_location[DW_OP_plus_uconst 0x0]
    1676                      .dwattr $C$DW$130, DW_AT_accessibility(DW_ACCESS_public)
    1677              
    1678              $C$DW$131       .dwtag  DW_TAG_member
    1679                      .dwattr $C$DW$131, DW_AT_type(*$C$DW$T$19)
    1680                      .dwattr $C$DW$131, DW_AT_name("rsvd1")
    1681                      .dwattr $C$DW$131, DW_AT_TI_symbol_name("_rsvd1")
TMS320C2000 Assembler PC v18.1.2 Fri Dec 14 17:55:30 2018

Tools Copyright (c) 1996-2017 Texas Instruments Incorporated
F2837xD_Ipc_Driver_Util.asm                                          PAGE   33

    1682                      .dwattr $C$DW$131, DW_AT_bit_offset(0x08)
    1683                      .dwattr $C$DW$131, DW_AT_bit_size(0x02)
    1684                      .dwattr $C$DW$131, DW_AT_data_member_location[DW_OP_plus_uconst 0x0]
    1685                      .dwattr $C$DW$131, DW_AT_accessibility(DW_ACCESS_public)
    1686              
    1687              $C$DW$132       .dwtag  DW_TAG_member
    1688                      .dwattr $C$DW$132, DW_AT_type(*$C$DW$T$19)
    1689                      .dwattr $C$DW$132, DW_AT_name("rsvd2")
    1690                      .dwattr $C$DW$132, DW_AT_TI_symbol_name("_rsvd2")
    1691                      .dwattr $C$DW$132, DW_AT_bit_offset(0x06)
    1692                      .dwattr $C$DW$132, DW_AT_bit_size(0x02)
    1693                      .dwattr $C$DW$132, DW_AT_data_member_location[DW_OP_plus_uconst 0x0]
    1694                      .dwattr $C$DW$132, DW_AT_accessibility(DW_ACCESS_public)
    1695              
    1696              $C$DW$133       .dwtag  DW_TAG_member
    1697                      .dwattr $C$DW$133, DW_AT_type(*$C$DW$T$19)
    1698                      .dwattr $C$DW$133, DW_AT_name("rsvd3")
    1699                      .dwattr $C$DW$133, DW_AT_TI_symbol_name("_rsvd3")
    1700                      .dwattr $C$DW$133, DW_AT_bit_offset(0x00)
    1701                      .dwattr $C$DW$133, DW_AT_bit_size(0x06)
    1702                      .dwattr $C$DW$133, DW_AT_data_member_location[DW_OP_plus_uconst 0x0]
    1703                      .dwattr $C$DW$133, DW_AT_accessibility(DW_ACCESS_public)
    1704              
    1705              $C$DW$134       .dwtag  DW_TAG_member
    1706                      .dwattr $C$DW$134, DW_AT_type(*$C$DW$T$19)
    1707                      .dwattr $C$DW$134, DW_AT_name("rsvd4")
    1708                      .dwattr $C$DW$134, DW_AT_TI_symbol_name("_rsvd4")
    1709                      .dwattr $C$DW$134, DW_AT_bit_offset(0x00)
    1710                      .dwattr $C$DW$134, DW_AT_bit_size(0x10)
    1711                      .dwattr $C$DW$134, DW_AT_data_member_location[DW_OP_plus_uconst 0x1]
    1712                      .dwattr $C$DW$134, DW_AT_accessibility(DW_ACCESS_public)
    1713              
    1714                      .dwendtag $C$DW$T$35
    1715              
    1716              
    1717              $C$DW$T$36      .dwtag  DW_TAG_union_type
    1718                      .dwattr $C$DW$T$36, DW_AT_name("CLKSRCCTL2_REG")
    1719                      .dwattr $C$DW$T$36, DW_AT_byte_size(0x02)
    1720              $C$DW$135       .dwtag  DW_TAG_member
    1721                      .dwattr $C$DW$135, DW_AT_type(*$C$DW$T$21)
    1722                      .dwattr $C$DW$135, DW_AT_name("all")
    1723                      .dwattr $C$DW$135, DW_AT_TI_symbol_name("_all")
    1724                      .dwattr $C$DW$135, DW_AT_data_member_location[DW_OP_plus_uconst 0x0]
    1725                      .dwattr $C$DW$135, DW_AT_accessibility(DW_ACCESS_public)
    1726              
    1727              $C$DW$136       .dwtag  DW_TAG_member
    1728                      .dwattr $C$DW$136, DW_AT_type(*$C$DW$T$35)
    1729                      .dwattr $C$DW$136, DW_AT_name("bit")
    1730                      .dwattr $C$DW$136, DW_AT_TI_symbol_name("_bit")
    1731                      .dwattr $C$DW$136, DW_AT_data_member_location[DW_OP_plus_uconst 0x0]
    1732                      .dwattr $C$DW$136, DW_AT_accessibility(DW_ACCESS_public)
    1733              
    1734                      .dwendtag $C$DW$T$36
    1735              
    1736              
TMS320C2000 Assembler PC v18.1.2 Fri Dec 14 17:55:30 2018

Tools Copyright (c) 1996-2017 Texas Instruments Incorporated
F2837xD_Ipc_Driver_Util.asm                                          PAGE   34

    1737              $C$DW$T$37      .dwtag  DW_TAG_structure_type
    1738                      .dwattr $C$DW$T$37, DW_AT_name("CLKSRCCTL3_BITS")
    1739                      .dwattr $C$DW$T$37, DW_AT_byte_size(0x02)
    1740              $C$DW$137       .dwtag  DW_TAG_member
    1741                      .dwattr $C$DW$137, DW_AT_type(*$C$DW$T$19)
    1742                      .dwattr $C$DW$137, DW_AT_name("XCLKOUTSEL")
    1743                      .dwattr $C$DW$137, DW_AT_TI_symbol_name("_XCLKOUTSEL")
    1744                      .dwattr $C$DW$137, DW_AT_bit_offset(0x0d)
    1745                      .dwattr $C$DW$137, DW_AT_bit_size(0x03)
    1746                      .dwattr $C$DW$137, DW_AT_data_member_location[DW_OP_plus_uconst 0x0]
    1747                      .dwattr $C$DW$137, DW_AT_accessibility(DW_ACCESS_public)
    1748              
    1749              $C$DW$138       .dwtag  DW_TAG_member
    1750                      .dwattr $C$DW$138, DW_AT_type(*$C$DW$T$19)
    1751                      .dwattr $C$DW$138, DW_AT_name("rsvd1")
    1752                      .dwattr $C$DW$138, DW_AT_TI_symbol_name("_rsvd1")
    1753                      .dwattr $C$DW$138, DW_AT_bit_offset(0x00)
    1754                      .dwattr $C$DW$138, DW_AT_bit_size(0x0d)
    1755                      .dwattr $C$DW$138, DW_AT_data_member_location[DW_OP_plus_uconst 0x0]
    1756                      .dwattr $C$DW$138, DW_AT_accessibility(DW_ACCESS_public)
    1757              
    1758              $C$DW$139       .dwtag  DW_TAG_member
    1759                      .dwattr $C$DW$139, DW_AT_type(*$C$DW$T$19)
    1760                      .dwattr $C$DW$139, DW_AT_name("rsvd2")
    1761                      .dwattr $C$DW$139, DW_AT_TI_symbol_name("_rsvd2")
    1762                      .dwattr $C$DW$139, DW_AT_bit_offset(0x00)
    1763                      .dwattr $C$DW$139, DW_AT_bit_size(0x10)
    1764                      .dwattr $C$DW$139, DW_AT_data_member_location[DW_OP_plus_uconst 0x1]
    1765                      .dwattr $C$DW$139, DW_AT_accessibility(DW_ACCESS_public)
    1766              
    1767                      .dwendtag $C$DW$T$37
    1768              
    1769              
    1770              $C$DW$T$38      .dwtag  DW_TAG_union_type
    1771                      .dwattr $C$DW$T$38, DW_AT_name("CLKSRCCTL3_REG")
    1772                      .dwattr $C$DW$T$38, DW_AT_byte_size(0x02)
    1773              $C$DW$140       .dwtag  DW_TAG_member
    1774                      .dwattr $C$DW$140, DW_AT_type(*$C$DW$T$21)
    1775                      .dwattr $C$DW$140, DW_AT_name("all")
    1776                      .dwattr $C$DW$140, DW_AT_TI_symbol_name("_all")
    1777                      .dwattr $C$DW$140, DW_AT_data_member_location[DW_OP_plus_uconst 0x0]
    1778                      .dwattr $C$DW$140, DW_AT_accessibility(DW_ACCESS_public)
    1779              
    1780              $C$DW$141       .dwtag  DW_TAG_member
    1781                      .dwattr $C$DW$141, DW_AT_type(*$C$DW$T$37)
    1782                      .dwattr $C$DW$141, DW_AT_name("bit")
    1783                      .dwattr $C$DW$141, DW_AT_TI_symbol_name("_bit")
    1784                      .dwattr $C$DW$141, DW_AT_data_member_location[DW_OP_plus_uconst 0x0]
    1785                      .dwattr $C$DW$141, DW_AT_accessibility(DW_ACCESS_public)
    1786              
    1787                      .dwendtag $C$DW$T$38
    1788              
    1789              
    1790              $C$DW$T$41      .dwtag  DW_TAG_structure_type
    1791                      .dwattr $C$DW$T$41, DW_AT_name("CLK_CFG_REGS")
TMS320C2000 Assembler PC v18.1.2 Fri Dec 14 17:55:30 2018

Tools Copyright (c) 1996-2017 Texas Instruments Incorporated
F2837xD_Ipc_Driver_Util.asm                                          PAGE   35

    1792                      .dwattr $C$DW$T$41, DW_AT_byte_size(0x32)
    1793              $C$DW$142       .dwtag  DW_TAG_member
    1794                      .dwattr $C$DW$142, DW_AT_type(*$C$DW$T$32)
    1795                      .dwattr $C$DW$142, DW_AT_name("CLKSEM")
    1796                      .dwattr $C$DW$142, DW_AT_TI_symbol_name("_CLKSEM")
    1797                      .dwattr $C$DW$142, DW_AT_data_member_location[DW_OP_plus_uconst 0x0]
    1798                      .dwattr $C$DW$142, DW_AT_accessibility(DW_ACCESS_public)
    1799              
    1800              $C$DW$143       .dwtag  DW_TAG_member
    1801                      .dwattr $C$DW$143, DW_AT_type(*$C$DW$T$30)
    1802                      .dwattr $C$DW$143, DW_AT_name("CLKCFGLOCK1")
    1803                      .dwattr $C$DW$143, DW_AT_TI_symbol_name("_CLKCFGLOCK1")
    1804                      .dwattr $C$DW$143, DW_AT_data_member_location[DW_OP_plus_uconst 0x2]
    1805                      .dwattr $C$DW$143, DW_AT_accessibility(DW_ACCESS_public)
    1806              
    1807              $C$DW$144       .dwtag  DW_TAG_member
    1808                      .dwattr $C$DW$144, DW_AT_type(*$C$DW$T$39)
    1809                      .dwattr $C$DW$144, DW_AT_name("rsvd1")
    1810                      .dwattr $C$DW$144, DW_AT_TI_symbol_name("_rsvd1")
    1811                      .dwattr $C$DW$144, DW_AT_data_member_location[DW_OP_plus_uconst 0x4]
    1812                      .dwattr $C$DW$144, DW_AT_accessibility(DW_ACCESS_public)
    1813              
    1814              $C$DW$145       .dwtag  DW_TAG_member
    1815                      .dwattr $C$DW$145, DW_AT_type(*$C$DW$T$34)
    1816                      .dwattr $C$DW$145, DW_AT_name("CLKSRCCTL1")
    1817                      .dwattr $C$DW$145, DW_AT_TI_symbol_name("_CLKSRCCTL1")
    1818                      .dwattr $C$DW$145, DW_AT_data_member_location[DW_OP_plus_uconst 0x8]
    1819                      .dwattr $C$DW$145, DW_AT_accessibility(DW_ACCESS_public)
    1820              
    1821              $C$DW$146       .dwtag  DW_TAG_member
    1822                      .dwattr $C$DW$146, DW_AT_type(*$C$DW$T$36)
    1823                      .dwattr $C$DW$146, DW_AT_name("CLKSRCCTL2")
    1824                      .dwattr $C$DW$146, DW_AT_TI_symbol_name("_CLKSRCCTL2")
    1825                      .dwattr $C$DW$146, DW_AT_data_member_location[DW_OP_plus_uconst 0xa]
    1826                      .dwattr $C$DW$146, DW_AT_accessibility(DW_ACCESS_public)
    1827              
    1828              $C$DW$147       .dwtag  DW_TAG_member
    1829                      .dwattr $C$DW$147, DW_AT_type(*$C$DW$T$38)
    1830                      .dwattr $C$DW$147, DW_AT_name("CLKSRCCTL3")
    1831                      .dwattr $C$DW$147, DW_AT_TI_symbol_name("_CLKSRCCTL3")
    1832                      .dwattr $C$DW$147, DW_AT_data_member_location[DW_OP_plus_uconst 0xc]
    1833                      .dwattr $C$DW$147, DW_AT_accessibility(DW_ACCESS_public)
    1834              
    1835              $C$DW$148       .dwtag  DW_TAG_member
    1836                      .dwattr $C$DW$148, DW_AT_type(*$C$DW$T$423)
    1837                      .dwattr $C$DW$148, DW_AT_name("SYSPLLCTL1")
    1838                      .dwattr $C$DW$148, DW_AT_TI_symbol_name("_SYSPLLCTL1")
    1839                      .dwattr $C$DW$148, DW_AT_data_member_location[DW_OP_plus_uconst 0xe]
    1840                      .dwattr $C$DW$148, DW_AT_accessibility(DW_ACCESS_public)
    1841              
    1842              $C$DW$149       .dwtag  DW_TAG_member
    1843                      .dwattr $C$DW$149, DW_AT_type(*$C$DW$T$39)
    1844                      .dwattr $C$DW$149, DW_AT_name("rsvd2")
    1845                      .dwattr $C$DW$149, DW_AT_TI_symbol_name("_rsvd2")
    1846                      .dwattr $C$DW$149, DW_AT_data_member_location[DW_OP_plus_uconst 0x10]
TMS320C2000 Assembler PC v18.1.2 Fri Dec 14 17:55:30 2018

Tools Copyright (c) 1996-2017 Texas Instruments Incorporated
F2837xD_Ipc_Driver_Util.asm                                          PAGE   36

    1847                      .dwattr $C$DW$149, DW_AT_accessibility(DW_ACCESS_public)
    1848              
    1849              $C$DW$150       .dwtag  DW_TAG_member
    1850                      .dwattr $C$DW$150, DW_AT_type(*$C$DW$T$425)
    1851                      .dwattr $C$DW$150, DW_AT_name("SYSPLLMULT")
    1852                      .dwattr $C$DW$150, DW_AT_TI_symbol_name("_SYSPLLMULT")
    1853                      .dwattr $C$DW$150, DW_AT_data_member_location[DW_OP_plus_uconst 0x14]
    1854                      .dwattr $C$DW$150, DW_AT_accessibility(DW_ACCESS_public)
    1855              
    1856              $C$DW$151       .dwtag  DW_TAG_member
    1857                      .dwattr $C$DW$151, DW_AT_type(*$C$DW$T$427)
    1858                      .dwattr $C$DW$151, DW_AT_name("SYSPLLSTS")
    1859                      .dwattr $C$DW$151, DW_AT_TI_symbol_name("_SYSPLLSTS")
    1860                      .dwattr $C$DW$151, DW_AT_data_member_location[DW_OP_plus_uconst 0x16]
    1861                      .dwattr $C$DW$151, DW_AT_accessibility(DW_ACCESS_public)
    1862              
    1863              $C$DW$152       .dwtag  DW_TAG_member
    1864                      .dwattr $C$DW$152, DW_AT_type(*$C$DW$T$24)
    1865                      .dwattr $C$DW$152, DW_AT_name("AUXPLLCTL1")
    1866                      .dwattr $C$DW$152, DW_AT_TI_symbol_name("_AUXPLLCTL1")
    1867                      .dwattr $C$DW$152, DW_AT_data_member_location[DW_OP_plus_uconst 0x18]
    1868                      .dwattr $C$DW$152, DW_AT_accessibility(DW_ACCESS_public)
    1869              
    1870              $C$DW$153       .dwtag  DW_TAG_member
    1871                      .dwattr $C$DW$153, DW_AT_type(*$C$DW$T$39)
    1872                      .dwattr $C$DW$153, DW_AT_name("rsvd3")
    1873                      .dwattr $C$DW$153, DW_AT_TI_symbol_name("_rsvd3")
    1874                      .dwattr $C$DW$153, DW_AT_data_member_location[DW_OP_plus_uconst 0x1a]
    1875                      .dwattr $C$DW$153, DW_AT_accessibility(DW_ACCESS_public)
    1876              
    1877              $C$DW$154       .dwtag  DW_TAG_member
    1878                      .dwattr $C$DW$154, DW_AT_type(*$C$DW$T$26)
    1879                      .dwattr $C$DW$154, DW_AT_name("AUXPLLMULT")
    1880                      .dwattr $C$DW$154, DW_AT_TI_symbol_name("_AUXPLLMULT")
    1881                      .dwattr $C$DW$154, DW_AT_data_member_location[DW_OP_plus_uconst 0x1e]
    1882                      .dwattr $C$DW$154, DW_AT_accessibility(DW_ACCESS_public)
    1883              
    1884              $C$DW$155       .dwtag  DW_TAG_member
    1885                      .dwattr $C$DW$155, DW_AT_type(*$C$DW$T$28)
    1886                      .dwattr $C$DW$155, DW_AT_name("AUXPLLSTS")
    1887                      .dwattr $C$DW$155, DW_AT_TI_symbol_name("_AUXPLLSTS")
    1888                      .dwattr $C$DW$155, DW_AT_data_member_location[DW_OP_plus_uconst 0x20]
    1889                      .dwattr $C$DW$155, DW_AT_accessibility(DW_ACCESS_public)
    1890              
    1891              $C$DW$156       .dwtag  DW_TAG_member
    1892                      .dwattr $C$DW$156, DW_AT_type(*$C$DW$T$419)
    1893                      .dwattr $C$DW$156, DW_AT_name("SYSCLKDIVSEL")
    1894                      .dwattr $C$DW$156, DW_AT_TI_symbol_name("_SYSCLKDIVSEL")
    1895                      .dwattr $C$DW$156, DW_AT_data_member_location[DW_OP_plus_uconst 0x22]
    1896                      .dwattr $C$DW$156, DW_AT_accessibility(DW_ACCESS_public)
    1897              
    1898              $C$DW$157       .dwtag  DW_TAG_member
    1899                      .dwattr $C$DW$157, DW_AT_type(*$C$DW$T$22)
    1900                      .dwattr $C$DW$157, DW_AT_name("AUXCLKDIVSEL")
    1901                      .dwattr $C$DW$157, DW_AT_TI_symbol_name("_AUXCLKDIVSEL")
TMS320C2000 Assembler PC v18.1.2 Fri Dec 14 17:55:30 2018

Tools Copyright (c) 1996-2017 Texas Instruments Incorporated
F2837xD_Ipc_Driver_Util.asm                                          PAGE   37

    1902                      .dwattr $C$DW$157, DW_AT_data_member_location[DW_OP_plus_uconst 0x24]
    1903                      .dwattr $C$DW$157, DW_AT_accessibility(DW_ACCESS_public)
    1904              
    1905              $C$DW$158       .dwtag  DW_TAG_member
    1906                      .dwattr $C$DW$158, DW_AT_type(*$C$DW$T$381)
    1907                      .dwattr $C$DW$158, DW_AT_name("PERCLKDIVSEL")
    1908                      .dwattr $C$DW$158, DW_AT_TI_symbol_name("_PERCLKDIVSEL")
    1909                      .dwattr $C$DW$158, DW_AT_data_member_location[DW_OP_plus_uconst 0x26]
    1910                      .dwattr $C$DW$158, DW_AT_accessibility(DW_ACCESS_public)
    1911              
    1912              $C$DW$159       .dwtag  DW_TAG_member
    1913                      .dwattr $C$DW$159, DW_AT_type(*$C$DW$T$433)
    1914                      .dwattr $C$DW$159, DW_AT_name("XCLKOUTDIVSEL")
    1915                      .dwattr $C$DW$159, DW_AT_TI_symbol_name("_XCLKOUTDIVSEL")
    1916                      .dwattr $C$DW$159, DW_AT_data_member_location[DW_OP_plus_uconst 0x28]
    1917                      .dwattr $C$DW$159, DW_AT_accessibility(DW_ACCESS_public)
    1918              
    1919              $C$DW$160       .dwtag  DW_TAG_member
    1920                      .dwattr $C$DW$160, DW_AT_type(*$C$DW$T$40)
    1921                      .dwattr $C$DW$160, DW_AT_name("rsvd4")
    1922                      .dwattr $C$DW$160, DW_AT_TI_symbol_name("_rsvd4")
    1923                      .dwattr $C$DW$160, DW_AT_data_member_location[DW_OP_plus_uconst 0x2a]
    1924                      .dwattr $C$DW$160, DW_AT_accessibility(DW_ACCESS_public)
    1925              
    1926              $C$DW$161       .dwtag  DW_TAG_member
    1927                      .dwattr $C$DW$161, DW_AT_type(*$C$DW$T$339)
    1928                      .dwattr $C$DW$161, DW_AT_name("LOSPCP")
    1929                      .dwattr $C$DW$161, DW_AT_TI_symbol_name("_LOSPCP")
    1930                      .dwattr $C$DW$161, DW_AT_data_member_location[DW_OP_plus_uconst 0x2c]
    1931                      .dwattr $C$DW$161, DW_AT_accessibility(DW_ACCESS_public)
    1932              
    1933              $C$DW$162       .dwtag  DW_TAG_member
    1934                      .dwattr $C$DW$162, DW_AT_type(*$C$DW$T$345)
    1935                      .dwattr $C$DW$162, DW_AT_name("MCDCR")
    1936                      .dwattr $C$DW$162, DW_AT_TI_symbol_name("_MCDCR")
    1937                      .dwattr $C$DW$162, DW_AT_data_member_location[DW_OP_plus_uconst 0x2e]
    1938                      .dwattr $C$DW$162, DW_AT_accessibility(DW_ACCESS_public)
    1939              
    1940              $C$DW$163       .dwtag  DW_TAG_member
    1941                      .dwattr $C$DW$163, DW_AT_type(*$C$DW$T$431)
    1942                      .dwattr $C$DW$163, DW_AT_name("X1CNT")
    1943                      .dwattr $C$DW$163, DW_AT_TI_symbol_name("_X1CNT")
    1944                      .dwattr $C$DW$163, DW_AT_data_member_location[DW_OP_plus_uconst 0x30]
    1945                      .dwattr $C$DW$163, DW_AT_accessibility(DW_ACCESS_public)
    1946              
    1947                      .dwendtag $C$DW$T$41
    1948              
    1949              $C$DW$164       .dwtag  DW_TAG_TI_far_type
    1950                      .dwattr $C$DW$164, DW_AT_type(*$C$DW$T$41)
    1951              
    1952              $C$DW$T$437     .dwtag  DW_TAG_volatile_type
    1953                      .dwattr $C$DW$T$437, DW_AT_type(*$C$DW$164)
    1954              
    1955              
    1956              $C$DW$T$42      .dwtag  DW_TAG_structure_type
TMS320C2000 Assembler PC v18.1.2 Fri Dec 14 17:55:30 2018

Tools Copyright (c) 1996-2017 Texas Instruments Incorporated
F2837xD_Ipc_Driver_Util.asm                                          PAGE   38

    1957                      .dwattr $C$DW$T$42, DW_AT_name("CPU2RESCTL_BITS")
    1958                      .dwattr $C$DW$T$42, DW_AT_byte_size(0x02)
    1959              $C$DW$165       .dwtag  DW_TAG_member
    1960                      .dwattr $C$DW$165, DW_AT_type(*$C$DW$T$19)
    1961                      .dwattr $C$DW$165, DW_AT_name("RESET")
    1962                      .dwattr $C$DW$165, DW_AT_TI_symbol_name("_RESET")
    1963                      .dwattr $C$DW$165, DW_AT_bit_offset(0x0f)
    1964                      .dwattr $C$DW$165, DW_AT_bit_size(0x01)
    1965                      .dwattr $C$DW$165, DW_AT_data_member_location[DW_OP_plus_uconst 0x0]
    1966                      .dwattr $C$DW$165, DW_AT_accessibility(DW_ACCESS_public)
    1967              
    1968              $C$DW$166       .dwtag  DW_TAG_member
    1969                      .dwattr $C$DW$166, DW_AT_type(*$C$DW$T$19)
    1970                      .dwattr $C$DW$166, DW_AT_name("rsvd1")
    1971                      .dwattr $C$DW$166, DW_AT_TI_symbol_name("_rsvd1")
    1972                      .dwattr $C$DW$166, DW_AT_bit_offset(0x00)
    1973                      .dwattr $C$DW$166, DW_AT_bit_size(0x0f)
    1974                      .dwattr $C$DW$166, DW_AT_data_member_location[DW_OP_plus_uconst 0x0]
    1975                      .dwattr $C$DW$166, DW_AT_accessibility(DW_ACCESS_public)
    1976              
    1977              $C$DW$167       .dwtag  DW_TAG_member
    1978                      .dwattr $C$DW$167, DW_AT_type(*$C$DW$T$19)
    1979                      .dwattr $C$DW$167, DW_AT_name("KEY")
    1980                      .dwattr $C$DW$167, DW_AT_TI_symbol_name("_KEY")
    1981                      .dwattr $C$DW$167, DW_AT_bit_offset(0x00)
    1982                      .dwattr $C$DW$167, DW_AT_bit_size(0x10)
    1983                      .dwattr $C$DW$167, DW_AT_data_member_location[DW_OP_plus_uconst 0x1]
    1984                      .dwattr $C$DW$167, DW_AT_accessibility(DW_ACCESS_public)
    1985              
    1986                      .dwendtag $C$DW$T$42
    1987              
    1988              
    1989              $C$DW$T$43      .dwtag  DW_TAG_union_type
    1990                      .dwattr $C$DW$T$43, DW_AT_name("CPU2RESCTL_REG")
    1991                      .dwattr $C$DW$T$43, DW_AT_byte_size(0x02)
    1992              $C$DW$168       .dwtag  DW_TAG_member
    1993                      .dwattr $C$DW$168, DW_AT_type(*$C$DW$T$21)
    1994                      .dwattr $C$DW$168, DW_AT_name("all")
    1995                      .dwattr $C$DW$168, DW_AT_TI_symbol_name("_all")
    1996                      .dwattr $C$DW$168, DW_AT_data_member_location[DW_OP_plus_uconst 0x0]
    1997                      .dwattr $C$DW$168, DW_AT_accessibility(DW_ACCESS_public)
    1998              
    1999              $C$DW$169       .dwtag  DW_TAG_member
    2000                      .dwattr $C$DW$169, DW_AT_type(*$C$DW$T$42)
    2001                      .dwattr $C$DW$169, DW_AT_name("bit")
    2002                      .dwattr $C$DW$169, DW_AT_TI_symbol_name("_bit")
    2003                      .dwattr $C$DW$169, DW_AT_data_member_location[DW_OP_plus_uconst 0x0]
    2004                      .dwattr $C$DW$169, DW_AT_accessibility(DW_ACCESS_public)
    2005              
    2006                      .dwendtag $C$DW$T$43
    2007              
    2008              
    2009              $C$DW$T$44      .dwtag  DW_TAG_structure_type
    2010                      .dwattr $C$DW$T$44, DW_AT_name("CPUSEL0_BITS")
    2011                      .dwattr $C$DW$T$44, DW_AT_byte_size(0x02)
TMS320C2000 Assembler PC v18.1.2 Fri Dec 14 17:55:30 2018

Tools Copyright (c) 1996-2017 Texas Instruments Incorporated
F2837xD_Ipc_Driver_Util.asm                                          PAGE   39

    2012              $C$DW$170       .dwtag  DW_TAG_member
    2013                      .dwattr $C$DW$170, DW_AT_type(*$C$DW$T$19)
    2014                      .dwattr $C$DW$170, DW_AT_name("EPWM1")
    2015                      .dwattr $C$DW$170, DW_AT_TI_symbol_name("_EPWM1")
    2016                      .dwattr $C$DW$170, DW_AT_bit_offset(0x0f)
    2017                      .dwattr $C$DW$170, DW_AT_bit_size(0x01)
    2018                      .dwattr $C$DW$170, DW_AT_data_member_location[DW_OP_plus_uconst 0x0]
    2019                      .dwattr $C$DW$170, DW_AT_accessibility(DW_ACCESS_public)
    2020              
    2021              $C$DW$171       .dwtag  DW_TAG_member
    2022                      .dwattr $C$DW$171, DW_AT_type(*$C$DW$T$19)
    2023                      .dwattr $C$DW$171, DW_AT_name("EPWM2")
    2024                      .dwattr $C$DW$171, DW_AT_TI_symbol_name("_EPWM2")
    2025                      .dwattr $C$DW$171, DW_AT_bit_offset(0x0e)
    2026                      .dwattr $C$DW$171, DW_AT_bit_size(0x01)
    2027                      .dwattr $C$DW$171, DW_AT_data_member_location[DW_OP_plus_uconst 0x0]
    2028                      .dwattr $C$DW$171, DW_AT_accessibility(DW_ACCESS_public)
    2029              
    2030              $C$DW$172       .dwtag  DW_TAG_member
    2031                      .dwattr $C$DW$172, DW_AT_type(*$C$DW$T$19)
    2032                      .dwattr $C$DW$172, DW_AT_name("EPWM3")
    2033                      .dwattr $C$DW$172, DW_AT_TI_symbol_name("_EPWM3")
    2034                      .dwattr $C$DW$172, DW_AT_bit_offset(0x0d)
    2035                      .dwattr $C$DW$172, DW_AT_bit_size(0x01)
    2036                      .dwattr $C$DW$172, DW_AT_data_member_location[DW_OP_plus_uconst 0x0]
    2037                      .dwattr $C$DW$172, DW_AT_accessibility(DW_ACCESS_public)
    2038              
    2039              $C$DW$173       .dwtag  DW_TAG_member
    2040                      .dwattr $C$DW$173, DW_AT_type(*$C$DW$T$19)
    2041                      .dwattr $C$DW$173, DW_AT_name("EPWM4")
    2042                      .dwattr $C$DW$173, DW_AT_TI_symbol_name("_EPWM4")
    2043                      .dwattr $C$DW$173, DW_AT_bit_offset(0x0c)
    2044                      .dwattr $C$DW$173, DW_AT_bit_size(0x01)
    2045                      .dwattr $C$DW$173, DW_AT_data_member_location[DW_OP_plus_uconst 0x0]
    2046                      .dwattr $C$DW$173, DW_AT_accessibility(DW_ACCESS_public)
    2047              
    2048              $C$DW$174       .dwtag  DW_TAG_member
    2049                      .dwattr $C$DW$174, DW_AT_type(*$C$DW$T$19)
    2050                      .dwattr $C$DW$174, DW_AT_name("EPWM5")
    2051                      .dwattr $C$DW$174, DW_AT_TI_symbol_name("_EPWM5")
    2052                      .dwattr $C$DW$174, DW_AT_bit_offset(0x0b)
    2053                      .dwattr $C$DW$174, DW_AT_bit_size(0x01)
    2054                      .dwattr $C$DW$174, DW_AT_data_member_location[DW_OP_plus_uconst 0x0]
    2055                      .dwattr $C$DW$174, DW_AT_accessibility(DW_ACCESS_public)
    2056              
    2057              $C$DW$175       .dwtag  DW_TAG_member
    2058                      .dwattr $C$DW$175, DW_AT_type(*$C$DW$T$19)
    2059                      .dwattr $C$DW$175, DW_AT_name("EPWM6")
    2060                      .dwattr $C$DW$175, DW_AT_TI_symbol_name("_EPWM6")
    2061                      .dwattr $C$DW$175, DW_AT_bit_offset(0x0a)
    2062                      .dwattr $C$DW$175, DW_AT_bit_size(0x01)
    2063                      .dwattr $C$DW$175, DW_AT_data_member_location[DW_OP_plus_uconst 0x0]
    2064                      .dwattr $C$DW$175, DW_AT_accessibility(DW_ACCESS_public)
    2065              
    2066              $C$DW$176       .dwtag  DW_TAG_member
TMS320C2000 Assembler PC v18.1.2 Fri Dec 14 17:55:30 2018

Tools Copyright (c) 1996-2017 Texas Instruments Incorporated
F2837xD_Ipc_Driver_Util.asm                                          PAGE   40

    2067                      .dwattr $C$DW$176, DW_AT_type(*$C$DW$T$19)
    2068                      .dwattr $C$DW$176, DW_AT_name("EPWM7")
    2069                      .dwattr $C$DW$176, DW_AT_TI_symbol_name("_EPWM7")
    2070                      .dwattr $C$DW$176, DW_AT_bit_offset(0x09)
    2071                      .dwattr $C$DW$176, DW_AT_bit_size(0x01)
    2072                      .dwattr $C$DW$176, DW_AT_data_member_location[DW_OP_plus_uconst 0x0]
    2073                      .dwattr $C$DW$176, DW_AT_accessibility(DW_ACCESS_public)
    2074              
    2075              $C$DW$177       .dwtag  DW_TAG_member
    2076                      .dwattr $C$DW$177, DW_AT_type(*$C$DW$T$19)
    2077                      .dwattr $C$DW$177, DW_AT_name("EPWM8")
    2078                      .dwattr $C$DW$177, DW_AT_TI_symbol_name("_EPWM8")
    2079                      .dwattr $C$DW$177, DW_AT_bit_offset(0x08)
    2080                      .dwattr $C$DW$177, DW_AT_bit_size(0x01)
    2081                      .dwattr $C$DW$177, DW_AT_data_member_location[DW_OP_plus_uconst 0x0]
    2082                      .dwattr $C$DW$177, DW_AT_accessibility(DW_ACCESS_public)
    2083              
    2084              $C$DW$178       .dwtag  DW_TAG_member
    2085                      .dwattr $C$DW$178, DW_AT_type(*$C$DW$T$19)
    2086                      .dwattr $C$DW$178, DW_AT_name("EPWM9")
    2087                      .dwattr $C$DW$178, DW_AT_TI_symbol_name("_EPWM9")
    2088                      .dwattr $C$DW$178, DW_AT_bit_offset(0x07)
    2089                      .dwattr $C$DW$178, DW_AT_bit_size(0x01)
    2090                      .dwattr $C$DW$178, DW_AT_data_member_location[DW_OP_plus_uconst 0x0]
    2091                      .dwattr $C$DW$178, DW_AT_accessibility(DW_ACCESS_public)
    2092              
    2093              $C$DW$179       .dwtag  DW_TAG_member
    2094                      .dwattr $C$DW$179, DW_AT_type(*$C$DW$T$19)
    2095                      .dwattr $C$DW$179, DW_AT_name("EPWM10")
    2096                      .dwattr $C$DW$179, DW_AT_TI_symbol_name("_EPWM10")
    2097                      .dwattr $C$DW$179, DW_AT_bit_offset(0x06)
    2098                      .dwattr $C$DW$179, DW_AT_bit_size(0x01)
    2099                      .dwattr $C$DW$179, DW_AT_data_member_location[DW_OP_plus_uconst 0x0]
    2100                      .dwattr $C$DW$179, DW_AT_accessibility(DW_ACCESS_public)
    2101              
    2102              $C$DW$180       .dwtag  DW_TAG_member
    2103                      .dwattr $C$DW$180, DW_AT_type(*$C$DW$T$19)
    2104                      .dwattr $C$DW$180, DW_AT_name("EPWM11")
    2105                      .dwattr $C$DW$180, DW_AT_TI_symbol_name("_EPWM11")
    2106                      .dwattr $C$DW$180, DW_AT_bit_offset(0x05)
    2107                      .dwattr $C$DW$180, DW_AT_bit_size(0x01)
    2108                      .dwattr $C$DW$180, DW_AT_data_member_location[DW_OP_plus_uconst 0x0]
    2109                      .dwattr $C$DW$180, DW_AT_accessibility(DW_ACCESS_public)
    2110              
    2111              $C$DW$181       .dwtag  DW_TAG_member
    2112                      .dwattr $C$DW$181, DW_AT_type(*$C$DW$T$19)
    2113                      .dwattr $C$DW$181, DW_AT_name("EPWM12")
    2114                      .dwattr $C$DW$181, DW_AT_TI_symbol_name("_EPWM12")
    2115                      .dwattr $C$DW$181, DW_AT_bit_offset(0x04)
    2116                      .dwattr $C$DW$181, DW_AT_bit_size(0x01)
    2117                      .dwattr $C$DW$181, DW_AT_data_member_location[DW_OP_plus_uconst 0x0]
    2118                      .dwattr $C$DW$181, DW_AT_accessibility(DW_ACCESS_public)
    2119              
    2120              $C$DW$182       .dwtag  DW_TAG_member
    2121                      .dwattr $C$DW$182, DW_AT_type(*$C$DW$T$19)
TMS320C2000 Assembler PC v18.1.2 Fri Dec 14 17:55:30 2018

Tools Copyright (c) 1996-2017 Texas Instruments Incorporated
F2837xD_Ipc_Driver_Util.asm                                          PAGE   41

    2122                      .dwattr $C$DW$182, DW_AT_name("rsvd1")
    2123                      .dwattr $C$DW$182, DW_AT_TI_symbol_name("_rsvd1")
    2124                      .dwattr $C$DW$182, DW_AT_bit_offset(0x03)
    2125                      .dwattr $C$DW$182, DW_AT_bit_size(0x01)
    2126                      .dwattr $C$DW$182, DW_AT_data_member_location[DW_OP_plus_uconst 0x0]
    2127                      .dwattr $C$DW$182, DW_AT_accessibility(DW_ACCESS_public)
    2128              
    2129              $C$DW$183       .dwtag  DW_TAG_member
    2130                      .dwattr $C$DW$183, DW_AT_type(*$C$DW$T$19)
    2131                      .dwattr $C$DW$183, DW_AT_name("rsvd2")
    2132                      .dwattr $C$DW$183, DW_AT_TI_symbol_name("_rsvd2")
    2133                      .dwattr $C$DW$183, DW_AT_bit_offset(0x02)
    2134                      .dwattr $C$DW$183, DW_AT_bit_size(0x01)
    2135                      .dwattr $C$DW$183, DW_AT_data_member_location[DW_OP_plus_uconst 0x0]
    2136                      .dwattr $C$DW$183, DW_AT_accessibility(DW_ACCESS_public)
    2137              
    2138              $C$DW$184       .dwtag  DW_TAG_member
    2139                      .dwattr $C$DW$184, DW_AT_type(*$C$DW$T$19)
    2140                      .dwattr $C$DW$184, DW_AT_name("rsvd3")
    2141                      .dwattr $C$DW$184, DW_AT_TI_symbol_name("_rsvd3")
    2142                      .dwattr $C$DW$184, DW_AT_bit_offset(0x01)
    2143                      .dwattr $C$DW$184, DW_AT_bit_size(0x01)
    2144                      .dwattr $C$DW$184, DW_AT_data_member_location[DW_OP_plus_uconst 0x0]
    2145                      .dwattr $C$DW$184, DW_AT_accessibility(DW_ACCESS_public)
    2146              
    2147              $C$DW$185       .dwtag  DW_TAG_member
    2148                      .dwattr $C$DW$185, DW_AT_type(*$C$DW$T$19)
    2149                      .dwattr $C$DW$185, DW_AT_name("rsvd4")
    2150                      .dwattr $C$DW$185, DW_AT_TI_symbol_name("_rsvd4")
    2151                      .dwattr $C$DW$185, DW_AT_bit_offset(0x00)
    2152                      .dwattr $C$DW$185, DW_AT_bit_size(0x01)
    2153                      .dwattr $C$DW$185, DW_AT_data_member_location[DW_OP_plus_uconst 0x0]
    2154                      .dwattr $C$DW$185, DW_AT_accessibility(DW_ACCESS_public)
    2155              
    2156              $C$DW$186       .dwtag  DW_TAG_member
    2157                      .dwattr $C$DW$186, DW_AT_type(*$C$DW$T$19)
    2158                      .dwattr $C$DW$186, DW_AT_name("rsvd5")
    2159                      .dwattr $C$DW$186, DW_AT_TI_symbol_name("_rsvd5")
    2160                      .dwattr $C$DW$186, DW_AT_bit_offset(0x00)
    2161                      .dwattr $C$DW$186, DW_AT_bit_size(0x10)
    2162                      .dwattr $C$DW$186, DW_AT_data_member_location[DW_OP_plus_uconst 0x1]
    2163                      .dwattr $C$DW$186, DW_AT_accessibility(DW_ACCESS_public)
    2164              
    2165                      .dwendtag $C$DW$T$44
    2166              
    2167              
    2168              $C$DW$T$45      .dwtag  DW_TAG_union_type
    2169                      .dwattr $C$DW$T$45, DW_AT_name("CPUSEL0_REG")
    2170                      .dwattr $C$DW$T$45, DW_AT_byte_size(0x02)
    2171              $C$DW$187       .dwtag  DW_TAG_member
    2172                      .dwattr $C$DW$187, DW_AT_type(*$C$DW$T$21)
    2173                      .dwattr $C$DW$187, DW_AT_name("all")
    2174                      .dwattr $C$DW$187, DW_AT_TI_symbol_name("_all")
    2175                      .dwattr $C$DW$187, DW_AT_data_member_location[DW_OP_plus_uconst 0x0]
    2176                      .dwattr $C$DW$187, DW_AT_accessibility(DW_ACCESS_public)
TMS320C2000 Assembler PC v18.1.2 Fri Dec 14 17:55:30 2018

Tools Copyright (c) 1996-2017 Texas Instruments Incorporated
F2837xD_Ipc_Driver_Util.asm                                          PAGE   42

    2177              
    2178              $C$DW$188       .dwtag  DW_TAG_member
    2179                      .dwattr $C$DW$188, DW_AT_type(*$C$DW$T$44)
    2180                      .dwattr $C$DW$188, DW_AT_name("bit")
    2181                      .dwattr $C$DW$188, DW_AT_TI_symbol_name("_bit")
    2182                      .dwattr $C$DW$188, DW_AT_data_member_location[DW_OP_plus_uconst 0x0]
    2183                      .dwattr $C$DW$188, DW_AT_accessibility(DW_ACCESS_public)
    2184              
    2185                      .dwendtag $C$DW$T$45
    2186              
    2187              
    2188              $C$DW$T$46      .dwtag  DW_TAG_structure_type
    2189                      .dwattr $C$DW$T$46, DW_AT_name("CPUSEL11_BITS")
    2190                      .dwattr $C$DW$T$46, DW_AT_byte_size(0x02)
    2191              $C$DW$189       .dwtag  DW_TAG_member
    2192                      .dwattr $C$DW$189, DW_AT_type(*$C$DW$T$19)
    2193                      .dwattr $C$DW$189, DW_AT_name("ADC_A")
    2194                      .dwattr $C$DW$189, DW_AT_TI_symbol_name("_ADC_A")
    2195                      .dwattr $C$DW$189, DW_AT_bit_offset(0x0f)
    2196                      .dwattr $C$DW$189, DW_AT_bit_size(0x01)
    2197                      .dwattr $C$DW$189, DW_AT_data_member_location[DW_OP_plus_uconst 0x0]
    2198                      .dwattr $C$DW$189, DW_AT_accessibility(DW_ACCESS_public)
    2199              
    2200              $C$DW$190       .dwtag  DW_TAG_member
    2201                      .dwattr $C$DW$190, DW_AT_type(*$C$DW$T$19)
    2202                      .dwattr $C$DW$190, DW_AT_name("ADC_B")
    2203                      .dwattr $C$DW$190, DW_AT_TI_symbol_name("_ADC_B")
    2204                      .dwattr $C$DW$190, DW_AT_bit_offset(0x0e)
    2205                      .dwattr $C$DW$190, DW_AT_bit_size(0x01)
    2206                      .dwattr $C$DW$190, DW_AT_data_member_location[DW_OP_plus_uconst 0x0]
    2207                      .dwattr $C$DW$190, DW_AT_accessibility(DW_ACCESS_public)
    2208              
    2209              $C$DW$191       .dwtag  DW_TAG_member
    2210                      .dwattr $C$DW$191, DW_AT_type(*$C$DW$T$19)
    2211                      .dwattr $C$DW$191, DW_AT_name("ADC_C")
    2212                      .dwattr $C$DW$191, DW_AT_TI_symbol_name("_ADC_C")
    2213                      .dwattr $C$DW$191, DW_AT_bit_offset(0x0d)
    2214                      .dwattr $C$DW$191, DW_AT_bit_size(0x01)
    2215                      .dwattr $C$DW$191, DW_AT_data_member_location[DW_OP_plus_uconst 0x0]
    2216                      .dwattr $C$DW$191, DW_AT_accessibility(DW_ACCESS_public)
    2217              
    2218              $C$DW$192       .dwtag  DW_TAG_member
    2219                      .dwattr $C$DW$192, DW_AT_type(*$C$DW$T$19)
    2220                      .dwattr $C$DW$192, DW_AT_name("ADC_D")
    2221                      .dwattr $C$DW$192, DW_AT_TI_symbol_name("_ADC_D")
    2222                      .dwattr $C$DW$192, DW_AT_bit_offset(0x0c)
    2223                      .dwattr $C$DW$192, DW_AT_bit_size(0x01)
    2224                      .dwattr $C$DW$192, DW_AT_data_member_location[DW_OP_plus_uconst 0x0]
    2225                      .dwattr $C$DW$192, DW_AT_accessibility(DW_ACCESS_public)
    2226              
    2227              $C$DW$193       .dwtag  DW_TAG_member
    2228                      .dwattr $C$DW$193, DW_AT_type(*$C$DW$T$19)
    2229                      .dwattr $C$DW$193, DW_AT_name("rsvd1")
    2230                      .dwattr $C$DW$193, DW_AT_TI_symbol_name("_rsvd1")
    2231                      .dwattr $C$DW$193, DW_AT_bit_offset(0x00)
TMS320C2000 Assembler PC v18.1.2 Fri Dec 14 17:55:30 2018

Tools Copyright (c) 1996-2017 Texas Instruments Incorporated
F2837xD_Ipc_Driver_Util.asm                                          PAGE   43

    2232                      .dwattr $C$DW$193, DW_AT_bit_size(0x0c)
    2233                      .dwattr $C$DW$193, DW_AT_data_member_location[DW_OP_plus_uconst 0x0]
    2234                      .dwattr $C$DW$193, DW_AT_accessibility(DW_ACCESS_public)
    2235              
    2236              $C$DW$194       .dwtag  DW_TAG_member
    2237                      .dwattr $C$DW$194, DW_AT_type(*$C$DW$T$19)
    2238                      .dwattr $C$DW$194, DW_AT_name("rsvd2")
    2239                      .dwattr $C$DW$194, DW_AT_TI_symbol_name("_rsvd2")
    2240                      .dwattr $C$DW$194, DW_AT_bit_offset(0x00)
    2241                      .dwattr $C$DW$194, DW_AT_bit_size(0x10)
    2242                      .dwattr $C$DW$194, DW_AT_data_member_location[DW_OP_plus_uconst 0x1]
    2243                      .dwattr $C$DW$194, DW_AT_accessibility(DW_ACCESS_public)
    2244              
    2245                      .dwendtag $C$DW$T$46
    2246              
    2247              
    2248              $C$DW$T$47      .dwtag  DW_TAG_union_type
    2249                      .dwattr $C$DW$T$47, DW_AT_name("CPUSEL11_REG")
    2250                      .dwattr $C$DW$T$47, DW_AT_byte_size(0x02)
    2251              $C$DW$195       .dwtag  DW_TAG_member
    2252                      .dwattr $C$DW$195, DW_AT_type(*$C$DW$T$21)
    2253                      .dwattr $C$DW$195, DW_AT_name("all")
    2254                      .dwattr $C$DW$195, DW_AT_TI_symbol_name("_all")
    2255                      .dwattr $C$DW$195, DW_AT_data_member_location[DW_OP_plus_uconst 0x0]
    2256                      .dwattr $C$DW$195, DW_AT_accessibility(DW_ACCESS_public)
    2257              
    2258              $C$DW$196       .dwtag  DW_TAG_member
    2259                      .dwattr $C$DW$196, DW_AT_type(*$C$DW$T$46)
    2260                      .dwattr $C$DW$196, DW_AT_name("bit")
    2261                      .dwattr $C$DW$196, DW_AT_TI_symbol_name("_bit")
    2262                      .dwattr $C$DW$196, DW_AT_data_member_location[DW_OP_plus_uconst 0x0]
    2263                      .dwattr $C$DW$196, DW_AT_accessibility(DW_ACCESS_public)
    2264              
    2265                      .dwendtag $C$DW$T$47
    2266              
    2267              
    2268              $C$DW$T$48      .dwtag  DW_TAG_structure_type
    2269                      .dwattr $C$DW$T$48, DW_AT_name("CPUSEL12_BITS")
    2270                      .dwattr $C$DW$T$48, DW_AT_byte_size(0x02)
    2271              $C$DW$197       .dwtag  DW_TAG_member
    2272                      .dwattr $C$DW$197, DW_AT_type(*$C$DW$T$19)
    2273                      .dwattr $C$DW$197, DW_AT_name("CMPSS1")
    2274                      .dwattr $C$DW$197, DW_AT_TI_symbol_name("_CMPSS1")
    2275                      .dwattr $C$DW$197, DW_AT_bit_offset(0x0f)
    2276                      .dwattr $C$DW$197, DW_AT_bit_size(0x01)
    2277                      .dwattr $C$DW$197, DW_AT_data_member_location[DW_OP_plus_uconst 0x0]
    2278                      .dwattr $C$DW$197, DW_AT_accessibility(DW_ACCESS_public)
    2279              
    2280              $C$DW$198       .dwtag  DW_TAG_member
    2281                      .dwattr $C$DW$198, DW_AT_type(*$C$DW$T$19)
    2282                      .dwattr $C$DW$198, DW_AT_name("CMPSS2")
    2283                      .dwattr $C$DW$198, DW_AT_TI_symbol_name("_CMPSS2")
    2284                      .dwattr $C$DW$198, DW_AT_bit_offset(0x0e)
    2285                      .dwattr $C$DW$198, DW_AT_bit_size(0x01)
    2286                      .dwattr $C$DW$198, DW_AT_data_member_location[DW_OP_plus_uconst 0x0]
TMS320C2000 Assembler PC v18.1.2 Fri Dec 14 17:55:30 2018

Tools Copyright (c) 1996-2017 Texas Instruments Incorporated
F2837xD_Ipc_Driver_Util.asm                                          PAGE   44

    2287                      .dwattr $C$DW$198, DW_AT_accessibility(DW_ACCESS_public)
    2288              
    2289              $C$DW$199       .dwtag  DW_TAG_member
    2290                      .dwattr $C$DW$199, DW_AT_type(*$C$DW$T$19)
    2291                      .dwattr $C$DW$199, DW_AT_name("CMPSS3")
    2292                      .dwattr $C$DW$199, DW_AT_TI_symbol_name("_CMPSS3")
    2293                      .dwattr $C$DW$199, DW_AT_bit_offset(0x0d)
    2294                      .dwattr $C$DW$199, DW_AT_bit_size(0x01)
    2295                      .dwattr $C$DW$199, DW_AT_data_member_location[DW_OP_plus_uconst 0x0]
    2296                      .dwattr $C$DW$199, DW_AT_accessibility(DW_ACCESS_public)
    2297              
    2298              $C$DW$200       .dwtag  DW_TAG_member
    2299                      .dwattr $C$DW$200, DW_AT_type(*$C$DW$T$19)
    2300                      .dwattr $C$DW$200, DW_AT_name("CMPSS4")
    2301                      .dwattr $C$DW$200, DW_AT_TI_symbol_name("_CMPSS4")
    2302                      .dwattr $C$DW$200, DW_AT_bit_offset(0x0c)
    2303                      .dwattr $C$DW$200, DW_AT_bit_size(0x01)
    2304                      .dwattr $C$DW$200, DW_AT_data_member_location[DW_OP_plus_uconst 0x0]
    2305                      .dwattr $C$DW$200, DW_AT_accessibility(DW_ACCESS_public)
    2306              
    2307              $C$DW$201       .dwtag  DW_TAG_member
    2308                      .dwattr $C$DW$201, DW_AT_type(*$C$DW$T$19)
    2309                      .dwattr $C$DW$201, DW_AT_name("CMPSS5")
    2310                      .dwattr $C$DW$201, DW_AT_TI_symbol_name("_CMPSS5")
    2311                      .dwattr $C$DW$201, DW_AT_bit_offset(0x0b)
    2312                      .dwattr $C$DW$201, DW_AT_bit_size(0x01)
    2313                      .dwattr $C$DW$201, DW_AT_data_member_location[DW_OP_plus_uconst 0x0]
    2314                      .dwattr $C$DW$201, DW_AT_accessibility(DW_ACCESS_public)
    2315              
    2316              $C$DW$202       .dwtag  DW_TAG_member
    2317                      .dwattr $C$DW$202, DW_AT_type(*$C$DW$T$19)
    2318                      .dwattr $C$DW$202, DW_AT_name("CMPSS6")
    2319                      .dwattr $C$DW$202, DW_AT_TI_symbol_name("_CMPSS6")
    2320                      .dwattr $C$DW$202, DW_AT_bit_offset(0x0a)
    2321                      .dwattr $C$DW$202, DW_AT_bit_size(0x01)
    2322                      .dwattr $C$DW$202, DW_AT_data_member_location[DW_OP_plus_uconst 0x0]
    2323                      .dwattr $C$DW$202, DW_AT_accessibility(DW_ACCESS_public)
    2324              
    2325              $C$DW$203       .dwtag  DW_TAG_member
    2326                      .dwattr $C$DW$203, DW_AT_type(*$C$DW$T$19)
    2327                      .dwattr $C$DW$203, DW_AT_name("CMPSS7")
    2328                      .dwattr $C$DW$203, DW_AT_TI_symbol_name("_CMPSS7")
    2329                      .dwattr $C$DW$203, DW_AT_bit_offset(0x09)
    2330                      .dwattr $C$DW$203, DW_AT_bit_size(0x01)
    2331                      .dwattr $C$DW$203, DW_AT_data_member_location[DW_OP_plus_uconst 0x0]
    2332                      .dwattr $C$DW$203, DW_AT_accessibility(DW_ACCESS_public)
    2333              
    2334              $C$DW$204       .dwtag  DW_TAG_member
    2335                      .dwattr $C$DW$204, DW_AT_type(*$C$DW$T$19)
    2336                      .dwattr $C$DW$204, DW_AT_name("CMPSS8")
    2337                      .dwattr $C$DW$204, DW_AT_TI_symbol_name("_CMPSS8")
    2338                      .dwattr $C$DW$204, DW_AT_bit_offset(0x08)
    2339                      .dwattr $C$DW$204, DW_AT_bit_size(0x01)
    2340                      .dwattr $C$DW$204, DW_AT_data_member_location[DW_OP_plus_uconst 0x0]
    2341                      .dwattr $C$DW$204, DW_AT_accessibility(DW_ACCESS_public)
TMS320C2000 Assembler PC v18.1.2 Fri Dec 14 17:55:30 2018

Tools Copyright (c) 1996-2017 Texas Instruments Incorporated
F2837xD_Ipc_Driver_Util.asm                                          PAGE   45

    2342              
    2343              $C$DW$205       .dwtag  DW_TAG_member
    2344                      .dwattr $C$DW$205, DW_AT_type(*$C$DW$T$19)
    2345                      .dwattr $C$DW$205, DW_AT_name("rsvd1")
    2346                      .dwattr $C$DW$205, DW_AT_TI_symbol_name("_rsvd1")
    2347                      .dwattr $C$DW$205, DW_AT_bit_offset(0x00)
    2348                      .dwattr $C$DW$205, DW_AT_bit_size(0x08)
    2349                      .dwattr $C$DW$205, DW_AT_data_member_location[DW_OP_plus_uconst 0x0]
    2350                      .dwattr $C$DW$205, DW_AT_accessibility(DW_ACCESS_public)
    2351              
    2352              $C$DW$206       .dwtag  DW_TAG_member
    2353                      .dwattr $C$DW$206, DW_AT_type(*$C$DW$T$19)
    2354                      .dwattr $C$DW$206, DW_AT_name("rsvd2")
    2355                      .dwattr $C$DW$206, DW_AT_TI_symbol_name("_rsvd2")
    2356                      .dwattr $C$DW$206, DW_AT_bit_offset(0x00)
    2357                      .dwattr $C$DW$206, DW_AT_bit_size(0x10)
    2358                      .dwattr $C$DW$206, DW_AT_data_member_location[DW_OP_plus_uconst 0x1]
    2359                      .dwattr $C$DW$206, DW_AT_accessibility(DW_ACCESS_public)
    2360              
    2361                      .dwendtag $C$DW$T$48
    2362              
    2363              
    2364              $C$DW$T$49      .dwtag  DW_TAG_union_type
    2365                      .dwattr $C$DW$T$49, DW_AT_name("CPUSEL12_REG")
    2366                      .dwattr $C$DW$T$49, DW_AT_byte_size(0x02)
    2367              $C$DW$207       .dwtag  DW_TAG_member
    2368                      .dwattr $C$DW$207, DW_AT_type(*$C$DW$T$21)
    2369                      .dwattr $C$DW$207, DW_AT_name("all")
    2370                      .dwattr $C$DW$207, DW_AT_TI_symbol_name("_all")
    2371                      .dwattr $C$DW$207, DW_AT_data_member_location[DW_OP_plus_uconst 0x0]
    2372                      .dwattr $C$DW$207, DW_AT_accessibility(DW_ACCESS_public)
    2373              
    2374              $C$DW$208       .dwtag  DW_TAG_member
    2375                      .dwattr $C$DW$208, DW_AT_type(*$C$DW$T$48)
    2376                      .dwattr $C$DW$208, DW_AT_name("bit")
    2377                      .dwattr $C$DW$208, DW_AT_TI_symbol_name("_bit")
    2378                      .dwattr $C$DW$208, DW_AT_data_member_location[DW_OP_plus_uconst 0x0]
    2379                      .dwattr $C$DW$208, DW_AT_accessibility(DW_ACCESS_public)
    2380              
    2381                      .dwendtag $C$DW$T$49
    2382              
    2383              
    2384              $C$DW$T$50      .dwtag  DW_TAG_structure_type
    2385                      .dwattr $C$DW$T$50, DW_AT_name("CPUSEL14_BITS")
    2386                      .dwattr $C$DW$T$50, DW_AT_byte_size(0x02)
    2387              $C$DW$209       .dwtag  DW_TAG_member
    2388                      .dwattr $C$DW$209, DW_AT_type(*$C$DW$T$19)
    2389                      .dwattr $C$DW$209, DW_AT_name("rsvd1")
    2390                      .dwattr $C$DW$209, DW_AT_TI_symbol_name("_rsvd1")
    2391                      .dwattr $C$DW$209, DW_AT_bit_offset(0x0f)
    2392                      .dwattr $C$DW$209, DW_AT_bit_size(0x01)
    2393                      .dwattr $C$DW$209, DW_AT_data_member_location[DW_OP_plus_uconst 0x0]
    2394                      .dwattr $C$DW$209, DW_AT_accessibility(DW_ACCESS_public)
    2395              
    2396              $C$DW$210       .dwtag  DW_TAG_member
TMS320C2000 Assembler PC v18.1.2 Fri Dec 14 17:55:30 2018

Tools Copyright (c) 1996-2017 Texas Instruments Incorporated
F2837xD_Ipc_Driver_Util.asm                                          PAGE   46

    2397                      .dwattr $C$DW$210, DW_AT_type(*$C$DW$T$19)
    2398                      .dwattr $C$DW$210, DW_AT_name("rsvd2")
    2399                      .dwattr $C$DW$210, DW_AT_TI_symbol_name("_rsvd2")
    2400                      .dwattr $C$DW$210, DW_AT_bit_offset(0x0e)
    2401                      .dwattr $C$DW$210, DW_AT_bit_size(0x01)
    2402                      .dwattr $C$DW$210, DW_AT_data_member_location[DW_OP_plus_uconst 0x0]
    2403                      .dwattr $C$DW$210, DW_AT_accessibility(DW_ACCESS_public)
    2404              
    2405              $C$DW$211       .dwtag  DW_TAG_member
    2406                      .dwattr $C$DW$211, DW_AT_type(*$C$DW$T$19)
    2407                      .dwattr $C$DW$211, DW_AT_name("rsvd3")
    2408                      .dwattr $C$DW$211, DW_AT_TI_symbol_name("_rsvd3")
    2409                      .dwattr $C$DW$211, DW_AT_bit_offset(0x0d)
    2410                      .dwattr $C$DW$211, DW_AT_bit_size(0x01)
    2411                      .dwattr $C$DW$211, DW_AT_data_member_location[DW_OP_plus_uconst 0x0]
    2412                      .dwattr $C$DW$211, DW_AT_accessibility(DW_ACCESS_public)
    2413              
    2414              $C$DW$212       .dwtag  DW_TAG_member
    2415                      .dwattr $C$DW$212, DW_AT_type(*$C$DW$T$19)
    2416                      .dwattr $C$DW$212, DW_AT_name("rsvd4")
    2417                      .dwattr $C$DW$212, DW_AT_TI_symbol_name("_rsvd4")
    2418                      .dwattr $C$DW$212, DW_AT_bit_offset(0x0c)
    2419                      .dwattr $C$DW$212, DW_AT_bit_size(0x01)
    2420                      .dwattr $C$DW$212, DW_AT_data_member_location[DW_OP_plus_uconst 0x0]
    2421                      .dwattr $C$DW$212, DW_AT_accessibility(DW_ACCESS_public)
    2422              
    2423              $C$DW$213       .dwtag  DW_TAG_member
    2424                      .dwattr $C$DW$213, DW_AT_type(*$C$DW$T$19)
    2425                      .dwattr $C$DW$213, DW_AT_name("rsvd5")
    2426                      .dwattr $C$DW$213, DW_AT_TI_symbol_name("_rsvd5")
    2427                      .dwattr $C$DW$213, DW_AT_bit_offset(0x00)
    2428                      .dwattr $C$DW$213, DW_AT_bit_size(0x0c)
    2429                      .dwattr $C$DW$213, DW_AT_data_member_location[DW_OP_plus_uconst 0x0]
    2430                      .dwattr $C$DW$213, DW_AT_accessibility(DW_ACCESS_public)
    2431              
    2432              $C$DW$214       .dwtag  DW_TAG_member
    2433                      .dwattr $C$DW$214, DW_AT_type(*$C$DW$T$19)
    2434                      .dwattr $C$DW$214, DW_AT_name("DAC_A")
    2435                      .dwattr $C$DW$214, DW_AT_TI_symbol_name("_DAC_A")
    2436                      .dwattr $C$DW$214, DW_AT_bit_offset(0x0f)
    2437                      .dwattr $C$DW$214, DW_AT_bit_size(0x01)
    2438                      .dwattr $C$DW$214, DW_AT_data_member_location[DW_OP_plus_uconst 0x1]
    2439                      .dwattr $C$DW$214, DW_AT_accessibility(DW_ACCESS_public)
    2440              
    2441              $C$DW$215       .dwtag  DW_TAG_member
    2442                      .dwattr $C$DW$215, DW_AT_type(*$C$DW$T$19)
    2443                      .dwattr $C$DW$215, DW_AT_name("DAC_B")
    2444                      .dwattr $C$DW$215, DW_AT_TI_symbol_name("_DAC_B")
    2445                      .dwattr $C$DW$215, DW_AT_bit_offset(0x0e)
    2446                      .dwattr $C$DW$215, DW_AT_bit_size(0x01)
    2447                      .dwattr $C$DW$215, DW_AT_data_member_location[DW_OP_plus_uconst 0x1]
    2448                      .dwattr $C$DW$215, DW_AT_accessibility(DW_ACCESS_public)
    2449              
    2450              $C$DW$216       .dwtag  DW_TAG_member
    2451                      .dwattr $C$DW$216, DW_AT_type(*$C$DW$T$19)
TMS320C2000 Assembler PC v18.1.2 Fri Dec 14 17:55:30 2018

Tools Copyright (c) 1996-2017 Texas Instruments Incorporated
F2837xD_Ipc_Driver_Util.asm                                          PAGE   47

    2452                      .dwattr $C$DW$216, DW_AT_name("DAC_C")
    2453                      .dwattr $C$DW$216, DW_AT_TI_symbol_name("_DAC_C")
    2454                      .dwattr $C$DW$216, DW_AT_bit_offset(0x0d)
    2455                      .dwattr $C$DW$216, DW_AT_bit_size(0x01)
    2456                      .dwattr $C$DW$216, DW_AT_data_member_location[DW_OP_plus_uconst 0x1]
    2457                      .dwattr $C$DW$216, DW_AT_accessibility(DW_ACCESS_public)
    2458              
    2459              $C$DW$217       .dwtag  DW_TAG_member
    2460                      .dwattr $C$DW$217, DW_AT_type(*$C$DW$T$19)
    2461                      .dwattr $C$DW$217, DW_AT_name("rsvd6")
    2462                      .dwattr $C$DW$217, DW_AT_TI_symbol_name("_rsvd6")
    2463                      .dwattr $C$DW$217, DW_AT_bit_offset(0x0c)
    2464                      .dwattr $C$DW$217, DW_AT_bit_size(0x01)
    2465                      .dwattr $C$DW$217, DW_AT_data_member_location[DW_OP_plus_uconst 0x1]
    2466                      .dwattr $C$DW$217, DW_AT_accessibility(DW_ACCESS_public)
    2467              
    2468              $C$DW$218       .dwtag  DW_TAG_member
    2469                      .dwattr $C$DW$218, DW_AT_type(*$C$DW$T$19)
    2470                      .dwattr $C$DW$218, DW_AT_name("rsvd7")
    2471                      .dwattr $C$DW$218, DW_AT_TI_symbol_name("_rsvd7")
    2472                      .dwattr $C$DW$218, DW_AT_bit_offset(0x00)
    2473                      .dwattr $C$DW$218, DW_AT_bit_size(0x0c)
    2474                      .dwattr $C$DW$218, DW_AT_data_member_location[DW_OP_plus_uconst 0x1]
    2475                      .dwattr $C$DW$218, DW_AT_accessibility(DW_ACCESS_public)
    2476              
    2477                      .dwendtag $C$DW$T$50
    2478              
    2479              
    2480              $C$DW$T$51      .dwtag  DW_TAG_union_type
    2481                      .dwattr $C$DW$T$51, DW_AT_name("CPUSEL14_REG")
    2482                      .dwattr $C$DW$T$51, DW_AT_byte_size(0x02)
    2483              $C$DW$219       .dwtag  DW_TAG_member
    2484                      .dwattr $C$DW$219, DW_AT_type(*$C$DW$T$21)
    2485                      .dwattr $C$DW$219, DW_AT_name("all")
    2486                      .dwattr $C$DW$219, DW_AT_TI_symbol_name("_all")
    2487                      .dwattr $C$DW$219, DW_AT_data_member_location[DW_OP_plus_uconst 0x0]
    2488                      .dwattr $C$DW$219, DW_AT_accessibility(DW_ACCESS_public)
    2489              
    2490              $C$DW$220       .dwtag  DW_TAG_member
    2491                      .dwattr $C$DW$220, DW_AT_type(*$C$DW$T$50)
    2492                      .dwattr $C$DW$220, DW_AT_name("bit")
    2493                      .dwattr $C$DW$220, DW_AT_TI_symbol_name("_bit")
    2494                      .dwattr $C$DW$220, DW_AT_data_member_location[DW_OP_plus_uconst 0x0]
    2495                      .dwattr $C$DW$220, DW_AT_accessibility(DW_ACCESS_public)
    2496              
    2497                      .dwendtag $C$DW$T$51
    2498              
    2499              
    2500              $C$DW$T$52      .dwtag  DW_TAG_structure_type
    2501                      .dwattr $C$DW$T$52, DW_AT_name("CPUSEL1_BITS")
    2502                      .dwattr $C$DW$T$52, DW_AT_byte_size(0x02)
    2503              $C$DW$221       .dwtag  DW_TAG_member
    2504                      .dwattr $C$DW$221, DW_AT_type(*$C$DW$T$19)
    2505                      .dwattr $C$DW$221, DW_AT_name("ECAP1")
    2506                      .dwattr $C$DW$221, DW_AT_TI_symbol_name("_ECAP1")
TMS320C2000 Assembler PC v18.1.2 Fri Dec 14 17:55:30 2018

Tools Copyright (c) 1996-2017 Texas Instruments Incorporated
F2837xD_Ipc_Driver_Util.asm                                          PAGE   48

    2507                      .dwattr $C$DW$221, DW_AT_bit_offset(0x0f)
    2508                      .dwattr $C$DW$221, DW_AT_bit_size(0x01)
    2509                      .dwattr $C$DW$221, DW_AT_data_member_location[DW_OP_plus_uconst 0x0]
    2510                      .dwattr $C$DW$221, DW_AT_accessibility(DW_ACCESS_public)
    2511              
    2512              $C$DW$222       .dwtag  DW_TAG_member
    2513                      .dwattr $C$DW$222, DW_AT_type(*$C$DW$T$19)
    2514                      .dwattr $C$DW$222, DW_AT_name("ECAP2")
    2515                      .dwattr $C$DW$222, DW_AT_TI_symbol_name("_ECAP2")
    2516                      .dwattr $C$DW$222, DW_AT_bit_offset(0x0e)
    2517                      .dwattr $C$DW$222, DW_AT_bit_size(0x01)
    2518                      .dwattr $C$DW$222, DW_AT_data_member_location[DW_OP_plus_uconst 0x0]
    2519                      .dwattr $C$DW$222, DW_AT_accessibility(DW_ACCESS_public)
    2520              
    2521              $C$DW$223       .dwtag  DW_TAG_member
    2522                      .dwattr $C$DW$223, DW_AT_type(*$C$DW$T$19)
    2523                      .dwattr $C$DW$223, DW_AT_name("ECAP3")
    2524                      .dwattr $C$DW$223, DW_AT_TI_symbol_name("_ECAP3")
    2525                      .dwattr $C$DW$223, DW_AT_bit_offset(0x0d)
    2526                      .dwattr $C$DW$223, DW_AT_bit_size(0x01)
    2527                      .dwattr $C$DW$223, DW_AT_data_member_location[DW_OP_plus_uconst 0x0]
    2528                      .dwattr $C$DW$223, DW_AT_accessibility(DW_ACCESS_public)
    2529              
    2530              $C$DW$224       .dwtag  DW_TAG_member
    2531                      .dwattr $C$DW$224, DW_AT_type(*$C$DW$T$19)
    2532                      .dwattr $C$DW$224, DW_AT_name("ECAP4")
    2533                      .dwattr $C$DW$224, DW_AT_TI_symbol_name("_ECAP4")
    2534                      .dwattr $C$DW$224, DW_AT_bit_offset(0x0c)
    2535                      .dwattr $C$DW$224, DW_AT_bit_size(0x01)
    2536                      .dwattr $C$DW$224, DW_AT_data_member_location[DW_OP_plus_uconst 0x0]
    2537                      .dwattr $C$DW$224, DW_AT_accessibility(DW_ACCESS_public)
    2538              
    2539              $C$DW$225       .dwtag  DW_TAG_member
    2540                      .dwattr $C$DW$225, DW_AT_type(*$C$DW$T$19)
    2541                      .dwattr $C$DW$225, DW_AT_name("ECAP5")
    2542                      .dwattr $C$DW$225, DW_AT_TI_symbol_name("_ECAP5")
    2543                      .dwattr $C$DW$225, DW_AT_bit_offset(0x0b)
    2544                      .dwattr $C$DW$225, DW_AT_bit_size(0x01)
    2545                      .dwattr $C$DW$225, DW_AT_data_member_location[DW_OP_plus_uconst 0x0]
    2546                      .dwattr $C$DW$225, DW_AT_accessibility(DW_ACCESS_public)
    2547              
    2548              $C$DW$226       .dwtag  DW_TAG_member
    2549                      .dwattr $C$DW$226, DW_AT_type(*$C$DW$T$19)
    2550                      .dwattr $C$DW$226, DW_AT_name("ECAP6")
    2551                      .dwattr $C$DW$226, DW_AT_TI_symbol_name("_ECAP6")
    2552                      .dwattr $C$DW$226, DW_AT_bit_offset(0x0a)
    2553                      .dwattr $C$DW$226, DW_AT_bit_size(0x01)
    2554                      .dwattr $C$DW$226, DW_AT_data_member_location[DW_OP_plus_uconst 0x0]
    2555                      .dwattr $C$DW$226, DW_AT_accessibility(DW_ACCESS_public)
    2556              
    2557              $C$DW$227       .dwtag  DW_TAG_member
    2558                      .dwattr $C$DW$227, DW_AT_type(*$C$DW$T$19)
    2559                      .dwattr $C$DW$227, DW_AT_name("rsvd1")
    2560                      .dwattr $C$DW$227, DW_AT_TI_symbol_name("_rsvd1")
    2561                      .dwattr $C$DW$227, DW_AT_bit_offset(0x09)
TMS320C2000 Assembler PC v18.1.2 Fri Dec 14 17:55:30 2018

Tools Copyright (c) 1996-2017 Texas Instruments Incorporated
F2837xD_Ipc_Driver_Util.asm                                          PAGE   49

    2562                      .dwattr $C$DW$227, DW_AT_bit_size(0x01)
    2563                      .dwattr $C$DW$227, DW_AT_data_member_location[DW_OP_plus_uconst 0x0]
    2564                      .dwattr $C$DW$227, DW_AT_accessibility(DW_ACCESS_public)
    2565              
    2566              $C$DW$228       .dwtag  DW_TAG_member
    2567                      .dwattr $C$DW$228, DW_AT_type(*$C$DW$T$19)
    2568                      .dwattr $C$DW$228, DW_AT_name("rsvd2")
    2569                      .dwattr $C$DW$228, DW_AT_TI_symbol_name("_rsvd2")
    2570                      .dwattr $C$DW$228, DW_AT_bit_offset(0x08)
    2571                      .dwattr $C$DW$228, DW_AT_bit_size(0x01)
    2572                      .dwattr $C$DW$228, DW_AT_data_member_location[DW_OP_plus_uconst 0x0]
    2573                      .dwattr $C$DW$228, DW_AT_accessibility(DW_ACCESS_public)
    2574              
    2575              $C$DW$229       .dwtag  DW_TAG_member
    2576                      .dwattr $C$DW$229, DW_AT_type(*$C$DW$T$19)
    2577                      .dwattr $C$DW$229, DW_AT_name("rsvd3")
    2578                      .dwattr $C$DW$229, DW_AT_TI_symbol_name("_rsvd3")
    2579                      .dwattr $C$DW$229, DW_AT_bit_offset(0x00)
    2580                      .dwattr $C$DW$229, DW_AT_bit_size(0x08)
    2581                      .dwattr $C$DW$229, DW_AT_data_member_location[DW_OP_plus_uconst 0x0]
    2582                      .dwattr $C$DW$229, DW_AT_accessibility(DW_ACCESS_public)
    2583              
    2584              $C$DW$230       .dwtag  DW_TAG_member
    2585                      .dwattr $C$DW$230, DW_AT_type(*$C$DW$T$19)
    2586                      .dwattr $C$DW$230, DW_AT_name("rsvd4")
    2587                      .dwattr $C$DW$230, DW_AT_TI_symbol_name("_rsvd4")
    2588                      .dwattr $C$DW$230, DW_AT_bit_offset(0x00)
    2589                      .dwattr $C$DW$230, DW_AT_bit_size(0x10)
    2590                      .dwattr $C$DW$230, DW_AT_data_member_location[DW_OP_plus_uconst 0x1]
    2591                      .dwattr $C$DW$230, DW_AT_accessibility(DW_ACCESS_public)
    2592              
    2593                      .dwendtag $C$DW$T$52
    2594              
    2595              
    2596              $C$DW$T$53      .dwtag  DW_TAG_union_type
    2597                      .dwattr $C$DW$T$53, DW_AT_name("CPUSEL1_REG")
    2598                      .dwattr $C$DW$T$53, DW_AT_byte_size(0x02)
    2599              $C$DW$231       .dwtag  DW_TAG_member
    2600                      .dwattr $C$DW$231, DW_AT_type(*$C$DW$T$21)
    2601                      .dwattr $C$DW$231, DW_AT_name("all")
    2602                      .dwattr $C$DW$231, DW_AT_TI_symbol_name("_all")
    2603                      .dwattr $C$DW$231, DW_AT_data_member_location[DW_OP_plus_uconst 0x0]
    2604                      .dwattr $C$DW$231, DW_AT_accessibility(DW_ACCESS_public)
    2605              
    2606              $C$DW$232       .dwtag  DW_TAG_member
    2607                      .dwattr $C$DW$232, DW_AT_type(*$C$DW$T$52)
    2608                      .dwattr $C$DW$232, DW_AT_name("bit")
    2609                      .dwattr $C$DW$232, DW_AT_TI_symbol_name("_bit")
    2610                      .dwattr $C$DW$232, DW_AT_data_member_location[DW_OP_plus_uconst 0x0]
    2611                      .dwattr $C$DW$232, DW_AT_accessibility(DW_ACCESS_public)
    2612              
    2613                      .dwendtag $C$DW$T$53
    2614              
    2615              
    2616              $C$DW$T$54      .dwtag  DW_TAG_structure_type
TMS320C2000 Assembler PC v18.1.2 Fri Dec 14 17:55:30 2018

Tools Copyright (c) 1996-2017 Texas Instruments Incorporated
F2837xD_Ipc_Driver_Util.asm                                          PAGE   50

    2617                      .dwattr $C$DW$T$54, DW_AT_name("CPUSEL2_BITS")
    2618                      .dwattr $C$DW$T$54, DW_AT_byte_size(0x02)
    2619              $C$DW$233       .dwtag  DW_TAG_member
    2620                      .dwattr $C$DW$233, DW_AT_type(*$C$DW$T$19)
    2621                      .dwattr $C$DW$233, DW_AT_name("EQEP1")
    2622                      .dwattr $C$DW$233, DW_AT_TI_symbol_name("_EQEP1")
    2623                      .dwattr $C$DW$233, DW_AT_bit_offset(0x0f)
    2624                      .dwattr $C$DW$233, DW_AT_bit_size(0x01)
    2625                      .dwattr $C$DW$233, DW_AT_data_member_location[DW_OP_plus_uconst 0x0]
    2626                      .dwattr $C$DW$233, DW_AT_accessibility(DW_ACCESS_public)
    2627              
    2628              $C$DW$234       .dwtag  DW_TAG_member
    2629                      .dwattr $C$DW$234, DW_AT_type(*$C$DW$T$19)
    2630                      .dwattr $C$DW$234, DW_AT_name("EQEP2")
    2631                      .dwattr $C$DW$234, DW_AT_TI_symbol_name("_EQEP2")
    2632                      .dwattr $C$DW$234, DW_AT_bit_offset(0x0e)
    2633                      .dwattr $C$DW$234, DW_AT_bit_size(0x01)
    2634                      .dwattr $C$DW$234, DW_AT_data_member_location[DW_OP_plus_uconst 0x0]
    2635                      .dwattr $C$DW$234, DW_AT_accessibility(DW_ACCESS_public)
    2636              
    2637              $C$DW$235       .dwtag  DW_TAG_member
    2638                      .dwattr $C$DW$235, DW_AT_type(*$C$DW$T$19)
    2639                      .dwattr $C$DW$235, DW_AT_name("EQEP3")
    2640                      .dwattr $C$DW$235, DW_AT_TI_symbol_name("_EQEP3")
    2641                      .dwattr $C$DW$235, DW_AT_bit_offset(0x0d)
    2642                      .dwattr $C$DW$235, DW_AT_bit_size(0x01)
    2643                      .dwattr $C$DW$235, DW_AT_data_member_location[DW_OP_plus_uconst 0x0]
    2644                      .dwattr $C$DW$235, DW_AT_accessibility(DW_ACCESS_public)
    2645              
    2646              $C$DW$236       .dwtag  DW_TAG_member
    2647                      .dwattr $C$DW$236, DW_AT_type(*$C$DW$T$19)
    2648                      .dwattr $C$DW$236, DW_AT_name("rsvd1")
    2649                      .dwattr $C$DW$236, DW_AT_TI_symbol_name("_rsvd1")
    2650                      .dwattr $C$DW$236, DW_AT_bit_offset(0x0c)
    2651                      .dwattr $C$DW$236, DW_AT_bit_size(0x01)
    2652                      .dwattr $C$DW$236, DW_AT_data_member_location[DW_OP_plus_uconst 0x0]
    2653                      .dwattr $C$DW$236, DW_AT_accessibility(DW_ACCESS_public)
    2654              
    2655              $C$DW$237       .dwtag  DW_TAG_member
    2656                      .dwattr $C$DW$237, DW_AT_type(*$C$DW$T$19)
    2657                      .dwattr $C$DW$237, DW_AT_name("rsvd2")
    2658                      .dwattr $C$DW$237, DW_AT_TI_symbol_name("_rsvd2")
    2659                      .dwattr $C$DW$237, DW_AT_bit_offset(0x00)
    2660                      .dwattr $C$DW$237, DW_AT_bit_size(0x0c)
    2661                      .dwattr $C$DW$237, DW_AT_data_member_location[DW_OP_plus_uconst 0x0]
    2662                      .dwattr $C$DW$237, DW_AT_accessibility(DW_ACCESS_public)
    2663              
    2664              $C$DW$238       .dwtag  DW_TAG_member
    2665                      .dwattr $C$DW$238, DW_AT_type(*$C$DW$T$19)
    2666                      .dwattr $C$DW$238, DW_AT_name("rsvd3")
    2667                      .dwattr $C$DW$238, DW_AT_TI_symbol_name("_rsvd3")
    2668                      .dwattr $C$DW$238, DW_AT_bit_offset(0x00)
    2669                      .dwattr $C$DW$238, DW_AT_bit_size(0x10)
    2670                      .dwattr $C$DW$238, DW_AT_data_member_location[DW_OP_plus_uconst 0x1]
    2671                      .dwattr $C$DW$238, DW_AT_accessibility(DW_ACCESS_public)
TMS320C2000 Assembler PC v18.1.2 Fri Dec 14 17:55:30 2018

Tools Copyright (c) 1996-2017 Texas Instruments Incorporated
F2837xD_Ipc_Driver_Util.asm                                          PAGE   51

    2672              
    2673                      .dwendtag $C$DW$T$54
    2674              
    2675              
    2676              $C$DW$T$55      .dwtag  DW_TAG_union_type
    2677                      .dwattr $C$DW$T$55, DW_AT_name("CPUSEL2_REG")
    2678                      .dwattr $C$DW$T$55, DW_AT_byte_size(0x02)
    2679              $C$DW$239       .dwtag  DW_TAG_member
    2680                      .dwattr $C$DW$239, DW_AT_type(*$C$DW$T$21)
    2681                      .dwattr $C$DW$239, DW_AT_name("all")
    2682                      .dwattr $C$DW$239, DW_AT_TI_symbol_name("_all")
    2683                      .dwattr $C$DW$239, DW_AT_data_member_location[DW_OP_plus_uconst 0x0]
    2684                      .dwattr $C$DW$239, DW_AT_accessibility(DW_ACCESS_public)
    2685              
    2686              $C$DW$240       .dwtag  DW_TAG_member
    2687                      .dwattr $C$DW$240, DW_AT_type(*$C$DW$T$54)
    2688                      .dwattr $C$DW$240, DW_AT_name("bit")
    2689                      .dwattr $C$DW$240, DW_AT_TI_symbol_name("_bit")
    2690                      .dwattr $C$DW$240, DW_AT_data_member_location[DW_OP_plus_uconst 0x0]
    2691                      .dwattr $C$DW$240, DW_AT_accessibility(DW_ACCESS_public)
    2692              
    2693                      .dwendtag $C$DW$T$55
    2694              
    2695              
    2696              $C$DW$T$56      .dwtag  DW_TAG_structure_type
    2697                      .dwattr $C$DW$T$56, DW_AT_name("CPUSEL4_BITS")
    2698                      .dwattr $C$DW$T$56, DW_AT_byte_size(0x02)
    2699              $C$DW$241       .dwtag  DW_TAG_member
    2700                      .dwattr $C$DW$241, DW_AT_type(*$C$DW$T$19)
    2701                      .dwattr $C$DW$241, DW_AT_name("SD1")
    2702                      .dwattr $C$DW$241, DW_AT_TI_symbol_name("_SD1")
    2703                      .dwattr $C$DW$241, DW_AT_bit_offset(0x0f)
    2704                      .dwattr $C$DW$241, DW_AT_bit_size(0x01)
    2705                      .dwattr $C$DW$241, DW_AT_data_member_location[DW_OP_plus_uconst 0x0]
    2706                      .dwattr $C$DW$241, DW_AT_accessibility(DW_ACCESS_public)
    2707              
    2708              $C$DW$242       .dwtag  DW_TAG_member
    2709                      .dwattr $C$DW$242, DW_AT_type(*$C$DW$T$19)
    2710                      .dwattr $C$DW$242, DW_AT_name("SD2")
    2711                      .dwattr $C$DW$242, DW_AT_TI_symbol_name("_SD2")
    2712                      .dwattr $C$DW$242, DW_AT_bit_offset(0x0e)
    2713                      .dwattr $C$DW$242, DW_AT_bit_size(0x01)
    2714                      .dwattr $C$DW$242, DW_AT_data_member_location[DW_OP_plus_uconst 0x0]
    2715                      .dwattr $C$DW$242, DW_AT_accessibility(DW_ACCESS_public)
    2716              
    2717              $C$DW$243       .dwtag  DW_TAG_member
    2718                      .dwattr $C$DW$243, DW_AT_type(*$C$DW$T$19)
    2719                      .dwattr $C$DW$243, DW_AT_name("rsvd1")
    2720                      .dwattr $C$DW$243, DW_AT_TI_symbol_name("_rsvd1")
    2721                      .dwattr $C$DW$243, DW_AT_bit_offset(0x0d)
    2722                      .dwattr $C$DW$243, DW_AT_bit_size(0x01)
    2723                      .dwattr $C$DW$243, DW_AT_data_member_location[DW_OP_plus_uconst 0x0]
    2724                      .dwattr $C$DW$243, DW_AT_accessibility(DW_ACCESS_public)
    2725              
    2726              $C$DW$244       .dwtag  DW_TAG_member
TMS320C2000 Assembler PC v18.1.2 Fri Dec 14 17:55:30 2018

Tools Copyright (c) 1996-2017 Texas Instruments Incorporated
F2837xD_Ipc_Driver_Util.asm                                          PAGE   52

    2727                      .dwattr $C$DW$244, DW_AT_type(*$C$DW$T$19)
    2728                      .dwattr $C$DW$244, DW_AT_name("rsvd2")
    2729                      .dwattr $C$DW$244, DW_AT_TI_symbol_name("_rsvd2")
    2730                      .dwattr $C$DW$244, DW_AT_bit_offset(0x0c)
    2731                      .dwattr $C$DW$244, DW_AT_bit_size(0x01)
    2732                      .dwattr $C$DW$244, DW_AT_data_member_location[DW_OP_plus_uconst 0x0]
    2733                      .dwattr $C$DW$244, DW_AT_accessibility(DW_ACCESS_public)
    2734              
    2735              $C$DW$245       .dwtag  DW_TAG_member
    2736                      .dwattr $C$DW$245, DW_AT_type(*$C$DW$T$19)
    2737                      .dwattr $C$DW$245, DW_AT_name("rsvd3")
    2738                      .dwattr $C$DW$245, DW_AT_TI_symbol_name("_rsvd3")
    2739                      .dwattr $C$DW$245, DW_AT_bit_offset(0x0b)
    2740                      .dwattr $C$DW$245, DW_AT_bit_size(0x01)
    2741                      .dwattr $C$DW$245, DW_AT_data_member_location[DW_OP_plus_uconst 0x0]
    2742                      .dwattr $C$DW$245, DW_AT_accessibility(DW_ACCESS_public)
    2743              
    2744              $C$DW$246       .dwtag  DW_TAG_member
    2745                      .dwattr $C$DW$246, DW_AT_type(*$C$DW$T$19)
    2746                      .dwattr $C$DW$246, DW_AT_name("rsvd4")
    2747                      .dwattr $C$DW$246, DW_AT_TI_symbol_name("_rsvd4")
    2748                      .dwattr $C$DW$246, DW_AT_bit_offset(0x0a)
    2749                      .dwattr $C$DW$246, DW_AT_bit_size(0x01)
    2750                      .dwattr $C$DW$246, DW_AT_data_member_location[DW_OP_plus_uconst 0x0]
    2751                      .dwattr $C$DW$246, DW_AT_accessibility(DW_ACCESS_public)
    2752              
    2753              $C$DW$247       .dwtag  DW_TAG_member
    2754                      .dwattr $C$DW$247, DW_AT_type(*$C$DW$T$19)
    2755                      .dwattr $C$DW$247, DW_AT_name("rsvd5")
    2756                      .dwattr $C$DW$247, DW_AT_TI_symbol_name("_rsvd5")
    2757                      .dwattr $C$DW$247, DW_AT_bit_offset(0x09)
    2758                      .dwattr $C$DW$247, DW_AT_bit_size(0x01)
    2759                      .dwattr $C$DW$247, DW_AT_data_member_location[DW_OP_plus_uconst 0x0]
    2760                      .dwattr $C$DW$247, DW_AT_accessibility(DW_ACCESS_public)
    2761              
    2762              $C$DW$248       .dwtag  DW_TAG_member
    2763                      .dwattr $C$DW$248, DW_AT_type(*$C$DW$T$19)
    2764                      .dwattr $C$DW$248, DW_AT_name("rsvd6")
    2765                      .dwattr $C$DW$248, DW_AT_TI_symbol_name("_rsvd6")
    2766                      .dwattr $C$DW$248, DW_AT_bit_offset(0x08)
    2767                      .dwattr $C$DW$248, DW_AT_bit_size(0x01)
    2768                      .dwattr $C$DW$248, DW_AT_data_member_location[DW_OP_plus_uconst 0x0]
    2769                      .dwattr $C$DW$248, DW_AT_accessibility(DW_ACCESS_public)
    2770              
    2771              $C$DW$249       .dwtag  DW_TAG_member
    2772                      .dwattr $C$DW$249, DW_AT_type(*$C$DW$T$19)
    2773                      .dwattr $C$DW$249, DW_AT_name("rsvd7")
    2774                      .dwattr $C$DW$249, DW_AT_TI_symbol_name("_rsvd7")
    2775                      .dwattr $C$DW$249, DW_AT_bit_offset(0x00)
    2776                      .dwattr $C$DW$249, DW_AT_bit_size(0x08)
    2777                      .dwattr $C$DW$249, DW_AT_data_member_location[DW_OP_plus_uconst 0x0]
    2778                      .dwattr $C$DW$249, DW_AT_accessibility(DW_ACCESS_public)
    2779              
    2780              $C$DW$250       .dwtag  DW_TAG_member
    2781                      .dwattr $C$DW$250, DW_AT_type(*$C$DW$T$19)
TMS320C2000 Assembler PC v18.1.2 Fri Dec 14 17:55:30 2018

Tools Copyright (c) 1996-2017 Texas Instruments Incorporated
F2837xD_Ipc_Driver_Util.asm                                          PAGE   53

    2782                      .dwattr $C$DW$250, DW_AT_name("rsvd8")
    2783                      .dwattr $C$DW$250, DW_AT_TI_symbol_name("_rsvd8")
    2784                      .dwattr $C$DW$250, DW_AT_bit_offset(0x00)
    2785                      .dwattr $C$DW$250, DW_AT_bit_size(0x10)
    2786                      .dwattr $C$DW$250, DW_AT_data_member_location[DW_OP_plus_uconst 0x1]
    2787                      .dwattr $C$DW$250, DW_AT_accessibility(DW_ACCESS_public)
    2788              
    2789                      .dwendtag $C$DW$T$56
    2790              
    2791              
    2792              $C$DW$T$57      .dwtag  DW_TAG_union_type
    2793                      .dwattr $C$DW$T$57, DW_AT_name("CPUSEL4_REG")
    2794                      .dwattr $C$DW$T$57, DW_AT_byte_size(0x02)
    2795              $C$DW$251       .dwtag  DW_TAG_member
    2796                      .dwattr $C$DW$251, DW_AT_type(*$C$DW$T$21)
    2797                      .dwattr $C$DW$251, DW_AT_name("all")
    2798                      .dwattr $C$DW$251, DW_AT_TI_symbol_name("_all")
    2799                      .dwattr $C$DW$251, DW_AT_data_member_location[DW_OP_plus_uconst 0x0]
    2800                      .dwattr $C$DW$251, DW_AT_accessibility(DW_ACCESS_public)
    2801              
    2802              $C$DW$252       .dwtag  DW_TAG_member
    2803                      .dwattr $C$DW$252, DW_AT_type(*$C$DW$T$56)
    2804                      .dwattr $C$DW$252, DW_AT_name("bit")
    2805                      .dwattr $C$DW$252, DW_AT_TI_symbol_name("_bit")
    2806                      .dwattr $C$DW$252, DW_AT_data_member_location[DW_OP_plus_uconst 0x0]
    2807                      .dwattr $C$DW$252, DW_AT_accessibility(DW_ACCESS_public)
    2808              
    2809                      .dwendtag $C$DW$T$57
    2810              
    2811              
    2812              $C$DW$T$58      .dwtag  DW_TAG_structure_type
    2813                      .dwattr $C$DW$T$58, DW_AT_name("CPUSEL5_BITS")
    2814                      .dwattr $C$DW$T$58, DW_AT_byte_size(0x02)
    2815              $C$DW$253       .dwtag  DW_TAG_member
    2816                      .dwattr $C$DW$253, DW_AT_type(*$C$DW$T$19)
    2817                      .dwattr $C$DW$253, DW_AT_name("SCI_A")
    2818                      .dwattr $C$DW$253, DW_AT_TI_symbol_name("_SCI_A")
    2819                      .dwattr $C$DW$253, DW_AT_bit_offset(0x0f)
    2820                      .dwattr $C$DW$253, DW_AT_bit_size(0x01)
    2821                      .dwattr $C$DW$253, DW_AT_data_member_location[DW_OP_plus_uconst 0x0]
    2822                      .dwattr $C$DW$253, DW_AT_accessibility(DW_ACCESS_public)
    2823              
    2824              $C$DW$254       .dwtag  DW_TAG_member
    2825                      .dwattr $C$DW$254, DW_AT_type(*$C$DW$T$19)
    2826                      .dwattr $C$DW$254, DW_AT_name("SCI_B")
    2827                      .dwattr $C$DW$254, DW_AT_TI_symbol_name("_SCI_B")
    2828                      .dwattr $C$DW$254, DW_AT_bit_offset(0x0e)
    2829                      .dwattr $C$DW$254, DW_AT_bit_size(0x01)
    2830                      .dwattr $C$DW$254, DW_AT_data_member_location[DW_OP_plus_uconst 0x0]
    2831                      .dwattr $C$DW$254, DW_AT_accessibility(DW_ACCESS_public)
    2832              
    2833              $C$DW$255       .dwtag  DW_TAG_member
    2834                      .dwattr $C$DW$255, DW_AT_type(*$C$DW$T$19)
    2835                      .dwattr $C$DW$255, DW_AT_name("SCI_C")
    2836                      .dwattr $C$DW$255, DW_AT_TI_symbol_name("_SCI_C")
TMS320C2000 Assembler PC v18.1.2 Fri Dec 14 17:55:30 2018

Tools Copyright (c) 1996-2017 Texas Instruments Incorporated
F2837xD_Ipc_Driver_Util.asm                                          PAGE   54

    2837                      .dwattr $C$DW$255, DW_AT_bit_offset(0x0d)
    2838                      .dwattr $C$DW$255, DW_AT_bit_size(0x01)
    2839                      .dwattr $C$DW$255, DW_AT_data_member_location[DW_OP_plus_uconst 0x0]
    2840                      .dwattr $C$DW$255, DW_AT_accessibility(DW_ACCESS_public)
    2841              
    2842              $C$DW$256       .dwtag  DW_TAG_member
    2843                      .dwattr $C$DW$256, DW_AT_type(*$C$DW$T$19)
    2844                      .dwattr $C$DW$256, DW_AT_name("SCI_D")
    2845                      .dwattr $C$DW$256, DW_AT_TI_symbol_name("_SCI_D")
    2846                      .dwattr $C$DW$256, DW_AT_bit_offset(0x0c)
    2847                      .dwattr $C$DW$256, DW_AT_bit_size(0x01)
    2848                      .dwattr $C$DW$256, DW_AT_data_member_location[DW_OP_plus_uconst 0x0]
    2849                      .dwattr $C$DW$256, DW_AT_accessibility(DW_ACCESS_public)
    2850              
    2851              $C$DW$257       .dwtag  DW_TAG_member
    2852                      .dwattr $C$DW$257, DW_AT_type(*$C$DW$T$19)
    2853                      .dwattr $C$DW$257, DW_AT_name("rsvd1")
    2854                      .dwattr $C$DW$257, DW_AT_TI_symbol_name("_rsvd1")
    2855                      .dwattr $C$DW$257, DW_AT_bit_offset(0x00)
    2856                      .dwattr $C$DW$257, DW_AT_bit_size(0x0c)
    2857                      .dwattr $C$DW$257, DW_AT_data_member_location[DW_OP_plus_uconst 0x0]
    2858                      .dwattr $C$DW$257, DW_AT_accessibility(DW_ACCESS_public)
    2859              
    2860              $C$DW$258       .dwtag  DW_TAG_member
    2861                      .dwattr $C$DW$258, DW_AT_type(*$C$DW$T$19)
    2862                      .dwattr $C$DW$258, DW_AT_name("rsvd2")
    2863                      .dwattr $C$DW$258, DW_AT_TI_symbol_name("_rsvd2")
    2864                      .dwattr $C$DW$258, DW_AT_bit_offset(0x00)
    2865                      .dwattr $C$DW$258, DW_AT_bit_size(0x10)
    2866                      .dwattr $C$DW$258, DW_AT_data_member_location[DW_OP_plus_uconst 0x1]
    2867                      .dwattr $C$DW$258, DW_AT_accessibility(DW_ACCESS_public)
    2868              
    2869                      .dwendtag $C$DW$T$58
    2870              
    2871              
    2872              $C$DW$T$59      .dwtag  DW_TAG_union_type
    2873                      .dwattr $C$DW$T$59, DW_AT_name("CPUSEL5_REG")
    2874                      .dwattr $C$DW$T$59, DW_AT_byte_size(0x02)
    2875              $C$DW$259       .dwtag  DW_TAG_member
    2876                      .dwattr $C$DW$259, DW_AT_type(*$C$DW$T$21)
    2877                      .dwattr $C$DW$259, DW_AT_name("all")
    2878                      .dwattr $C$DW$259, DW_AT_TI_symbol_name("_all")
    2879                      .dwattr $C$DW$259, DW_AT_data_member_location[DW_OP_plus_uconst 0x0]
    2880                      .dwattr $C$DW$259, DW_AT_accessibility(DW_ACCESS_public)
    2881              
    2882              $C$DW$260       .dwtag  DW_TAG_member
    2883                      .dwattr $C$DW$260, DW_AT_type(*$C$DW$T$58)
    2884                      .dwattr $C$DW$260, DW_AT_name("bit")
    2885                      .dwattr $C$DW$260, DW_AT_TI_symbol_name("_bit")
    2886                      .dwattr $C$DW$260, DW_AT_data_member_location[DW_OP_plus_uconst 0x0]
    2887                      .dwattr $C$DW$260, DW_AT_accessibility(DW_ACCESS_public)
    2888              
    2889                      .dwendtag $C$DW$T$59
    2890              
    2891              
TMS320C2000 Assembler PC v18.1.2 Fri Dec 14 17:55:30 2018

Tools Copyright (c) 1996-2017 Texas Instruments Incorporated
F2837xD_Ipc_Driver_Util.asm                                          PAGE   55

    2892              $C$DW$T$60      .dwtag  DW_TAG_structure_type
    2893                      .dwattr $C$DW$T$60, DW_AT_name("CPUSEL6_BITS")
    2894                      .dwattr $C$DW$T$60, DW_AT_byte_size(0x02)
    2895              $C$DW$261       .dwtag  DW_TAG_member
    2896                      .dwattr $C$DW$261, DW_AT_type(*$C$DW$T$19)
    2897                      .dwattr $C$DW$261, DW_AT_name("SPI_A")
    2898                      .dwattr $C$DW$261, DW_AT_TI_symbol_name("_SPI_A")
    2899                      .dwattr $C$DW$261, DW_AT_bit_offset(0x0f)
    2900                      .dwattr $C$DW$261, DW_AT_bit_size(0x01)
    2901                      .dwattr $C$DW$261, DW_AT_data_member_location[DW_OP_plus_uconst 0x0]
    2902                      .dwattr $C$DW$261, DW_AT_accessibility(DW_ACCESS_public)
    2903              
    2904              $C$DW$262       .dwtag  DW_TAG_member
    2905                      .dwattr $C$DW$262, DW_AT_type(*$C$DW$T$19)
    2906                      .dwattr $C$DW$262, DW_AT_name("SPI_B")
    2907                      .dwattr $C$DW$262, DW_AT_TI_symbol_name("_SPI_B")
    2908                      .dwattr $C$DW$262, DW_AT_bit_offset(0x0e)
    2909                      .dwattr $C$DW$262, DW_AT_bit_size(0x01)
    2910                      .dwattr $C$DW$262, DW_AT_data_member_location[DW_OP_plus_uconst 0x0]
    2911                      .dwattr $C$DW$262, DW_AT_accessibility(DW_ACCESS_public)
    2912              
    2913              $C$DW$263       .dwtag  DW_TAG_member
    2914                      .dwattr $C$DW$263, DW_AT_type(*$C$DW$T$19)
    2915                      .dwattr $C$DW$263, DW_AT_name("SPI_C")
    2916                      .dwattr $C$DW$263, DW_AT_TI_symbol_name("_SPI_C")
    2917                      .dwattr $C$DW$263, DW_AT_bit_offset(0x0d)
    2918                      .dwattr $C$DW$263, DW_AT_bit_size(0x01)
    2919                      .dwattr $C$DW$263, DW_AT_data_member_location[DW_OP_plus_uconst 0x0]
    2920                      .dwattr $C$DW$263, DW_AT_accessibility(DW_ACCESS_public)
    2921              
    2922              $C$DW$264       .dwtag  DW_TAG_member
    2923                      .dwattr $C$DW$264, DW_AT_type(*$C$DW$T$19)
    2924                      .dwattr $C$DW$264, DW_AT_name("rsvd1")
    2925                      .dwattr $C$DW$264, DW_AT_TI_symbol_name("_rsvd1")
    2926                      .dwattr $C$DW$264, DW_AT_bit_offset(0x0c)
    2927                      .dwattr $C$DW$264, DW_AT_bit_size(0x01)
    2928                      .dwattr $C$DW$264, DW_AT_data_member_location[DW_OP_plus_uconst 0x0]
    2929                      .dwattr $C$DW$264, DW_AT_accessibility(DW_ACCESS_public)
    2930              
    2931              $C$DW$265       .dwtag  DW_TAG_member
    2932                      .dwattr $C$DW$265, DW_AT_type(*$C$DW$T$19)
    2933                      .dwattr $C$DW$265, DW_AT_name("rsvd2")
    2934                      .dwattr $C$DW$265, DW_AT_TI_symbol_name("_rsvd2")
    2935                      .dwattr $C$DW$265, DW_AT_bit_offset(0x00)
    2936                      .dwattr $C$DW$265, DW_AT_bit_size(0x0c)
    2937                      .dwattr $C$DW$265, DW_AT_data_member_location[DW_OP_plus_uconst 0x0]
    2938                      .dwattr $C$DW$265, DW_AT_accessibility(DW_ACCESS_public)
    2939              
    2940              $C$DW$266       .dwtag  DW_TAG_member
    2941                      .dwattr $C$DW$266, DW_AT_type(*$C$DW$T$19)
    2942                      .dwattr $C$DW$266, DW_AT_name("rsvd3")
    2943                      .dwattr $C$DW$266, DW_AT_TI_symbol_name("_rsvd3")
    2944                      .dwattr $C$DW$266, DW_AT_bit_offset(0x0f)
    2945                      .dwattr $C$DW$266, DW_AT_bit_size(0x01)
    2946                      .dwattr $C$DW$266, DW_AT_data_member_location[DW_OP_plus_uconst 0x1]
TMS320C2000 Assembler PC v18.1.2 Fri Dec 14 17:55:30 2018

Tools Copyright (c) 1996-2017 Texas Instruments Incorporated
F2837xD_Ipc_Driver_Util.asm                                          PAGE   56

    2947                      .dwattr $C$DW$266, DW_AT_accessibility(DW_ACCESS_public)
    2948              
    2949              $C$DW$267       .dwtag  DW_TAG_member
    2950                      .dwattr $C$DW$267, DW_AT_type(*$C$DW$T$19)
    2951                      .dwattr $C$DW$267, DW_AT_name("rsvd4")
    2952                      .dwattr $C$DW$267, DW_AT_TI_symbol_name("_rsvd4")
    2953                      .dwattr $C$DW$267, DW_AT_bit_offset(0x0e)
    2954                      .dwattr $C$DW$267, DW_AT_bit_size(0x01)
    2955                      .dwattr $C$DW$267, DW_AT_data_member_location[DW_OP_plus_uconst 0x1]
    2956                      .dwattr $C$DW$267, DW_AT_accessibility(DW_ACCESS_public)
    2957              
    2958              $C$DW$268       .dwtag  DW_TAG_member
    2959                      .dwattr $C$DW$268, DW_AT_type(*$C$DW$T$19)
    2960                      .dwattr $C$DW$268, DW_AT_name("rsvd5")
    2961                      .dwattr $C$DW$268, DW_AT_TI_symbol_name("_rsvd5")
    2962                      .dwattr $C$DW$268, DW_AT_bit_offset(0x00)
    2963                      .dwattr $C$DW$268, DW_AT_bit_size(0x0e)
    2964                      .dwattr $C$DW$268, DW_AT_data_member_location[DW_OP_plus_uconst 0x1]
    2965                      .dwattr $C$DW$268, DW_AT_accessibility(DW_ACCESS_public)
    2966              
    2967                      .dwendtag $C$DW$T$60
    2968              
    2969              
    2970              $C$DW$T$61      .dwtag  DW_TAG_union_type
    2971                      .dwattr $C$DW$T$61, DW_AT_name("CPUSEL6_REG")
    2972                      .dwattr $C$DW$T$61, DW_AT_byte_size(0x02)
    2973              $C$DW$269       .dwtag  DW_TAG_member
    2974                      .dwattr $C$DW$269, DW_AT_type(*$C$DW$T$21)
    2975                      .dwattr $C$DW$269, DW_AT_name("all")
    2976                      .dwattr $C$DW$269, DW_AT_TI_symbol_name("_all")
    2977                      .dwattr $C$DW$269, DW_AT_data_member_location[DW_OP_plus_uconst 0x0]
    2978                      .dwattr $C$DW$269, DW_AT_accessibility(DW_ACCESS_public)
    2979              
    2980              $C$DW$270       .dwtag  DW_TAG_member
    2981                      .dwattr $C$DW$270, DW_AT_type(*$C$DW$T$60)
    2982                      .dwattr $C$DW$270, DW_AT_name("bit")
    2983                      .dwattr $C$DW$270, DW_AT_TI_symbol_name("_bit")
    2984                      .dwattr $C$DW$270, DW_AT_data_member_location[DW_OP_plus_uconst 0x0]
    2985                      .dwattr $C$DW$270, DW_AT_accessibility(DW_ACCESS_public)
    2986              
    2987                      .dwendtag $C$DW$T$61
    2988              
    2989              
    2990              $C$DW$T$62      .dwtag  DW_TAG_structure_type
    2991                      .dwattr $C$DW$T$62, DW_AT_name("CPUSEL7_BITS")
    2992                      .dwattr $C$DW$T$62, DW_AT_byte_size(0x02)
    2993              $C$DW$271       .dwtag  DW_TAG_member
    2994                      .dwattr $C$DW$271, DW_AT_type(*$C$DW$T$19)
    2995                      .dwattr $C$DW$271, DW_AT_name("I2C_A")
    2996                      .dwattr $C$DW$271, DW_AT_TI_symbol_name("_I2C_A")
    2997                      .dwattr $C$DW$271, DW_AT_bit_offset(0x0f)
    2998                      .dwattr $C$DW$271, DW_AT_bit_size(0x01)
    2999                      .dwattr $C$DW$271, DW_AT_data_member_location[DW_OP_plus_uconst 0x0]
    3000                      .dwattr $C$DW$271, DW_AT_accessibility(DW_ACCESS_public)
    3001              
TMS320C2000 Assembler PC v18.1.2 Fri Dec 14 17:55:30 2018

Tools Copyright (c) 1996-2017 Texas Instruments Incorporated
F2837xD_Ipc_Driver_Util.asm                                          PAGE   57

    3002              $C$DW$272       .dwtag  DW_TAG_member
    3003                      .dwattr $C$DW$272, DW_AT_type(*$C$DW$T$19)
    3004                      .dwattr $C$DW$272, DW_AT_name("I2C_B")
    3005                      .dwattr $C$DW$272, DW_AT_TI_symbol_name("_I2C_B")
    3006                      .dwattr $C$DW$272, DW_AT_bit_offset(0x0e)
    3007                      .dwattr $C$DW$272, DW_AT_bit_size(0x01)
    3008                      .dwattr $C$DW$272, DW_AT_data_member_location[DW_OP_plus_uconst 0x0]
    3009                      .dwattr $C$DW$272, DW_AT_accessibility(DW_ACCESS_public)
    3010              
    3011              $C$DW$273       .dwtag  DW_TAG_member
    3012                      .dwattr $C$DW$273, DW_AT_type(*$C$DW$T$19)
    3013                      .dwattr $C$DW$273, DW_AT_name("rsvd1")
    3014                      .dwattr $C$DW$273, DW_AT_TI_symbol_name("_rsvd1")
    3015                      .dwattr $C$DW$273, DW_AT_bit_offset(0x00)
    3016                      .dwattr $C$DW$273, DW_AT_bit_size(0x0e)
    3017                      .dwattr $C$DW$273, DW_AT_data_member_location[DW_OP_plus_uconst 0x0]
    3018                      .dwattr $C$DW$273, DW_AT_accessibility(DW_ACCESS_public)
    3019              
    3020              $C$DW$274       .dwtag  DW_TAG_member
    3021                      .dwattr $C$DW$274, DW_AT_type(*$C$DW$T$19)
    3022                      .dwattr $C$DW$274, DW_AT_name("rsvd2")
    3023                      .dwattr $C$DW$274, DW_AT_TI_symbol_name("_rsvd2")
    3024                      .dwattr $C$DW$274, DW_AT_bit_offset(0x0f)
    3025                      .dwattr $C$DW$274, DW_AT_bit_size(0x01)
    3026                      .dwattr $C$DW$274, DW_AT_data_member_location[DW_OP_plus_uconst 0x1]
    3027                      .dwattr $C$DW$274, DW_AT_accessibility(DW_ACCESS_public)
    3028              
    3029              $C$DW$275       .dwtag  DW_TAG_member
    3030                      .dwattr $C$DW$275, DW_AT_type(*$C$DW$T$19)
    3031                      .dwattr $C$DW$275, DW_AT_name("rsvd3")
    3032                      .dwattr $C$DW$275, DW_AT_TI_symbol_name("_rsvd3")
    3033                      .dwattr $C$DW$275, DW_AT_bit_offset(0x0e)
    3034                      .dwattr $C$DW$275, DW_AT_bit_size(0x01)
    3035                      .dwattr $C$DW$275, DW_AT_data_member_location[DW_OP_plus_uconst 0x1]
    3036                      .dwattr $C$DW$275, DW_AT_accessibility(DW_ACCESS_public)
    3037              
    3038              $C$DW$276       .dwtag  DW_TAG_member
    3039                      .dwattr $C$DW$276, DW_AT_type(*$C$DW$T$19)
    3040                      .dwattr $C$DW$276, DW_AT_name("rsvd4")
    3041                      .dwattr $C$DW$276, DW_AT_TI_symbol_name("_rsvd4")
    3042                      .dwattr $C$DW$276, DW_AT_bit_offset(0x00)
    3043                      .dwattr $C$DW$276, DW_AT_bit_size(0x0e)
    3044                      .dwattr $C$DW$276, DW_AT_data_member_location[DW_OP_plus_uconst 0x1]
    3045                      .dwattr $C$DW$276, DW_AT_accessibility(DW_ACCESS_public)
    3046              
    3047                      .dwendtag $C$DW$T$62
    3048              
    3049              
    3050              $C$DW$T$63      .dwtag  DW_TAG_union_type
    3051                      .dwattr $C$DW$T$63, DW_AT_name("CPUSEL7_REG")
    3052                      .dwattr $C$DW$T$63, DW_AT_byte_size(0x02)
    3053              $C$DW$277       .dwtag  DW_TAG_member
    3054                      .dwattr $C$DW$277, DW_AT_type(*$C$DW$T$21)
    3055                      .dwattr $C$DW$277, DW_AT_name("all")
    3056                      .dwattr $C$DW$277, DW_AT_TI_symbol_name("_all")
TMS320C2000 Assembler PC v18.1.2 Fri Dec 14 17:55:30 2018

Tools Copyright (c) 1996-2017 Texas Instruments Incorporated
F2837xD_Ipc_Driver_Util.asm                                          PAGE   58

    3057                      .dwattr $C$DW$277, DW_AT_data_member_location[DW_OP_plus_uconst 0x0]
    3058                      .dwattr $C$DW$277, DW_AT_accessibility(DW_ACCESS_public)
    3059              
    3060              $C$DW$278       .dwtag  DW_TAG_member
    3061                      .dwattr $C$DW$278, DW_AT_type(*$C$DW$T$62)
    3062                      .dwattr $C$DW$278, DW_AT_name("bit")
    3063                      .dwattr $C$DW$278, DW_AT_TI_symbol_name("_bit")
    3064                      .dwattr $C$DW$278, DW_AT_data_member_location[DW_OP_plus_uconst 0x0]
    3065                      .dwattr $C$DW$278, DW_AT_accessibility(DW_ACCESS_public)
    3066              
    3067                      .dwendtag $C$DW$T$63
    3068              
    3069              
    3070              $C$DW$T$64      .dwtag  DW_TAG_structure_type
    3071                      .dwattr $C$DW$T$64, DW_AT_name("CPUSEL8_BITS")
    3072                      .dwattr $C$DW$T$64, DW_AT_byte_size(0x02)
    3073              $C$DW$279       .dwtag  DW_TAG_member
    3074                      .dwattr $C$DW$279, DW_AT_type(*$C$DW$T$19)
    3075                      .dwattr $C$DW$279, DW_AT_name("CAN_A")
    3076                      .dwattr $C$DW$279, DW_AT_TI_symbol_name("_CAN_A")
    3077                      .dwattr $C$DW$279, DW_AT_bit_offset(0x0f)
    3078                      .dwattr $C$DW$279, DW_AT_bit_size(0x01)
    3079                      .dwattr $C$DW$279, DW_AT_data_member_location[DW_OP_plus_uconst 0x0]
    3080                      .dwattr $C$DW$279, DW_AT_accessibility(DW_ACCESS_public)
    3081              
    3082              $C$DW$280       .dwtag  DW_TAG_member
    3083                      .dwattr $C$DW$280, DW_AT_type(*$C$DW$T$19)
    3084                      .dwattr $C$DW$280, DW_AT_name("CAN_B")
    3085                      .dwattr $C$DW$280, DW_AT_TI_symbol_name("_CAN_B")
    3086                      .dwattr $C$DW$280, DW_AT_bit_offset(0x0e)
    3087                      .dwattr $C$DW$280, DW_AT_bit_size(0x01)
    3088                      .dwattr $C$DW$280, DW_AT_data_member_location[DW_OP_plus_uconst 0x0]
    3089                      .dwattr $C$DW$280, DW_AT_accessibility(DW_ACCESS_public)
    3090              
    3091              $C$DW$281       .dwtag  DW_TAG_member
    3092                      .dwattr $C$DW$281, DW_AT_type(*$C$DW$T$19)
    3093                      .dwattr $C$DW$281, DW_AT_name("rsvd1")
    3094                      .dwattr $C$DW$281, DW_AT_TI_symbol_name("_rsvd1")
    3095                      .dwattr $C$DW$281, DW_AT_bit_offset(0x0d)
    3096                      .dwattr $C$DW$281, DW_AT_bit_size(0x01)
    3097                      .dwattr $C$DW$281, DW_AT_data_member_location[DW_OP_plus_uconst 0x0]
    3098                      .dwattr $C$DW$281, DW_AT_accessibility(DW_ACCESS_public)
    3099              
    3100              $C$DW$282       .dwtag  DW_TAG_member
    3101                      .dwattr $C$DW$282, DW_AT_type(*$C$DW$T$19)
    3102                      .dwattr $C$DW$282, DW_AT_name("rsvd2")
    3103                      .dwattr $C$DW$282, DW_AT_TI_symbol_name("_rsvd2")
    3104                      .dwattr $C$DW$282, DW_AT_bit_offset(0x0c)
    3105                      .dwattr $C$DW$282, DW_AT_bit_size(0x01)
    3106                      .dwattr $C$DW$282, DW_AT_data_member_location[DW_OP_plus_uconst 0x0]
    3107                      .dwattr $C$DW$282, DW_AT_accessibility(DW_ACCESS_public)
    3108              
    3109              $C$DW$283       .dwtag  DW_TAG_member
    3110                      .dwattr $C$DW$283, DW_AT_type(*$C$DW$T$19)
    3111                      .dwattr $C$DW$283, DW_AT_name("rsvd3")
TMS320C2000 Assembler PC v18.1.2 Fri Dec 14 17:55:30 2018

Tools Copyright (c) 1996-2017 Texas Instruments Incorporated
F2837xD_Ipc_Driver_Util.asm                                          PAGE   59

    3112                      .dwattr $C$DW$283, DW_AT_TI_symbol_name("_rsvd3")
    3113                      .dwattr $C$DW$283, DW_AT_bit_offset(0x00)
    3114                      .dwattr $C$DW$283, DW_AT_bit_size(0x0c)
    3115                      .dwattr $C$DW$283, DW_AT_data_member_location[DW_OP_plus_uconst 0x0]
    3116                      .dwattr $C$DW$283, DW_AT_accessibility(DW_ACCESS_public)
    3117              
    3118              $C$DW$284       .dwtag  DW_TAG_member
    3119                      .dwattr $C$DW$284, DW_AT_type(*$C$DW$T$19)
    3120                      .dwattr $C$DW$284, DW_AT_name("rsvd4")
    3121                      .dwattr $C$DW$284, DW_AT_TI_symbol_name("_rsvd4")
    3122                      .dwattr $C$DW$284, DW_AT_bit_offset(0x00)
    3123                      .dwattr $C$DW$284, DW_AT_bit_size(0x10)
    3124                      .dwattr $C$DW$284, DW_AT_data_member_location[DW_OP_plus_uconst 0x1]
    3125                      .dwattr $C$DW$284, DW_AT_accessibility(DW_ACCESS_public)
    3126              
    3127                      .dwendtag $C$DW$T$64
    3128              
    3129              
    3130              $C$DW$T$65      .dwtag  DW_TAG_union_type
    3131                      .dwattr $C$DW$T$65, DW_AT_name("CPUSEL8_REG")
    3132                      .dwattr $C$DW$T$65, DW_AT_byte_size(0x02)
    3133              $C$DW$285       .dwtag  DW_TAG_member
    3134                      .dwattr $C$DW$285, DW_AT_type(*$C$DW$T$21)
    3135                      .dwattr $C$DW$285, DW_AT_name("all")
    3136                      .dwattr $C$DW$285, DW_AT_TI_symbol_name("_all")
    3137                      .dwattr $C$DW$285, DW_AT_data_member_location[DW_OP_plus_uconst 0x0]
    3138                      .dwattr $C$DW$285, DW_AT_accessibility(DW_ACCESS_public)
    3139              
    3140              $C$DW$286       .dwtag  DW_TAG_member
    3141                      .dwattr $C$DW$286, DW_AT_type(*$C$DW$T$64)
    3142                      .dwattr $C$DW$286, DW_AT_name("bit")
    3143                      .dwattr $C$DW$286, DW_AT_TI_symbol_name("_bit")
    3144                      .dwattr $C$DW$286, DW_AT_data_member_location[DW_OP_plus_uconst 0x0]
    3145                      .dwattr $C$DW$286, DW_AT_accessibility(DW_ACCESS_public)
    3146              
    3147                      .dwendtag $C$DW$T$65
    3148              
    3149              
    3150              $C$DW$T$66      .dwtag  DW_TAG_structure_type
    3151                      .dwattr $C$DW$T$66, DW_AT_name("CPUSEL9_BITS")
    3152                      .dwattr $C$DW$T$66, DW_AT_byte_size(0x02)
    3153              $C$DW$287       .dwtag  DW_TAG_member
    3154                      .dwattr $C$DW$287, DW_AT_type(*$C$DW$T$19)
    3155                      .dwattr $C$DW$287, DW_AT_name("McBSP_A")
    3156                      .dwattr $C$DW$287, DW_AT_TI_symbol_name("_McBSP_A")
    3157                      .dwattr $C$DW$287, DW_AT_bit_offset(0x0f)
    3158                      .dwattr $C$DW$287, DW_AT_bit_size(0x01)
    3159                      .dwattr $C$DW$287, DW_AT_data_member_location[DW_OP_plus_uconst 0x0]
    3160                      .dwattr $C$DW$287, DW_AT_accessibility(DW_ACCESS_public)
    3161              
    3162              $C$DW$288       .dwtag  DW_TAG_member
    3163                      .dwattr $C$DW$288, DW_AT_type(*$C$DW$T$19)
    3164                      .dwattr $C$DW$288, DW_AT_name("McBSP_B")
    3165                      .dwattr $C$DW$288, DW_AT_TI_symbol_name("_McBSP_B")
    3166                      .dwattr $C$DW$288, DW_AT_bit_offset(0x0e)
TMS320C2000 Assembler PC v18.1.2 Fri Dec 14 17:55:30 2018

Tools Copyright (c) 1996-2017 Texas Instruments Incorporated
F2837xD_Ipc_Driver_Util.asm                                          PAGE   60

    3167                      .dwattr $C$DW$288, DW_AT_bit_size(0x01)
    3168                      .dwattr $C$DW$288, DW_AT_data_member_location[DW_OP_plus_uconst 0x0]
    3169                      .dwattr $C$DW$288, DW_AT_accessibility(DW_ACCESS_public)
    3170              
    3171              $C$DW$289       .dwtag  DW_TAG_member
    3172                      .dwattr $C$DW$289, DW_AT_type(*$C$DW$T$19)
    3173                      .dwattr $C$DW$289, DW_AT_name("rsvd1")
    3174                      .dwattr $C$DW$289, DW_AT_TI_symbol_name("_rsvd1")
    3175                      .dwattr $C$DW$289, DW_AT_bit_offset(0x00)
    3176                      .dwattr $C$DW$289, DW_AT_bit_size(0x0e)
    3177                      .dwattr $C$DW$289, DW_AT_data_member_location[DW_OP_plus_uconst 0x0]
    3178                      .dwattr $C$DW$289, DW_AT_accessibility(DW_ACCESS_public)
    3179              
    3180              $C$DW$290       .dwtag  DW_TAG_member
    3181                      .dwattr $C$DW$290, DW_AT_type(*$C$DW$T$19)
    3182                      .dwattr $C$DW$290, DW_AT_name("rsvd2")
    3183                      .dwattr $C$DW$290, DW_AT_TI_symbol_name("_rsvd2")
    3184                      .dwattr $C$DW$290, DW_AT_bit_offset(0x00)
    3185                      .dwattr $C$DW$290, DW_AT_bit_size(0x10)
    3186                      .dwattr $C$DW$290, DW_AT_data_member_location[DW_OP_plus_uconst 0x1]
    3187                      .dwattr $C$DW$290, DW_AT_accessibility(DW_ACCESS_public)
    3188              
    3189                      .dwendtag $C$DW$T$66
    3190              
    3191              
    3192              $C$DW$T$67      .dwtag  DW_TAG_union_type
    3193                      .dwattr $C$DW$T$67, DW_AT_name("CPUSEL9_REG")
    3194                      .dwattr $C$DW$T$67, DW_AT_byte_size(0x02)
    3195              $C$DW$291       .dwtag  DW_TAG_member
    3196                      .dwattr $C$DW$291, DW_AT_type(*$C$DW$T$21)
    3197                      .dwattr $C$DW$291, DW_AT_name("all")
    3198                      .dwattr $C$DW$291, DW_AT_TI_symbol_name("_all")
    3199                      .dwattr $C$DW$291, DW_AT_data_member_location[DW_OP_plus_uconst 0x0]
    3200                      .dwattr $C$DW$291, DW_AT_accessibility(DW_ACCESS_public)
    3201              
    3202              $C$DW$292       .dwtag  DW_TAG_member
    3203                      .dwattr $C$DW$292, DW_AT_type(*$C$DW$T$66)
    3204                      .dwattr $C$DW$292, DW_AT_name("bit")
    3205                      .dwattr $C$DW$292, DW_AT_TI_symbol_name("_bit")
    3206                      .dwattr $C$DW$292, DW_AT_data_member_location[DW_OP_plus_uconst 0x0]
    3207                      .dwattr $C$DW$292, DW_AT_accessibility(DW_ACCESS_public)
    3208              
    3209                      .dwendtag $C$DW$T$67
    3210              
    3211              
    3212              $C$DW$T$68      .dwtag  DW_TAG_structure_type
    3213                      .dwattr $C$DW$T$68, DW_AT_name("CPUSYSLOCK1_BITS")
    3214                      .dwattr $C$DW$T$68, DW_AT_byte_size(0x02)
    3215              $C$DW$293       .dwtag  DW_TAG_member
    3216                      .dwattr $C$DW$293, DW_AT_type(*$C$DW$T$19)
    3217                      .dwattr $C$DW$293, DW_AT_name("HIBBOOTMODE")
    3218                      .dwattr $C$DW$293, DW_AT_TI_symbol_name("_HIBBOOTMODE")
    3219                      .dwattr $C$DW$293, DW_AT_bit_offset(0x0f)
    3220                      .dwattr $C$DW$293, DW_AT_bit_size(0x01)
    3221                      .dwattr $C$DW$293, DW_AT_data_member_location[DW_OP_plus_uconst 0x0]
TMS320C2000 Assembler PC v18.1.2 Fri Dec 14 17:55:30 2018

Tools Copyright (c) 1996-2017 Texas Instruments Incorporated
F2837xD_Ipc_Driver_Util.asm                                          PAGE   61

    3222                      .dwattr $C$DW$293, DW_AT_accessibility(DW_ACCESS_public)
    3223              
    3224              $C$DW$294       .dwtag  DW_TAG_member
    3225                      .dwattr $C$DW$294, DW_AT_type(*$C$DW$T$19)
    3226                      .dwattr $C$DW$294, DW_AT_name("IORESTOREADDR")
    3227                      .dwattr $C$DW$294, DW_AT_TI_symbol_name("_IORESTOREADDR")
    3228                      .dwattr $C$DW$294, DW_AT_bit_offset(0x0e)
    3229                      .dwattr $C$DW$294, DW_AT_bit_size(0x01)
    3230                      .dwattr $C$DW$294, DW_AT_data_member_location[DW_OP_plus_uconst 0x0]
    3231                      .dwattr $C$DW$294, DW_AT_accessibility(DW_ACCESS_public)
    3232              
    3233              $C$DW$295       .dwtag  DW_TAG_member
    3234                      .dwattr $C$DW$295, DW_AT_type(*$C$DW$T$19)
    3235                      .dwattr $C$DW$295, DW_AT_name("PIEVERRADDR")
    3236                      .dwattr $C$DW$295, DW_AT_TI_symbol_name("_PIEVERRADDR")
    3237                      .dwattr $C$DW$295, DW_AT_bit_offset(0x0d)
    3238                      .dwattr $C$DW$295, DW_AT_bit_size(0x01)
    3239                      .dwattr $C$DW$295, DW_AT_data_member_location[DW_OP_plus_uconst 0x0]
    3240                      .dwattr $C$DW$295, DW_AT_accessibility(DW_ACCESS_public)
    3241              
    3242              $C$DW$296       .dwtag  DW_TAG_member
    3243                      .dwattr $C$DW$296, DW_AT_type(*$C$DW$T$19)
    3244                      .dwattr $C$DW$296, DW_AT_name("PCLKCR0")
    3245                      .dwattr $C$DW$296, DW_AT_TI_symbol_name("_PCLKCR0")
    3246                      .dwattr $C$DW$296, DW_AT_bit_offset(0x0c)
    3247                      .dwattr $C$DW$296, DW_AT_bit_size(0x01)
    3248                      .dwattr $C$DW$296, DW_AT_data_member_location[DW_OP_plus_uconst 0x0]
    3249                      .dwattr $C$DW$296, DW_AT_accessibility(DW_ACCESS_public)
    3250              
    3251              $C$DW$297       .dwtag  DW_TAG_member
    3252                      .dwattr $C$DW$297, DW_AT_type(*$C$DW$T$19)
    3253                      .dwattr $C$DW$297, DW_AT_name("PCLKCR1")
    3254                      .dwattr $C$DW$297, DW_AT_TI_symbol_name("_PCLKCR1")
    3255                      .dwattr $C$DW$297, DW_AT_bit_offset(0x0b)
    3256                      .dwattr $C$DW$297, DW_AT_bit_size(0x01)
    3257                      .dwattr $C$DW$297, DW_AT_data_member_location[DW_OP_plus_uconst 0x0]
    3258                      .dwattr $C$DW$297, DW_AT_accessibility(DW_ACCESS_public)
    3259              
    3260              $C$DW$298       .dwtag  DW_TAG_member
    3261                      .dwattr $C$DW$298, DW_AT_type(*$C$DW$T$19)
    3262                      .dwattr $C$DW$298, DW_AT_name("PCLKCR2")
    3263                      .dwattr $C$DW$298, DW_AT_TI_symbol_name("_PCLKCR2")
    3264                      .dwattr $C$DW$298, DW_AT_bit_offset(0x0a)
    3265                      .dwattr $C$DW$298, DW_AT_bit_size(0x01)
    3266                      .dwattr $C$DW$298, DW_AT_data_member_location[DW_OP_plus_uconst 0x0]
    3267                      .dwattr $C$DW$298, DW_AT_accessibility(DW_ACCESS_public)
    3268              
    3269              $C$DW$299       .dwtag  DW_TAG_member
    3270                      .dwattr $C$DW$299, DW_AT_type(*$C$DW$T$19)
    3271                      .dwattr $C$DW$299, DW_AT_name("PCLKCR3")
    3272                      .dwattr $C$DW$299, DW_AT_TI_symbol_name("_PCLKCR3")
    3273                      .dwattr $C$DW$299, DW_AT_bit_offset(0x09)
    3274                      .dwattr $C$DW$299, DW_AT_bit_size(0x01)
    3275                      .dwattr $C$DW$299, DW_AT_data_member_location[DW_OP_plus_uconst 0x0]
    3276                      .dwattr $C$DW$299, DW_AT_accessibility(DW_ACCESS_public)
TMS320C2000 Assembler PC v18.1.2 Fri Dec 14 17:55:30 2018

Tools Copyright (c) 1996-2017 Texas Instruments Incorporated
F2837xD_Ipc_Driver_Util.asm                                          PAGE   62

    3277              
    3278              $C$DW$300       .dwtag  DW_TAG_member
    3279                      .dwattr $C$DW$300, DW_AT_type(*$C$DW$T$19)
    3280                      .dwattr $C$DW$300, DW_AT_name("PCLKCR4")
    3281                      .dwattr $C$DW$300, DW_AT_TI_symbol_name("_PCLKCR4")
    3282                      .dwattr $C$DW$300, DW_AT_bit_offset(0x08)
    3283                      .dwattr $C$DW$300, DW_AT_bit_size(0x01)
    3284                      .dwattr $C$DW$300, DW_AT_data_member_location[DW_OP_plus_uconst 0x0]
    3285                      .dwattr $C$DW$300, DW_AT_accessibility(DW_ACCESS_public)
    3286              
    3287              $C$DW$301       .dwtag  DW_TAG_member
    3288                      .dwattr $C$DW$301, DW_AT_type(*$C$DW$T$19)
    3289                      .dwattr $C$DW$301, DW_AT_name("PCLKCR5")
    3290                      .dwattr $C$DW$301, DW_AT_TI_symbol_name("_PCLKCR5")
    3291                      .dwattr $C$DW$301, DW_AT_bit_offset(0x07)
    3292                      .dwattr $C$DW$301, DW_AT_bit_size(0x01)
    3293                      .dwattr $C$DW$301, DW_AT_data_member_location[DW_OP_plus_uconst 0x0]
    3294                      .dwattr $C$DW$301, DW_AT_accessibility(DW_ACCESS_public)
    3295              
    3296              $C$DW$302       .dwtag  DW_TAG_member
    3297                      .dwattr $C$DW$302, DW_AT_type(*$C$DW$T$19)
    3298                      .dwattr $C$DW$302, DW_AT_name("PCLKCR6")
    3299                      .dwattr $C$DW$302, DW_AT_TI_symbol_name("_PCLKCR6")
    3300                      .dwattr $C$DW$302, DW_AT_bit_offset(0x06)
    3301                      .dwattr $C$DW$302, DW_AT_bit_size(0x01)
    3302                      .dwattr $C$DW$302, DW_AT_data_member_location[DW_OP_plus_uconst 0x0]
    3303                      .dwattr $C$DW$302, DW_AT_accessibility(DW_ACCESS_public)
    3304              
    3305              $C$DW$303       .dwtag  DW_TAG_member
    3306                      .dwattr $C$DW$303, DW_AT_type(*$C$DW$T$19)
    3307                      .dwattr $C$DW$303, DW_AT_name("PCLKCR7")
    3308                      .dwattr $C$DW$303, DW_AT_TI_symbol_name("_PCLKCR7")
    3309                      .dwattr $C$DW$303, DW_AT_bit_offset(0x05)
    3310                      .dwattr $C$DW$303, DW_AT_bit_size(0x01)
    3311                      .dwattr $C$DW$303, DW_AT_data_member_location[DW_OP_plus_uconst 0x0]
    3312                      .dwattr $C$DW$303, DW_AT_accessibility(DW_ACCESS_public)
    3313              
    3314              $C$DW$304       .dwtag  DW_TAG_member
    3315                      .dwattr $C$DW$304, DW_AT_type(*$C$DW$T$19)
    3316                      .dwattr $C$DW$304, DW_AT_name("PCLKCR8")
    3317                      .dwattr $C$DW$304, DW_AT_TI_symbol_name("_PCLKCR8")
    3318                      .dwattr $C$DW$304, DW_AT_bit_offset(0x04)
    3319                      .dwattr $C$DW$304, DW_AT_bit_size(0x01)
    3320                      .dwattr $C$DW$304, DW_AT_data_member_location[DW_OP_plus_uconst 0x0]
    3321                      .dwattr $C$DW$304, DW_AT_accessibility(DW_ACCESS_public)
    3322              
    3323              $C$DW$305       .dwtag  DW_TAG_member
    3324                      .dwattr $C$DW$305, DW_AT_type(*$C$DW$T$19)
    3325                      .dwattr $C$DW$305, DW_AT_name("PCLKCR9")
    3326                      .dwattr $C$DW$305, DW_AT_TI_symbol_name("_PCLKCR9")
    3327                      .dwattr $C$DW$305, DW_AT_bit_offset(0x03)
    3328                      .dwattr $C$DW$305, DW_AT_bit_size(0x01)
    3329                      .dwattr $C$DW$305, DW_AT_data_member_location[DW_OP_plus_uconst 0x0]
    3330                      .dwattr $C$DW$305, DW_AT_accessibility(DW_ACCESS_public)
    3331              
TMS320C2000 Assembler PC v18.1.2 Fri Dec 14 17:55:30 2018

Tools Copyright (c) 1996-2017 Texas Instruments Incorporated
F2837xD_Ipc_Driver_Util.asm                                          PAGE   63

    3332              $C$DW$306       .dwtag  DW_TAG_member
    3333                      .dwattr $C$DW$306, DW_AT_type(*$C$DW$T$19)
    3334                      .dwattr $C$DW$306, DW_AT_name("PCLKCR10")
    3335                      .dwattr $C$DW$306, DW_AT_TI_symbol_name("_PCLKCR10")
    3336                      .dwattr $C$DW$306, DW_AT_bit_offset(0x02)
    3337                      .dwattr $C$DW$306, DW_AT_bit_size(0x01)
    3338                      .dwattr $C$DW$306, DW_AT_data_member_location[DW_OP_plus_uconst 0x0]
    3339                      .dwattr $C$DW$306, DW_AT_accessibility(DW_ACCESS_public)
    3340              
    3341              $C$DW$307       .dwtag  DW_TAG_member
    3342                      .dwattr $C$DW$307, DW_AT_type(*$C$DW$T$19)
    3343                      .dwattr $C$DW$307, DW_AT_name("PCLKCR11")
    3344                      .dwattr $C$DW$307, DW_AT_TI_symbol_name("_PCLKCR11")
    3345                      .dwattr $C$DW$307, DW_AT_bit_offset(0x01)
    3346                      .dwattr $C$DW$307, DW_AT_bit_size(0x01)
    3347                      .dwattr $C$DW$307, DW_AT_data_member_location[DW_OP_plus_uconst 0x0]
    3348                      .dwattr $C$DW$307, DW_AT_accessibility(DW_ACCESS_public)
    3349              
    3350              $C$DW$308       .dwtag  DW_TAG_member
    3351                      .dwattr $C$DW$308, DW_AT_type(*$C$DW$T$19)
    3352                      .dwattr $C$DW$308, DW_AT_name("PCLKCR12")
    3353                      .dwattr $C$DW$308, DW_AT_TI_symbol_name("_PCLKCR12")
    3354                      .dwattr $C$DW$308, DW_AT_bit_offset(0x00)
    3355                      .dwattr $C$DW$308, DW_AT_bit_size(0x01)
    3356                      .dwattr $C$DW$308, DW_AT_data_member_location[DW_OP_plus_uconst 0x0]
    3357                      .dwattr $C$DW$308, DW_AT_accessibility(DW_ACCESS_public)
    3358              
    3359              $C$DW$309       .dwtag  DW_TAG_member
    3360                      .dwattr $C$DW$309, DW_AT_type(*$C$DW$T$19)
    3361                      .dwattr $C$DW$309, DW_AT_name("PCLKCR13")
    3362                      .dwattr $C$DW$309, DW_AT_TI_symbol_name("_PCLKCR13")
    3363                      .dwattr $C$DW$309, DW_AT_bit_offset(0x0f)
    3364                      .dwattr $C$DW$309, DW_AT_bit_size(0x01)
    3365                      .dwattr $C$DW$309, DW_AT_data_member_location[DW_OP_plus_uconst 0x1]
    3366                      .dwattr $C$DW$309, DW_AT_accessibility(DW_ACCESS_public)
    3367              
    3368              $C$DW$310       .dwtag  DW_TAG_member
    3369                      .dwattr $C$DW$310, DW_AT_type(*$C$DW$T$19)
    3370                      .dwattr $C$DW$310, DW_AT_name("PCLKCR14")
    3371                      .dwattr $C$DW$310, DW_AT_TI_symbol_name("_PCLKCR14")
    3372                      .dwattr $C$DW$310, DW_AT_bit_offset(0x0e)
    3373                      .dwattr $C$DW$310, DW_AT_bit_size(0x01)
    3374                      .dwattr $C$DW$310, DW_AT_data_member_location[DW_OP_plus_uconst 0x1]
    3375                      .dwattr $C$DW$310, DW_AT_accessibility(DW_ACCESS_public)
    3376              
    3377              $C$DW$311       .dwtag  DW_TAG_member
    3378                      .dwattr $C$DW$311, DW_AT_type(*$C$DW$T$19)
    3379                      .dwattr $C$DW$311, DW_AT_name("PCLKCR15")
    3380                      .dwattr $C$DW$311, DW_AT_TI_symbol_name("_PCLKCR15")
    3381                      .dwattr $C$DW$311, DW_AT_bit_offset(0x0d)
    3382                      .dwattr $C$DW$311, DW_AT_bit_size(0x01)
    3383                      .dwattr $C$DW$311, DW_AT_data_member_location[DW_OP_plus_uconst 0x1]
