TMS320C2000 Assembler PC v18.1.2 Fri Dec 14 17:55:34 2018

Tools Copyright (c) 1996-2017 Texas Instruments Incorporated
F2837xD_Spi.asm                                                      PAGE    1

       1              ;***************************************************************
       2              ;* TMS320C2000 C/C++ Codegen                    PC v18.1.2.LTS *
       3              ;* Date/Time created: Fri Dec 14 17:55:34 2018                 *
       4              ;***************************************************************
       5                      .compiler_opts --abi=coffabi --cla_support=cla1 --diag_wrap=off --float_support=fpu32 --hll_source=on
       6                      .asg    XAR2, FP
       7              
       8              $C$DW$CU        .dwtag  DW_TAG_compile_unit
       9                      .dwattr $C$DW$CU, DW_AT_name("../F2837xD/F2837xD_Spi.c")
      10                      .dwattr $C$DW$CU, DW_AT_producer("TI TMS320C2000 C/C++ Codegen PC v18.1.2.LTS Copyright (c) 1996-2017
      11                      .dwattr $C$DW$CU, DW_AT_TI_version(0x01)
      12                      .dwattr $C$DW$CU, DW_AT_comp_dir("D:\WorkSpace\CCS_WorkSpace\CanTest\Debug")
      13              $C$DW$1 .dwtag  DW_TAG_variable
      14                      .dwattr $C$DW$1, DW_AT_name("SpiaRegs")
      15                      .dwattr $C$DW$1, DW_AT_TI_symbol_name("_SpiaRegs")
      16                      .dwattr $C$DW$1, DW_AT_type(*$C$DW$T$256)
      17                      .dwattr $C$DW$1, DW_AT_declaration
      18                      .dwattr $C$DW$1, DW_AT_external
      19              
      20              $C$DW$2 .dwtag  DW_TAG_variable
      21                      .dwattr $C$DW$2, DW_AT_name("GpioCtrlRegs")
      22                      .dwattr $C$DW$2, DW_AT_TI_symbol_name("_GpioCtrlRegs")
      23                      .dwattr $C$DW$2, DW_AT_type(*$C$DW$T$247)
      24                      .dwattr $C$DW$2, DW_AT_declaration
      25                      .dwattr $C$DW$2, DW_AT_external
      26              
      27              ;       D:\ProgramFiles\ti\ccsv8\tools\compiler\ti-cgt-c2000_18.1.2.LTS\bin\ac2000.exe -@C:\\Users\\qd\\AppDa
      28 00000000               .sect   ".text"
      29                      .clink
      30                      .global _InitSpi
      31              
      32              $C$DW$3 .dwtag  DW_TAG_subprogram
      33                      .dwattr $C$DW$3, DW_AT_name("InitSpi")
      34                      .dwattr $C$DW$3, DW_AT_low_pc(_InitSpi)
      35                      .dwattr $C$DW$3, DW_AT_high_pc(0x00)
      36                      .dwattr $C$DW$3, DW_AT_TI_symbol_name("_InitSpi")
      37                      .dwattr $C$DW$3, DW_AT_external
      38                      .dwattr $C$DW$3, DW_AT_TI_begin_file("../F2837xD/F2837xD_Spi.c")
      39                      .dwattr $C$DW$3, DW_AT_TI_begin_line(0x29)
      40                      .dwattr $C$DW$3, DW_AT_TI_begin_column(0x06)
      41                      .dwattr $C$DW$3, DW_AT_TI_max_frame_size(-2)
      42                      .dwpsn  file "../F2837xD/F2837xD_Spi.c",line 42,column 1,is_stmt,address _InitSpi,isa 0
      43              
      44                      .dwfde $C$DW$CIE, _InitSpi
      45              
      46              ;***************************************************************
      47              ;* FNAME: _InitSpi                      FR SIZE:   0           *
      48              ;*                                                             *
      49              ;* FUNCTION ENVIRONMENT                                        *
      50              ;*                                                             *
      51              ;* FUNCTION PROPERTIES                                         *
      52              ;*                            0 Parameter,  0 Auto,  0 SOE     *
      53              ;***************************************************************
      54              
      55 00000000       _InitSpi:
TMS320C2000 Assembler PC v18.1.2 Fri Dec 14 17:55:34 2018

Tools Copyright (c) 1996-2017 Texas Instruments Incorporated
F2837xD_Spi.asm                                                      PAGE    2

      56                      .dwcfi  cfa_offset, -2
      57                      .dwcfi  save_reg_to_mem, 26, 0
      58                      .dwpsn  file "../F2837xD/F2837xD_Spi.c",line 49,column 5,is_stmt,isa 0
      59 00000000 761F!         MOVW      DP,#_SpiaRegs         ; [CPU_ARAU] 
         00000001 0000 
      60 00000002 1800!         AND       @_SpiaRegs,#0xff7f    ; [CPU_ALU] |49| 
         00000003 FF7F 
      61                      .dwpsn  file "../F2837xD/F2837xD_Spi.c",line 50,column 5,is_stmt,isa 0
      62 00000004 1800!         AND       @_SpiaRegs,#0xffbf    ; [CPU_ALU] |50| 
         00000005 FFBF 
      63                      .dwpsn  file "../F2837xD/F2837xD_Spi.c",line 51,column 5,is_stmt,isa 0
      64 00000006 1A00!         OR        @_SpiaRegs,#0x000f    ; [CPU_ALU] |51| 
         00000007 000F 
      65                      .dwpsn  file "../F2837xD/F2837xD_Spi.c",line 52,column 5,is_stmt,isa 0
      66 00000008 1A00!         OR        @_SpiaRegs,#0x0010    ; [CPU_ALU] |52| 
         00000009 0010 
      67                      .dwpsn  file "../F2837xD/F2837xD_Spi.c",line 58,column 5,is_stmt,isa 0
      68 0000000a 1A01!         OR        @_SpiaRegs+1,#0x0004  ; [CPU_ALU] |58| 
         0000000b 0004 
      69                      .dwpsn  file "../F2837xD/F2837xD_Spi.c",line 59,column 5,is_stmt,isa 0
      70 0000000c 1A01!         OR        @_SpiaRegs+1,#0x0002  ; [CPU_ALU] |59| 
         0000000d 0002 
      71                      .dwpsn  file "../F2837xD/F2837xD_Spi.c",line 60,column 5,is_stmt,isa 0
      72 0000000e 1801!         AND       @_SpiaRegs+1,#0xfff7  ; [CPU_ALU] |60| 
         0000000f FFF7 
      73                      .dwpsn  file "../F2837xD/F2837xD_Spi.c",line 61,column 5,is_stmt,isa 0
      74 00000010 1801!         AND       @_SpiaRegs+1,#0xfffe  ; [CPU_ALU] |61| 
         00000011 FFFE 
      75                      .dwpsn  file "../F2837xD/F2837xD_Spi.c",line 64,column 5,is_stmt,isa 0
      76 00000012 CC04!         AND       AL,@_SpiaRegs+4,#0xff80 ; [CPU_ALU] |64| 
         00000013 FF80 
      77 00000014 5063          ORB       AL,#0x63              ; [CPU_ALU] |64| 
      78 00000015 9604!         MOV       @_SpiaRegs+4,AL       ; [CPU_ALU] |64| 
      79                      .dwpsn  file "../F2837xD/F2837xD_Spi.c",line 68,column 5,is_stmt,isa 0
      80 00000016 1A0F!         OR        @_SpiaRegs+15,#0x0010 ; [CPU_ALU] |68| 
         00000017 0010 
      81                      .dwpsn  file "../F2837xD/F2837xD_Spi.c",line 71,column 5,is_stmt,isa 0
      82 00000018 1A00!         OR        @_SpiaRegs,#0x0080    ; [CPU_ALU] |71| 
         00000019 0080 
      83                      .dwpsn  file "../F2837xD/F2837xD_Spi.c",line 72,column 1,is_stmt,isa 0
      84              $C$DW$4 .dwtag  DW_TAG_TI_branch
      85                      .dwattr $C$DW$4, DW_AT_low_pc(0x00)
      86                      .dwattr $C$DW$4, DW_AT_TI_return
      87              
      88 0000001a 0006          LRETR     ; [CPU_ALU] 
      89                      ; return occurs ; [] 
      90                      .dwattr $C$DW$3, DW_AT_TI_end_file("../F2837xD/F2837xD_Spi.c")
      91                      .dwattr $C$DW$3, DW_AT_TI_end_line(0x48)
      92                      .dwattr $C$DW$3, DW_AT_TI_end_column(0x01)
      93                      .dwendentry
      94                      .dwendtag $C$DW$3
      95              
      96 0000001b               .sect   ".text"
      97                      .clink
      98                      .global _InitSpiGpio
TMS320C2000 Assembler PC v18.1.2 Fri Dec 14 17:55:34 2018

Tools Copyright (c) 1996-2017 Texas Instruments Incorporated
F2837xD_Spi.asm                                                      PAGE    3

      99              
     100              $C$DW$5 .dwtag  DW_TAG_subprogram
     101                      .dwattr $C$DW$5, DW_AT_name("InitSpiGpio")
     102                      .dwattr $C$DW$5, DW_AT_low_pc(_InitSpiGpio)
     103                      .dwattr $C$DW$5, DW_AT_high_pc(0x00)
     104                      .dwattr $C$DW$5, DW_AT_TI_symbol_name("_InitSpiGpio")
     105                      .dwattr $C$DW$5, DW_AT_external
     106                      .dwattr $C$DW$5, DW_AT_TI_begin_file("../F2837xD/F2837xD_Spi.c")
     107                      .dwattr $C$DW$5, DW_AT_TI_begin_line(0x58)
     108                      .dwattr $C$DW$5, DW_AT_TI_begin_column(0x06)
     109                      .dwattr $C$DW$5, DW_AT_TI_max_frame_size(-2)
     110                      .dwpsn  file "../F2837xD/F2837xD_Spi.c",line 89,column 1,is_stmt,address _InitSpiGpio,isa 0
     111              
     112                      .dwfde $C$DW$CIE, _InitSpiGpio
     113              
     114              ;***************************************************************
     115              ;* FNAME: _InitSpiGpio                  FR SIZE:   0           *
     116              ;*                                                             *
     117              ;* FUNCTION ENVIRONMENT                                        *
     118              ;*                                                             *
     119              ;* FUNCTION PROPERTIES                                         *
     120              ;*                            0 Parameter,  0 Auto,  0 SOE     *
     121              ;***************************************************************
     122              
     123 0000001b       _InitSpiGpio:
     124                      .dwcfi  cfa_offset, -2
     125                      .dwcfi  save_reg_to_mem, 26, 0
     126                      .dwpsn  file "../F2837xD/F2837xD_Spi.c",line 90,column 4,is_stmt,isa 0
     127              $C$DW$6 .dwtag  DW_TAG_TI_branch
     128                      .dwattr $C$DW$6, DW_AT_low_pc(0x00)
     129                      .dwattr $C$DW$6, DW_AT_name("_InitSpiaGpio")
     130                      .dwattr $C$DW$6, DW_AT_TI_call
     131              
     132 0000001b 7640'         LCR       #_InitSpiaGpio        ; [CPU_ALU] |90| 
         0000001c 001E 
     133                      ; call occurs [#_InitSpiaGpio] ; [] |90| 
     134                      .dwpsn  file "../F2837xD/F2837xD_Spi.c",line 91,column 1,is_stmt,isa 0
     135              $C$DW$7 .dwtag  DW_TAG_TI_branch
     136                      .dwattr $C$DW$7, DW_AT_low_pc(0x00)
     137                      .dwattr $C$DW$7, DW_AT_TI_return
     138              
     139 0000001d 0006          LRETR     ; [CPU_ALU] 
     140                      ; return occurs ; [] 
     141                      .dwattr $C$DW$5, DW_AT_TI_end_file("../F2837xD/F2837xD_Spi.c")
     142                      .dwattr $C$DW$5, DW_AT_TI_end_line(0x5b)
     143                      .dwattr $C$DW$5, DW_AT_TI_end_column(0x01)
     144                      .dwendentry
     145                      .dwendtag $C$DW$5
     146              
     147 0000001e               .sect   ".text"
     148                      .clink
     149                      .global _InitSpiaGpio
     150              
     151              $C$DW$8 .dwtag  DW_TAG_subprogram
     152                      .dwattr $C$DW$8, DW_AT_name("InitSpiaGpio")
TMS320C2000 Assembler PC v18.1.2 Fri Dec 14 17:55:34 2018

Tools Copyright (c) 1996-2017 Texas Instruments Incorporated
F2837xD_Spi.asm                                                      PAGE    4

     153                      .dwattr $C$DW$8, DW_AT_low_pc(_InitSpiaGpio)
     154                      .dwattr $C$DW$8, DW_AT_high_pc(0x00)
     155                      .dwattr $C$DW$8, DW_AT_TI_symbol_name("_InitSpiaGpio")
     156                      .dwattr $C$DW$8, DW_AT_external
     157                      .dwattr $C$DW$8, DW_AT_TI_begin_file("../F2837xD/F2837xD_Spi.c")
     158                      .dwattr $C$DW$8, DW_AT_TI_begin_line(0x60)
     159                      .dwattr $C$DW$8, DW_AT_TI_begin_column(0x06)
     160                      .dwattr $C$DW$8, DW_AT_TI_max_frame_size(-2)
     161                      .dwpsn  file "../F2837xD/F2837xD_Spi.c",line 97,column 1,is_stmt,address _InitSpiaGpio,isa 0
     162              
     163                      .dwfde $C$DW$CIE, _InitSpiaGpio
     164              
     165              ;***************************************************************
     166              ;* FNAME: _InitSpiaGpio                 FR SIZE:   0           *
     167              ;*                                                             *
     168              ;* FUNCTION ENVIRONMENT                                        *
     169              ;*                                                             *
     170              ;* FUNCTION PROPERTIES                                         *
     171              ;*                            0 Parameter,  0 Auto,  0 SOE     *
     172              ;***************************************************************
     173              
     174 0000001e       _InitSpiaGpio:
     175                      .dwcfi  cfa_offset, -2
     176                      .dwcfi  save_reg_to_mem, 26, 0
     177                      .dwpsn  file "../F2837xD/F2837xD_Spi.c",line 98,column 4,is_stmt,isa 0
     178 0000001e 7622   EALLOW
     179                      .dwpsn  file "../F2837xD/F2837xD_Spi.c",line 107,column 5,is_stmt,isa 0
     180 0000001f 761F!         MOVW      DP,#_GpioCtrlRegs+13  ; [CPU_ARAU] 
         00000020 0000 
     181 00000021 180D!         AND       @_GpioCtrlRegs+13,#0xfffe ; [CPU_ALU] |107| 
         00000022 FFFE 
     182                      .dwpsn  file "../F2837xD/F2837xD_Spi.c",line 109,column 5,is_stmt,isa 0
     183 00000023 180D!         AND       @_GpioCtrlRegs+13,#0xfffd ; [CPU_ALU] |109| 
         00000024 FFFD 
     184                      .dwpsn  file "../F2837xD/F2837xD_Spi.c",line 111,column 5,is_stmt,isa 0
     185 00000025 180D!         AND       @_GpioCtrlRegs+13,#0xfffb ; [CPU_ALU] |111| 
         00000026 FFFB 
     186                      .dwpsn  file "../F2837xD/F2837xD_Spi.c",line 112,column 5,is_stmt,isa 0
     187 00000027 180D!         AND       @_GpioCtrlRegs+13,#0xfff7 ; [CPU_ALU] |112| 
         00000028 FFF7 
     188                      .dwpsn  file "../F2837xD/F2837xD_Spi.c",line 120,column 5,is_stmt,isa 0
     189 00000029 1A04!         OR        @_GpioCtrlRegs+4,#0x0003 ; [CPU_ALU] |120| 
         0000002a 0003 
     190                      .dwpsn  file "../F2837xD/F2837xD_Spi.c",line 122,column 5,is_stmt,isa 0
     191 0000002b 1A04!         OR        @_GpioCtrlRegs+4,#0x000c ; [CPU_ALU] |122| 
         0000002c 000C 
     192                      .dwpsn  file "../F2837xD/F2837xD_Spi.c",line 124,column 5,is_stmt,isa 0
     193 0000002d 1A04!         OR        @_GpioCtrlRegs+4,#0x0030 ; [CPU_ALU] |124| 
         0000002e 0030 
     194                      .dwpsn  file "../F2837xD/F2837xD_Spi.c",line 125,column 5,is_stmt,isa 0
     195 0000002f 1A04!         OR        @_GpioCtrlRegs+4,#0x00c0 ; [CPU_ALU] |125| 
         00000030 00C0 
     196                      .dwpsn  file "../F2837xD/F2837xD_Spi.c",line 134,column 5,is_stmt,isa 0
     197 00000031 CC08!         AND       AL,@_GpioCtrlRegs+8,#0xfffc ; [CPU_ALU] |134| 
         00000032 FFFC 
TMS320C2000 Assembler PC v18.1.2 Fri Dec 14 17:55:34 2018

Tools Copyright (c) 1996-2017 Texas Instruments Incorporated
F2837xD_Spi.asm                                                      PAGE    5

     198 00000033 5001          ORB       AL,#0x01              ; [CPU_ALU] |134| 
     199 00000034 9608!         MOV       @_GpioCtrlRegs+8,AL   ; [CPU_ALU] |134| 
     200                      .dwpsn  file "../F2837xD/F2837xD_Spi.c",line 136,column 5,is_stmt,isa 0
     201 00000035 CC08!         AND       AL,@_GpioCtrlRegs+8,#0xfff3 ; [CPU_ALU] |136| 
         00000036 FFF3 
     202 00000037 5004          ORB       AL,#0x04              ; [CPU_ALU] |136| 
     203 00000038 9608!         MOV       @_GpioCtrlRegs+8,AL   ; [CPU_ALU] |136| 
     204                      .dwpsn  file "../F2837xD/F2837xD_Spi.c",line 138,column 5,is_stmt,isa 0
     205 00000039 CC08!         AND       AL,@_GpioCtrlRegs+8,#0xffcf ; [CPU_ALU] |138| 
         0000003a FFCF 
     206 0000003b 5010          ORB       AL,#0x10              ; [CPU_ALU] |138| 
     207 0000003c 9608!         MOV       @_GpioCtrlRegs+8,AL   ; [CPU_ALU] |138| 
     208                      .dwpsn  file "../F2837xD/F2837xD_Spi.c",line 139,column 5,is_stmt,isa 0
     209 0000003d CC08!         AND       AL,@_GpioCtrlRegs+8,#0xff3f ; [CPU_ALU] |139| 
         0000003e FF3F 
     210 0000003f 5040          ORB       AL,#0x40              ; [CPU_ALU] |139| 
     211 00000040 9608!         MOV       @_GpioCtrlRegs+8,AL   ; [CPU_ALU] |139| 
     212                      .dwpsn  file "../F2837xD/F2837xD_Spi.c",line 141,column 5,is_stmt,isa 0
     213 00000041 761A   EDIS
     214                      .dwpsn  file "../F2837xD/F2837xD_Spi.c",line 142,column 1,is_stmt,isa 0
     215 00000042 FF69          SPM       #0                    ; [CPU_ALU] 
     216              $C$DW$9 .dwtag  DW_TAG_TI_branch
     217                      .dwattr $C$DW$9, DW_AT_low_pc(0x00)
     218                      .dwattr $C$DW$9, DW_AT_TI_return
     219              
     220 00000043 0006          LRETR     ; [CPU_ALU] 
     221                      ; return occurs ; [] 
     222                      .dwattr $C$DW$8, DW_AT_TI_end_file("../F2837xD/F2837xD_Spi.c")
     223                      .dwattr $C$DW$8, DW_AT_TI_end_line(0x8e)
     224                      .dwattr $C$DW$8, DW_AT_TI_end_column(0x01)
     225                      .dwendentry
     226                      .dwendtag $C$DW$8
     227              
     228              ;**************************************************************
     229              ;* UNDEFINED EXTERNAL REFERENCES                              *
     230              ;**************************************************************
     231                      .global _SpiaRegs
     232                      .global _GpioCtrlRegs
     233              
     234              ;***************************************************************
     235              ;* TYPE INFORMATION                                            *
     236              ;***************************************************************
     237              
     238              $C$DW$T$20      .dwtag  DW_TAG_structure_type
     239                      .dwattr $C$DW$T$20, DW_AT_name("GPACR_BITS")
     240                      .dwattr $C$DW$T$20, DW_AT_byte_size(0x02)
     241              $C$DW$10        .dwtag  DW_TAG_member
     242                      .dwattr $C$DW$10, DW_AT_type(*$C$DW$T$19)
     243                      .dwattr $C$DW$10, DW_AT_name("GPIO0")
     244                      .dwattr $C$DW$10, DW_AT_TI_symbol_name("_GPIO0")
     245                      .dwattr $C$DW$10, DW_AT_bit_offset(0x0f)
     246                      .dwattr $C$DW$10, DW_AT_bit_size(0x01)
     247                      .dwattr $C$DW$10, DW_AT_data_member_location[DW_OP_plus_uconst 0x0]
     248                      .dwattr $C$DW$10, DW_AT_accessibility(DW_ACCESS_public)
     249              
TMS320C2000 Assembler PC v18.1.2 Fri Dec 14 17:55:34 2018

Tools Copyright (c) 1996-2017 Texas Instruments Incorporated
F2837xD_Spi.asm                                                      PAGE    6

     250              $C$DW$11        .dwtag  DW_TAG_member
     251                      .dwattr $C$DW$11, DW_AT_type(*$C$DW$T$19)
     252                      .dwattr $C$DW$11, DW_AT_name("GPIO1")
     253                      .dwattr $C$DW$11, DW_AT_TI_symbol_name("_GPIO1")
     254                      .dwattr $C$DW$11, DW_AT_bit_offset(0x0e)
     255                      .dwattr $C$DW$11, DW_AT_bit_size(0x01)
     256                      .dwattr $C$DW$11, DW_AT_data_member_location[DW_OP_plus_uconst 0x0]
     257                      .dwattr $C$DW$11, DW_AT_accessibility(DW_ACCESS_public)
     258              
     259              $C$DW$12        .dwtag  DW_TAG_member
     260                      .dwattr $C$DW$12, DW_AT_type(*$C$DW$T$19)
     261                      .dwattr $C$DW$12, DW_AT_name("GPIO2")
     262                      .dwattr $C$DW$12, DW_AT_TI_symbol_name("_GPIO2")
     263                      .dwattr $C$DW$12, DW_AT_bit_offset(0x0d)
     264                      .dwattr $C$DW$12, DW_AT_bit_size(0x01)
     265                      .dwattr $C$DW$12, DW_AT_data_member_location[DW_OP_plus_uconst 0x0]
     266                      .dwattr $C$DW$12, DW_AT_accessibility(DW_ACCESS_public)
     267              
     268              $C$DW$13        .dwtag  DW_TAG_member
     269                      .dwattr $C$DW$13, DW_AT_type(*$C$DW$T$19)
     270                      .dwattr $C$DW$13, DW_AT_name("GPIO3")
     271                      .dwattr $C$DW$13, DW_AT_TI_symbol_name("_GPIO3")
     272                      .dwattr $C$DW$13, DW_AT_bit_offset(0x0c)
     273                      .dwattr $C$DW$13, DW_AT_bit_size(0x01)
     274                      .dwattr $C$DW$13, DW_AT_data_member_location[DW_OP_plus_uconst 0x0]
     275                      .dwattr $C$DW$13, DW_AT_accessibility(DW_ACCESS_public)
     276              
     277              $C$DW$14        .dwtag  DW_TAG_member
     278                      .dwattr $C$DW$14, DW_AT_type(*$C$DW$T$19)
     279                      .dwattr $C$DW$14, DW_AT_name("GPIO4")
     280                      .dwattr $C$DW$14, DW_AT_TI_symbol_name("_GPIO4")
     281                      .dwattr $C$DW$14, DW_AT_bit_offset(0x0b)
     282                      .dwattr $C$DW$14, DW_AT_bit_size(0x01)
     283                      .dwattr $C$DW$14, DW_AT_data_member_location[DW_OP_plus_uconst 0x0]
     284                      .dwattr $C$DW$14, DW_AT_accessibility(DW_ACCESS_public)
     285              
     286              $C$DW$15        .dwtag  DW_TAG_member
     287                      .dwattr $C$DW$15, DW_AT_type(*$C$DW$T$19)
     288                      .dwattr $C$DW$15, DW_AT_name("GPIO5")
     289                      .dwattr $C$DW$15, DW_AT_TI_symbol_name("_GPIO5")
     290                      .dwattr $C$DW$15, DW_AT_bit_offset(0x0a)
     291                      .dwattr $C$DW$15, DW_AT_bit_size(0x01)
     292                      .dwattr $C$DW$15, DW_AT_data_member_location[DW_OP_plus_uconst 0x0]
     293                      .dwattr $C$DW$15, DW_AT_accessibility(DW_ACCESS_public)
     294              
     295              $C$DW$16        .dwtag  DW_TAG_member
     296                      .dwattr $C$DW$16, DW_AT_type(*$C$DW$T$19)
     297                      .dwattr $C$DW$16, DW_AT_name("GPIO6")
     298                      .dwattr $C$DW$16, DW_AT_TI_symbol_name("_GPIO6")
     299                      .dwattr $C$DW$16, DW_AT_bit_offset(0x09)
     300                      .dwattr $C$DW$16, DW_AT_bit_size(0x01)
     301                      .dwattr $C$DW$16, DW_AT_data_member_location[DW_OP_plus_uconst 0x0]
     302                      .dwattr $C$DW$16, DW_AT_accessibility(DW_ACCESS_public)
     303              
     304              $C$DW$17        .dwtag  DW_TAG_member
TMS320C2000 Assembler PC v18.1.2 Fri Dec 14 17:55:34 2018

Tools Copyright (c) 1996-2017 Texas Instruments Incorporated
F2837xD_Spi.asm                                                      PAGE    7

     305                      .dwattr $C$DW$17, DW_AT_type(*$C$DW$T$19)
     306                      .dwattr $C$DW$17, DW_AT_name("GPIO7")
     307                      .dwattr $C$DW$17, DW_AT_TI_symbol_name("_GPIO7")
     308                      .dwattr $C$DW$17, DW_AT_bit_offset(0x08)
     309                      .dwattr $C$DW$17, DW_AT_bit_size(0x01)
     310                      .dwattr $C$DW$17, DW_AT_data_member_location[DW_OP_plus_uconst 0x0]
     311                      .dwattr $C$DW$17, DW_AT_accessibility(DW_ACCESS_public)
     312              
     313              $C$DW$18        .dwtag  DW_TAG_member
     314                      .dwattr $C$DW$18, DW_AT_type(*$C$DW$T$19)
     315                      .dwattr $C$DW$18, DW_AT_name("GPIO8")
     316                      .dwattr $C$DW$18, DW_AT_TI_symbol_name("_GPIO8")
     317                      .dwattr $C$DW$18, DW_AT_bit_offset(0x07)
     318                      .dwattr $C$DW$18, DW_AT_bit_size(0x01)
     319                      .dwattr $C$DW$18, DW_AT_data_member_location[DW_OP_plus_uconst 0x0]
     320                      .dwattr $C$DW$18, DW_AT_accessibility(DW_ACCESS_public)
     321              
     322              $C$DW$19        .dwtag  DW_TAG_member
     323                      .dwattr $C$DW$19, DW_AT_type(*$C$DW$T$19)
     324                      .dwattr $C$DW$19, DW_AT_name("GPIO9")
     325                      .dwattr $C$DW$19, DW_AT_TI_symbol_name("_GPIO9")
     326                      .dwattr $C$DW$19, DW_AT_bit_offset(0x06)
     327                      .dwattr $C$DW$19, DW_AT_bit_size(0x01)
     328                      .dwattr $C$DW$19, DW_AT_data_member_location[DW_OP_plus_uconst 0x0]
     329                      .dwattr $C$DW$19, DW_AT_accessibility(DW_ACCESS_public)
     330              
     331              $C$DW$20        .dwtag  DW_TAG_member
     332                      .dwattr $C$DW$20, DW_AT_type(*$C$DW$T$19)
     333                      .dwattr $C$DW$20, DW_AT_name("GPIO10")
     334                      .dwattr $C$DW$20, DW_AT_TI_symbol_name("_GPIO10")
     335                      .dwattr $C$DW$20, DW_AT_bit_offset(0x05)
     336                      .dwattr $C$DW$20, DW_AT_bit_size(0x01)
     337                      .dwattr $C$DW$20, DW_AT_data_member_location[DW_OP_plus_uconst 0x0]
     338                      .dwattr $C$DW$20, DW_AT_accessibility(DW_ACCESS_public)
     339              
     340              $C$DW$21        .dwtag  DW_TAG_member
     341                      .dwattr $C$DW$21, DW_AT_type(*$C$DW$T$19)
     342                      .dwattr $C$DW$21, DW_AT_name("GPIO11")
     343                      .dwattr $C$DW$21, DW_AT_TI_symbol_name("_GPIO11")
     344                      .dwattr $C$DW$21, DW_AT_bit_offset(0x04)
     345                      .dwattr $C$DW$21, DW_AT_bit_size(0x01)
     346                      .dwattr $C$DW$21, DW_AT_data_member_location[DW_OP_plus_uconst 0x0]
     347                      .dwattr $C$DW$21, DW_AT_accessibility(DW_ACCESS_public)
     348              
     349              $C$DW$22        .dwtag  DW_TAG_member
     350                      .dwattr $C$DW$22, DW_AT_type(*$C$DW$T$19)
     351                      .dwattr $C$DW$22, DW_AT_name("GPIO12")
     352                      .dwattr $C$DW$22, DW_AT_TI_symbol_name("_GPIO12")
     353                      .dwattr $C$DW$22, DW_AT_bit_offset(0x03)
     354                      .dwattr $C$DW$22, DW_AT_bit_size(0x01)
     355                      .dwattr $C$DW$22, DW_AT_data_member_location[DW_OP_plus_uconst 0x0]
     356                      .dwattr $C$DW$22, DW_AT_accessibility(DW_ACCESS_public)
     357              
     358              $C$DW$23        .dwtag  DW_TAG_member
     359                      .dwattr $C$DW$23, DW_AT_type(*$C$DW$T$19)
TMS320C2000 Assembler PC v18.1.2 Fri Dec 14 17:55:34 2018

Tools Copyright (c) 1996-2017 Texas Instruments Incorporated
F2837xD_Spi.asm                                                      PAGE    8

     360                      .dwattr $C$DW$23, DW_AT_name("GPIO13")
     361                      .dwattr $C$DW$23, DW_AT_TI_symbol_name("_GPIO13")
     362                      .dwattr $C$DW$23, DW_AT_bit_offset(0x02)
     363                      .dwattr $C$DW$23, DW_AT_bit_size(0x01)
     364                      .dwattr $C$DW$23, DW_AT_data_member_location[DW_OP_plus_uconst 0x0]
     365                      .dwattr $C$DW$23, DW_AT_accessibility(DW_ACCESS_public)
     366              
     367              $C$DW$24        .dwtag  DW_TAG_member
     368                      .dwattr $C$DW$24, DW_AT_type(*$C$DW$T$19)
     369                      .dwattr $C$DW$24, DW_AT_name("GPIO14")
     370                      .dwattr $C$DW$24, DW_AT_TI_symbol_name("_GPIO14")
     371                      .dwattr $C$DW$24, DW_AT_bit_offset(0x01)
     372                      .dwattr $C$DW$24, DW_AT_bit_size(0x01)
     373                      .dwattr $C$DW$24, DW_AT_data_member_location[DW_OP_plus_uconst 0x0]
     374                      .dwattr $C$DW$24, DW_AT_accessibility(DW_ACCESS_public)
     375              
     376              $C$DW$25        .dwtag  DW_TAG_member
     377                      .dwattr $C$DW$25, DW_AT_type(*$C$DW$T$19)
     378                      .dwattr $C$DW$25, DW_AT_name("GPIO15")
     379                      .dwattr $C$DW$25, DW_AT_TI_symbol_name("_GPIO15")
     380                      .dwattr $C$DW$25, DW_AT_bit_offset(0x00)
     381                      .dwattr $C$DW$25, DW_AT_bit_size(0x01)
     382                      .dwattr $C$DW$25, DW_AT_data_member_location[DW_OP_plus_uconst 0x0]
     383                      .dwattr $C$DW$25, DW_AT_accessibility(DW_ACCESS_public)
     384              
     385              $C$DW$26        .dwtag  DW_TAG_member
     386                      .dwattr $C$DW$26, DW_AT_type(*$C$DW$T$19)
     387                      .dwattr $C$DW$26, DW_AT_name("GPIO16")
     388                      .dwattr $C$DW$26, DW_AT_TI_symbol_name("_GPIO16")
     389                      .dwattr $C$DW$26, DW_AT_bit_offset(0x0f)
     390                      .dwattr $C$DW$26, DW_AT_bit_size(0x01)
     391                      .dwattr $C$DW$26, DW_AT_data_member_location[DW_OP_plus_uconst 0x1]
     392                      .dwattr $C$DW$26, DW_AT_accessibility(DW_ACCESS_public)
     393              
     394              $C$DW$27        .dwtag  DW_TAG_member
     395                      .dwattr $C$DW$27, DW_AT_type(*$C$DW$T$19)
     396                      .dwattr $C$DW$27, DW_AT_name("GPIO17")
     397                      .dwattr $C$DW$27, DW_AT_TI_symbol_name("_GPIO17")
     398                      .dwattr $C$DW$27, DW_AT_bit_offset(0x0e)
     399                      .dwattr $C$DW$27, DW_AT_bit_size(0x01)
     400                      .dwattr $C$DW$27, DW_AT_data_member_location[DW_OP_plus_uconst 0x1]
     401                      .dwattr $C$DW$27, DW_AT_accessibility(DW_ACCESS_public)
     402              
     403              $C$DW$28        .dwtag  DW_TAG_member
     404                      .dwattr $C$DW$28, DW_AT_type(*$C$DW$T$19)
     405                      .dwattr $C$DW$28, DW_AT_name("GPIO18")
     406                      .dwattr $C$DW$28, DW_AT_TI_symbol_name("_GPIO18")
     407                      .dwattr $C$DW$28, DW_AT_bit_offset(0x0d)
     408                      .dwattr $C$DW$28, DW_AT_bit_size(0x01)
     409                      .dwattr $C$DW$28, DW_AT_data_member_location[DW_OP_plus_uconst 0x1]
     410                      .dwattr $C$DW$28, DW_AT_accessibility(DW_ACCESS_public)
     411              
     412              $C$DW$29        .dwtag  DW_TAG_member
     413                      .dwattr $C$DW$29, DW_AT_type(*$C$DW$T$19)
     414                      .dwattr $C$DW$29, DW_AT_name("GPIO19")
TMS320C2000 Assembler PC v18.1.2 Fri Dec 14 17:55:34 2018

Tools Copyright (c) 1996-2017 Texas Instruments Incorporated
F2837xD_Spi.asm                                                      PAGE    9

     415                      .dwattr $C$DW$29, DW_AT_TI_symbol_name("_GPIO19")
     416                      .dwattr $C$DW$29, DW_AT_bit_offset(0x0c)
     417                      .dwattr $C$DW$29, DW_AT_bit_size(0x01)
     418                      .dwattr $C$DW$29, DW_AT_data_member_location[DW_OP_plus_uconst 0x1]
     419                      .dwattr $C$DW$29, DW_AT_accessibility(DW_ACCESS_public)
     420              
     421              $C$DW$30        .dwtag  DW_TAG_member
     422                      .dwattr $C$DW$30, DW_AT_type(*$C$DW$T$19)
     423                      .dwattr $C$DW$30, DW_AT_name("GPIO20")
     424                      .dwattr $C$DW$30, DW_AT_TI_symbol_name("_GPIO20")
     425                      .dwattr $C$DW$30, DW_AT_bit_offset(0x0b)
     426                      .dwattr $C$DW$30, DW_AT_bit_size(0x01)
     427                      .dwattr $C$DW$30, DW_AT_data_member_location[DW_OP_plus_uconst 0x1]
     428                      .dwattr $C$DW$30, DW_AT_accessibility(DW_ACCESS_public)
     429              
     430              $C$DW$31        .dwtag  DW_TAG_member
     431                      .dwattr $C$DW$31, DW_AT_type(*$C$DW$T$19)
     432                      .dwattr $C$DW$31, DW_AT_name("GPIO21")
     433                      .dwattr $C$DW$31, DW_AT_TI_symbol_name("_GPIO21")
     434                      .dwattr $C$DW$31, DW_AT_bit_offset(0x0a)
     435                      .dwattr $C$DW$31, DW_AT_bit_size(0x01)
     436                      .dwattr $C$DW$31, DW_AT_data_member_location[DW_OP_plus_uconst 0x1]
     437                      .dwattr $C$DW$31, DW_AT_accessibility(DW_ACCESS_public)
     438              
     439              $C$DW$32        .dwtag  DW_TAG_member
     440                      .dwattr $C$DW$32, DW_AT_type(*$C$DW$T$19)
     441                      .dwattr $C$DW$32, DW_AT_name("GPIO22")
     442                      .dwattr $C$DW$32, DW_AT_TI_symbol_name("_GPIO22")
     443                      .dwattr $C$DW$32, DW_AT_bit_offset(0x09)
     444                      .dwattr $C$DW$32, DW_AT_bit_size(0x01)
     445                      .dwattr $C$DW$32, DW_AT_data_member_location[DW_OP_plus_uconst 0x1]
     446                      .dwattr $C$DW$32, DW_AT_accessibility(DW_ACCESS_public)
     447              
     448              $C$DW$33        .dwtag  DW_TAG_member
     449                      .dwattr $C$DW$33, DW_AT_type(*$C$DW$T$19)
     450                      .dwattr $C$DW$33, DW_AT_name("GPIO23")
     451                      .dwattr $C$DW$33, DW_AT_TI_symbol_name("_GPIO23")
     452                      .dwattr $C$DW$33, DW_AT_bit_offset(0x08)
     453                      .dwattr $C$DW$33, DW_AT_bit_size(0x01)
     454                      .dwattr $C$DW$33, DW_AT_data_member_location[DW_OP_plus_uconst 0x1]
     455                      .dwattr $C$DW$33, DW_AT_accessibility(DW_ACCESS_public)
     456              
     457              $C$DW$34        .dwtag  DW_TAG_member
     458                      .dwattr $C$DW$34, DW_AT_type(*$C$DW$T$19)
     459                      .dwattr $C$DW$34, DW_AT_name("GPIO24")
     460                      .dwattr $C$DW$34, DW_AT_TI_symbol_name("_GPIO24")
     461                      .dwattr $C$DW$34, DW_AT_bit_offset(0x07)
     462                      .dwattr $C$DW$34, DW_AT_bit_size(0x01)
     463                      .dwattr $C$DW$34, DW_AT_data_member_location[DW_OP_plus_uconst 0x1]
     464                      .dwattr $C$DW$34, DW_AT_accessibility(DW_ACCESS_public)
     465              
     466              $C$DW$35        .dwtag  DW_TAG_member
     467                      .dwattr $C$DW$35, DW_AT_type(*$C$DW$T$19)
     468                      .dwattr $C$DW$35, DW_AT_name("GPIO25")
     469                      .dwattr $C$DW$35, DW_AT_TI_symbol_name("_GPIO25")
TMS320C2000 Assembler PC v18.1.2 Fri Dec 14 17:55:34 2018

Tools Copyright (c) 1996-2017 Texas Instruments Incorporated
F2837xD_Spi.asm                                                      PAGE   10

     470                      .dwattr $C$DW$35, DW_AT_bit_offset(0x06)
     471                      .dwattr $C$DW$35, DW_AT_bit_size(0x01)
     472                      .dwattr $C$DW$35, DW_AT_data_member_location[DW_OP_plus_uconst 0x1]
     473                      .dwattr $C$DW$35, DW_AT_accessibility(DW_ACCESS_public)
     474              
     475              $C$DW$36        .dwtag  DW_TAG_member
     476                      .dwattr $C$DW$36, DW_AT_type(*$C$DW$T$19)
     477                      .dwattr $C$DW$36, DW_AT_name("GPIO26")
     478                      .dwattr $C$DW$36, DW_AT_TI_symbol_name("_GPIO26")
     479                      .dwattr $C$DW$36, DW_AT_bit_offset(0x05)
     480                      .dwattr $C$DW$36, DW_AT_bit_size(0x01)
     481                      .dwattr $C$DW$36, DW_AT_data_member_location[DW_OP_plus_uconst 0x1]
     482                      .dwattr $C$DW$36, DW_AT_accessibility(DW_ACCESS_public)
     483              
     484              $C$DW$37        .dwtag  DW_TAG_member
     485                      .dwattr $C$DW$37, DW_AT_type(*$C$DW$T$19)
     486                      .dwattr $C$DW$37, DW_AT_name("GPIO27")
     487                      .dwattr $C$DW$37, DW_AT_TI_symbol_name("_GPIO27")
     488                      .dwattr $C$DW$37, DW_AT_bit_offset(0x04)
     489                      .dwattr $C$DW$37, DW_AT_bit_size(0x01)
     490                      .dwattr $C$DW$37, DW_AT_data_member_location[DW_OP_plus_uconst 0x1]
     491                      .dwattr $C$DW$37, DW_AT_accessibility(DW_ACCESS_public)
     492              
     493              $C$DW$38        .dwtag  DW_TAG_member
     494                      .dwattr $C$DW$38, DW_AT_type(*$C$DW$T$19)
     495                      .dwattr $C$DW$38, DW_AT_name("GPIO28")
     496                      .dwattr $C$DW$38, DW_AT_TI_symbol_name("_GPIO28")
     497                      .dwattr $C$DW$38, DW_AT_bit_offset(0x03)
     498                      .dwattr $C$DW$38, DW_AT_bit_size(0x01)
     499                      .dwattr $C$DW$38, DW_AT_data_member_location[DW_OP_plus_uconst 0x1]
     500                      .dwattr $C$DW$38, DW_AT_accessibility(DW_ACCESS_public)
     501              
     502              $C$DW$39        .dwtag  DW_TAG_member
     503                      .dwattr $C$DW$39, DW_AT_type(*$C$DW$T$19)
     504                      .dwattr $C$DW$39, DW_AT_name("GPIO29")
     505                      .dwattr $C$DW$39, DW_AT_TI_symbol_name("_GPIO29")
     506                      .dwattr $C$DW$39, DW_AT_bit_offset(0x02)
     507                      .dwattr $C$DW$39, DW_AT_bit_size(0x01)
     508                      .dwattr $C$DW$39, DW_AT_data_member_location[DW_OP_plus_uconst 0x1]
     509                      .dwattr $C$DW$39, DW_AT_accessibility(DW_ACCESS_public)
     510              
     511              $C$DW$40        .dwtag  DW_TAG_member
     512                      .dwattr $C$DW$40, DW_AT_type(*$C$DW$T$19)
     513                      .dwattr $C$DW$40, DW_AT_name("GPIO30")
     514                      .dwattr $C$DW$40, DW_AT_TI_symbol_name("_GPIO30")
     515                      .dwattr $C$DW$40, DW_AT_bit_offset(0x01)
     516                      .dwattr $C$DW$40, DW_AT_bit_size(0x01)
     517                      .dwattr $C$DW$40, DW_AT_data_member_location[DW_OP_plus_uconst 0x1]
     518                      .dwattr $C$DW$40, DW_AT_accessibility(DW_ACCESS_public)
     519              
     520              $C$DW$41        .dwtag  DW_TAG_member
     521                      .dwattr $C$DW$41, DW_AT_type(*$C$DW$T$19)
     522                      .dwattr $C$DW$41, DW_AT_name("GPIO31")
     523                      .dwattr $C$DW$41, DW_AT_TI_symbol_name("_GPIO31")
     524                      .dwattr $C$DW$41, DW_AT_bit_offset(0x00)
TMS320C2000 Assembler PC v18.1.2 Fri Dec 14 17:55:34 2018

Tools Copyright (c) 1996-2017 Texas Instruments Incorporated
F2837xD_Spi.asm                                                      PAGE   11

     525                      .dwattr $C$DW$41, DW_AT_bit_size(0x01)
     526                      .dwattr $C$DW$41, DW_AT_data_member_location[DW_OP_plus_uconst 0x1]
     527                      .dwattr $C$DW$41, DW_AT_accessibility(DW_ACCESS_public)
     528              
     529                      .dwendtag $C$DW$T$20
     530              
     531              
     532              $C$DW$T$22      .dwtag  DW_TAG_union_type
     533                      .dwattr $C$DW$T$22, DW_AT_name("GPACR_REG")
     534                      .dwattr $C$DW$T$22, DW_AT_byte_size(0x02)
     535              $C$DW$42        .dwtag  DW_TAG_member
     536                      .dwattr $C$DW$42, DW_AT_type(*$C$DW$T$21)
     537                      .dwattr $C$DW$42, DW_AT_name("all")
     538                      .dwattr $C$DW$42, DW_AT_TI_symbol_name("_all")
     539                      .dwattr $C$DW$42, DW_AT_data_member_location[DW_OP_plus_uconst 0x0]
     540                      .dwattr $C$DW$42, DW_AT_accessibility(DW_ACCESS_public)
     541              
     542              $C$DW$43        .dwtag  DW_TAG_member
     543                      .dwattr $C$DW$43, DW_AT_type(*$C$DW$T$20)
     544                      .dwattr $C$DW$43, DW_AT_name("bit")
     545                      .dwattr $C$DW$43, DW_AT_TI_symbol_name("_bit")
     546                      .dwattr $C$DW$43, DW_AT_data_member_location[DW_OP_plus_uconst 0x0]
     547                      .dwattr $C$DW$43, DW_AT_accessibility(DW_ACCESS_public)
     548              
     549                      .dwendtag $C$DW$T$22
     550              
     551              
     552              $C$DW$T$23      .dwtag  DW_TAG_structure_type
     553                      .dwattr $C$DW$T$23, DW_AT_name("GPACSEL1_BITS")
     554                      .dwattr $C$DW$T$23, DW_AT_byte_size(0x02)
     555              $C$DW$44        .dwtag  DW_TAG_member
     556                      .dwattr $C$DW$44, DW_AT_type(*$C$DW$T$19)
     557                      .dwattr $C$DW$44, DW_AT_name("GPIO0")
     558                      .dwattr $C$DW$44, DW_AT_TI_symbol_name("_GPIO0")
     559                      .dwattr $C$DW$44, DW_AT_bit_offset(0x0c)
     560                      .dwattr $C$DW$44, DW_AT_bit_size(0x04)
     561                      .dwattr $C$DW$44, DW_AT_data_member_location[DW_OP_plus_uconst 0x0]
     562                      .dwattr $C$DW$44, DW_AT_accessibility(DW_ACCESS_public)
     563              
     564              $C$DW$45        .dwtag  DW_TAG_member
     565                      .dwattr $C$DW$45, DW_AT_type(*$C$DW$T$19)
     566                      .dwattr $C$DW$45, DW_AT_name("GPIO1")
     567                      .dwattr $C$DW$45, DW_AT_TI_symbol_name("_GPIO1")
     568                      .dwattr $C$DW$45, DW_AT_bit_offset(0x08)
     569                      .dwattr $C$DW$45, DW_AT_bit_size(0x04)
     570                      .dwattr $C$DW$45, DW_AT_data_member_location[DW_OP_plus_uconst 0x0]
     571                      .dwattr $C$DW$45, DW_AT_accessibility(DW_ACCESS_public)
     572              
     573              $C$DW$46        .dwtag  DW_TAG_member
     574                      .dwattr $C$DW$46, DW_AT_type(*$C$DW$T$19)
     575                      .dwattr $C$DW$46, DW_AT_name("GPIO2")
     576                      .dwattr $C$DW$46, DW_AT_TI_symbol_name("_GPIO2")
     577                      .dwattr $C$DW$46, DW_AT_bit_offset(0x04)
     578                      .dwattr $C$DW$46, DW_AT_bit_size(0x04)
     579                      .dwattr $C$DW$46, DW_AT_data_member_location[DW_OP_plus_uconst 0x0]
TMS320C2000 Assembler PC v18.1.2 Fri Dec 14 17:55:34 2018

Tools Copyright (c) 1996-2017 Texas Instruments Incorporated
F2837xD_Spi.asm                                                      PAGE   12

     580                      .dwattr $C$DW$46, DW_AT_accessibility(DW_ACCESS_public)
     581              
     582              $C$DW$47        .dwtag  DW_TAG_member
     583                      .dwattr $C$DW$47, DW_AT_type(*$C$DW$T$19)
     584                      .dwattr $C$DW$47, DW_AT_name("GPIO3")
     585                      .dwattr $C$DW$47, DW_AT_TI_symbol_name("_GPIO3")
     586                      .dwattr $C$DW$47, DW_AT_bit_offset(0x00)
     587                      .dwattr $C$DW$47, DW_AT_bit_size(0x04)
     588                      .dwattr $C$DW$47, DW_AT_data_member_location[DW_OP_plus_uconst 0x0]
     589                      .dwattr $C$DW$47, DW_AT_accessibility(DW_ACCESS_public)
     590              
     591              $C$DW$48        .dwtag  DW_TAG_member
     592                      .dwattr $C$DW$48, DW_AT_type(*$C$DW$T$19)
     593                      .dwattr $C$DW$48, DW_AT_name("GPIO4")
     594                      .dwattr $C$DW$48, DW_AT_TI_symbol_name("_GPIO4")
     595                      .dwattr $C$DW$48, DW_AT_bit_offset(0x0c)
     596                      .dwattr $C$DW$48, DW_AT_bit_size(0x04)
     597                      .dwattr $C$DW$48, DW_AT_data_member_location[DW_OP_plus_uconst 0x1]
     598                      .dwattr $C$DW$48, DW_AT_accessibility(DW_ACCESS_public)
     599              
     600              $C$DW$49        .dwtag  DW_TAG_member
     601                      .dwattr $C$DW$49, DW_AT_type(*$C$DW$T$19)
     602                      .dwattr $C$DW$49, DW_AT_name("GPIO5")
     603                      .dwattr $C$DW$49, DW_AT_TI_symbol_name("_GPIO5")
     604                      .dwattr $C$DW$49, DW_AT_bit_offset(0x08)
     605                      .dwattr $C$DW$49, DW_AT_bit_size(0x04)
     606                      .dwattr $C$DW$49, DW_AT_data_member_location[DW_OP_plus_uconst 0x1]
     607                      .dwattr $C$DW$49, DW_AT_accessibility(DW_ACCESS_public)
     608              
     609              $C$DW$50        .dwtag  DW_TAG_member
     610                      .dwattr $C$DW$50, DW_AT_type(*$C$DW$T$19)
     611                      .dwattr $C$DW$50, DW_AT_name("GPIO6")
     612                      .dwattr $C$DW$50, DW_AT_TI_symbol_name("_GPIO6")
     613                      .dwattr $C$DW$50, DW_AT_bit_offset(0x04)
     614                      .dwattr $C$DW$50, DW_AT_bit_size(0x04)
     615                      .dwattr $C$DW$50, DW_AT_data_member_location[DW_OP_plus_uconst 0x1]
     616                      .dwattr $C$DW$50, DW_AT_accessibility(DW_ACCESS_public)
     617              
     618              $C$DW$51        .dwtag  DW_TAG_member
     619                      .dwattr $C$DW$51, DW_AT_type(*$C$DW$T$19)
     620                      .dwattr $C$DW$51, DW_AT_name("GPIO7")
     621                      .dwattr $C$DW$51, DW_AT_TI_symbol_name("_GPIO7")
     622                      .dwattr $C$DW$51, DW_AT_bit_offset(0x00)
     623                      .dwattr $C$DW$51, DW_AT_bit_size(0x04)
     624                      .dwattr $C$DW$51, DW_AT_data_member_location[DW_OP_plus_uconst 0x1]
     625                      .dwattr $C$DW$51, DW_AT_accessibility(DW_ACCESS_public)
     626              
     627                      .dwendtag $C$DW$T$23
     628              
     629              
     630              $C$DW$T$24      .dwtag  DW_TAG_union_type
     631                      .dwattr $C$DW$T$24, DW_AT_name("GPACSEL1_REG")
     632                      .dwattr $C$DW$T$24, DW_AT_byte_size(0x02)
     633              $C$DW$52        .dwtag  DW_TAG_member
     634                      .dwattr $C$DW$52, DW_AT_type(*$C$DW$T$21)
TMS320C2000 Assembler PC v18.1.2 Fri Dec 14 17:55:34 2018

Tools Copyright (c) 1996-2017 Texas Instruments Incorporated
F2837xD_Spi.asm                                                      PAGE   13

     635                      .dwattr $C$DW$52, DW_AT_name("all")
     636                      .dwattr $C$DW$52, DW_AT_TI_symbol_name("_all")
     637                      .dwattr $C$DW$52, DW_AT_data_member_location[DW_OP_plus_uconst 0x0]
     638                      .dwattr $C$DW$52, DW_AT_accessibility(DW_ACCESS_public)
     639              
     640              $C$DW$53        .dwtag  DW_TAG_member
     641                      .dwattr $C$DW$53, DW_AT_type(*$C$DW$T$23)
     642                      .dwattr $C$DW$53, DW_AT_name("bit")
     643                      .dwattr $C$DW$53, DW_AT_TI_symbol_name("_bit")
     644                      .dwattr $C$DW$53, DW_AT_data_member_location[DW_OP_plus_uconst 0x0]
     645                      .dwattr $C$DW$53, DW_AT_accessibility(DW_ACCESS_public)
     646              
     647                      .dwendtag $C$DW$T$24
     648              
     649              
     650              $C$DW$T$25      .dwtag  DW_TAG_structure_type
     651                      .dwattr $C$DW$T$25, DW_AT_name("GPACSEL2_BITS")
     652                      .dwattr $C$DW$T$25, DW_AT_byte_size(0x02)
     653              $C$DW$54        .dwtag  DW_TAG_member
     654                      .dwattr $C$DW$54, DW_AT_type(*$C$DW$T$19)
     655                      .dwattr $C$DW$54, DW_AT_name("GPIO8")
     656                      .dwattr $C$DW$54, DW_AT_TI_symbol_name("_GPIO8")
     657                      .dwattr $C$DW$54, DW_AT_bit_offset(0x0c)
     658                      .dwattr $C$DW$54, DW_AT_bit_size(0x04)
     659                      .dwattr $C$DW$54, DW_AT_data_member_location[DW_OP_plus_uconst 0x0]
     660                      .dwattr $C$DW$54, DW_AT_accessibility(DW_ACCESS_public)
     661              
     662              $C$DW$55        .dwtag  DW_TAG_member
     663                      .dwattr $C$DW$55, DW_AT_type(*$C$DW$T$19)
     664                      .dwattr $C$DW$55, DW_AT_name("GPIO9")
     665                      .dwattr $C$DW$55, DW_AT_TI_symbol_name("_GPIO9")
     666                      .dwattr $C$DW$55, DW_AT_bit_offset(0x08)
     667                      .dwattr $C$DW$55, DW_AT_bit_size(0x04)
     668                      .dwattr $C$DW$55, DW_AT_data_member_location[DW_OP_plus_uconst 0x0]
     669                      .dwattr $C$DW$55, DW_AT_accessibility(DW_ACCESS_public)
     670              
     671              $C$DW$56        .dwtag  DW_TAG_member
     672                      .dwattr $C$DW$56, DW_AT_type(*$C$DW$T$19)
     673                      .dwattr $C$DW$56, DW_AT_name("GPIO10")
     674                      .dwattr $C$DW$56, DW_AT_TI_symbol_name("_GPIO10")
     675                      .dwattr $C$DW$56, DW_AT_bit_offset(0x04)
     676                      .dwattr $C$DW$56, DW_AT_bit_size(0x04)
     677                      .dwattr $C$DW$56, DW_AT_data_member_location[DW_OP_plus_uconst 0x0]
     678                      .dwattr $C$DW$56, DW_AT_accessibility(DW_ACCESS_public)
     679              
     680              $C$DW$57        .dwtag  DW_TAG_member
     681                      .dwattr $C$DW$57, DW_AT_type(*$C$DW$T$19)
     682                      .dwattr $C$DW$57, DW_AT_name("GPIO11")
     683                      .dwattr $C$DW$57, DW_AT_TI_symbol_name("_GPIO11")
     684                      .dwattr $C$DW$57, DW_AT_bit_offset(0x00)
     685                      .dwattr $C$DW$57, DW_AT_bit_size(0x04)
     686                      .dwattr $C$DW$57, DW_AT_data_member_location[DW_OP_plus_uconst 0x0]
     687                      .dwattr $C$DW$57, DW_AT_accessibility(DW_ACCESS_public)
     688              
     689              $C$DW$58        .dwtag  DW_TAG_member
TMS320C2000 Assembler PC v18.1.2 Fri Dec 14 17:55:34 2018

Tools Copyright (c) 1996-2017 Texas Instruments Incorporated
F2837xD_Spi.asm                                                      PAGE   14

     690                      .dwattr $C$DW$58, DW_AT_type(*$C$DW$T$19)
     691                      .dwattr $C$DW$58, DW_AT_name("GPIO12")
     692                      .dwattr $C$DW$58, DW_AT_TI_symbol_name("_GPIO12")
     693                      .dwattr $C$DW$58, DW_AT_bit_offset(0x0c)
     694                      .dwattr $C$DW$58, DW_AT_bit_size(0x04)
     695                      .dwattr $C$DW$58, DW_AT_data_member_location[DW_OP_plus_uconst 0x1]
     696                      .dwattr $C$DW$58, DW_AT_accessibility(DW_ACCESS_public)
     697              
     698              $C$DW$59        .dwtag  DW_TAG_member
     699                      .dwattr $C$DW$59, DW_AT_type(*$C$DW$T$19)
     700                      .dwattr $C$DW$59, DW_AT_name("GPIO13")
     701                      .dwattr $C$DW$59, DW_AT_TI_symbol_name("_GPIO13")
     702                      .dwattr $C$DW$59, DW_AT_bit_offset(0x08)
     703                      .dwattr $C$DW$59, DW_AT_bit_size(0x04)
     704                      .dwattr $C$DW$59, DW_AT_data_member_location[DW_OP_plus_uconst 0x1]
     705                      .dwattr $C$DW$59, DW_AT_accessibility(DW_ACCESS_public)
     706              
     707              $C$DW$60        .dwtag  DW_TAG_member
     708                      .dwattr $C$DW$60, DW_AT_type(*$C$DW$T$19)
     709                      .dwattr $C$DW$60, DW_AT_name("GPIO14")
     710                      .dwattr $C$DW$60, DW_AT_TI_symbol_name("_GPIO14")
     711                      .dwattr $C$DW$60, DW_AT_bit_offset(0x04)
     712                      .dwattr $C$DW$60, DW_AT_bit_size(0x04)
     713                      .dwattr $C$DW$60, DW_AT_data_member_location[DW_OP_plus_uconst 0x1]
     714                      .dwattr $C$DW$60, DW_AT_accessibility(DW_ACCESS_public)
     715              
     716              $C$DW$61        .dwtag  DW_TAG_member
     717                      .dwattr $C$DW$61, DW_AT_type(*$C$DW$T$19)
     718                      .dwattr $C$DW$61, DW_AT_name("GPIO15")
     719                      .dwattr $C$DW$61, DW_AT_TI_symbol_name("_GPIO15")
     720                      .dwattr $C$DW$61, DW_AT_bit_offset(0x00)
     721                      .dwattr $C$DW$61, DW_AT_bit_size(0x04)
     722                      .dwattr $C$DW$61, DW_AT_data_member_location[DW_OP_plus_uconst 0x1]
     723                      .dwattr $C$DW$61, DW_AT_accessibility(DW_ACCESS_public)
     724              
     725                      .dwendtag $C$DW$T$25
     726              
     727              
     728              $C$DW$T$26      .dwtag  DW_TAG_union_type
     729                      .dwattr $C$DW$T$26, DW_AT_name("GPACSEL2_REG")
     730                      .dwattr $C$DW$T$26, DW_AT_byte_size(0x02)
     731              $C$DW$62        .dwtag  DW_TAG_member
     732                      .dwattr $C$DW$62, DW_AT_type(*$C$DW$T$21)
     733                      .dwattr $C$DW$62, DW_AT_name("all")
     734                      .dwattr $C$DW$62, DW_AT_TI_symbol_name("_all")
     735                      .dwattr $C$DW$62, DW_AT_data_member_location[DW_OP_plus_uconst 0x0]
     736                      .dwattr $C$DW$62, DW_AT_accessibility(DW_ACCESS_public)
     737              
     738              $C$DW$63        .dwtag  DW_TAG_member
     739                      .dwattr $C$DW$63, DW_AT_type(*$C$DW$T$25)
     740                      .dwattr $C$DW$63, DW_AT_name("bit")
     741                      .dwattr $C$DW$63, DW_AT_TI_symbol_name("_bit")
     742                      .dwattr $C$DW$63, DW_AT_data_member_location[DW_OP_plus_uconst 0x0]
     743                      .dwattr $C$DW$63, DW_AT_accessibility(DW_ACCESS_public)
     744              
TMS320C2000 Assembler PC v18.1.2 Fri Dec 14 17:55:34 2018

Tools Copyright (c) 1996-2017 Texas Instruments Incorporated
F2837xD_Spi.asm                                                      PAGE   15

     745                      .dwendtag $C$DW$T$26
     746              
     747              
     748              $C$DW$T$27      .dwtag  DW_TAG_structure_type
     749                      .dwattr $C$DW$T$27, DW_AT_name("GPACSEL3_BITS")
     750                      .dwattr $C$DW$T$27, DW_AT_byte_size(0x02)
     751              $C$DW$64        .dwtag  DW_TAG_member
     752                      .dwattr $C$DW$64, DW_AT_type(*$C$DW$T$19)
     753                      .dwattr $C$DW$64, DW_AT_name("GPIO16")
     754                      .dwattr $C$DW$64, DW_AT_TI_symbol_name("_GPIO16")
     755                      .dwattr $C$DW$64, DW_AT_bit_offset(0x0c)
     756                      .dwattr $C$DW$64, DW_AT_bit_size(0x04)
     757                      .dwattr $C$DW$64, DW_AT_data_member_location[DW_OP_plus_uconst 0x0]
     758                      .dwattr $C$DW$64, DW_AT_accessibility(DW_ACCESS_public)
     759              
     760              $C$DW$65        .dwtag  DW_TAG_member
     761                      .dwattr $C$DW$65, DW_AT_type(*$C$DW$T$19)
     762                      .dwattr $C$DW$65, DW_AT_name("GPIO17")
     763                      .dwattr $C$DW$65, DW_AT_TI_symbol_name("_GPIO17")
     764                      .dwattr $C$DW$65, DW_AT_bit_offset(0x08)
     765                      .dwattr $C$DW$65, DW_AT_bit_size(0x04)
     766                      .dwattr $C$DW$65, DW_AT_data_member_location[DW_OP_plus_uconst 0x0]
     767                      .dwattr $C$DW$65, DW_AT_accessibility(DW_ACCESS_public)
     768              
     769              $C$DW$66        .dwtag  DW_TAG_member
     770                      .dwattr $C$DW$66, DW_AT_type(*$C$DW$T$19)
     771                      .dwattr $C$DW$66, DW_AT_name("GPIO18")
     772                      .dwattr $C$DW$66, DW_AT_TI_symbol_name("_GPIO18")
     773                      .dwattr $C$DW$66, DW_AT_bit_offset(0x04)
     774                      .dwattr $C$DW$66, DW_AT_bit_size(0x04)
     775                      .dwattr $C$DW$66, DW_AT_data_member_location[DW_OP_plus_uconst 0x0]
     776                      .dwattr $C$DW$66, DW_AT_accessibility(DW_ACCESS_public)
     777              
     778              $C$DW$67        .dwtag  DW_TAG_member
     779                      .dwattr $C$DW$67, DW_AT_type(*$C$DW$T$19)
     780                      .dwattr $C$DW$67, DW_AT_name("GPIO19")
     781                      .dwattr $C$DW$67, DW_AT_TI_symbol_name("_GPIO19")
     782                      .dwattr $C$DW$67, DW_AT_bit_offset(0x00)
     783                      .dwattr $C$DW$67, DW_AT_bit_size(0x04)
     784                      .dwattr $C$DW$67, DW_AT_data_member_location[DW_OP_plus_uconst 0x0]
     785                      .dwattr $C$DW$67, DW_AT_accessibility(DW_ACCESS_public)
     786              
     787              $C$DW$68        .dwtag  DW_TAG_member
     788                      .dwattr $C$DW$68, DW_AT_type(*$C$DW$T$19)
     789                      .dwattr $C$DW$68, DW_AT_name("GPIO20")
     790                      .dwattr $C$DW$68, DW_AT_TI_symbol_name("_GPIO20")
     791                      .dwattr $C$DW$68, DW_AT_bit_offset(0x0c)
     792                      .dwattr $C$DW$68, DW_AT_bit_size(0x04)
     793                      .dwattr $C$DW$68, DW_AT_data_member_location[DW_OP_plus_uconst 0x1]
     794                      .dwattr $C$DW$68, DW_AT_accessibility(DW_ACCESS_public)
     795              
     796              $C$DW$69        .dwtag  DW_TAG_member
     797                      .dwattr $C$DW$69, DW_AT_type(*$C$DW$T$19)
     798                      .dwattr $C$DW$69, DW_AT_name("GPIO21")
     799                      .dwattr $C$DW$69, DW_AT_TI_symbol_name("_GPIO21")
TMS320C2000 Assembler PC v18.1.2 Fri Dec 14 17:55:34 2018

Tools Copyright (c) 1996-2017 Texas Instruments Incorporated
F2837xD_Spi.asm                                                      PAGE   16

     800                      .dwattr $C$DW$69, DW_AT_bit_offset(0x08)
     801                      .dwattr $C$DW$69, DW_AT_bit_size(0x04)
     802                      .dwattr $C$DW$69, DW_AT_data_member_location[DW_OP_plus_uconst 0x1]
     803                      .dwattr $C$DW$69, DW_AT_accessibility(DW_ACCESS_public)
     804              
     805              $C$DW$70        .dwtag  DW_TAG_member
     806                      .dwattr $C$DW$70, DW_AT_type(*$C$DW$T$19)
     807                      .dwattr $C$DW$70, DW_AT_name("GPIO22")
     808                      .dwattr $C$DW$70, DW_AT_TI_symbol_name("_GPIO22")
     809                      .dwattr $C$DW$70, DW_AT_bit_offset(0x04)
     810                      .dwattr $C$DW$70, DW_AT_bit_size(0x04)
     811                      .dwattr $C$DW$70, DW_AT_data_member_location[DW_OP_plus_uconst 0x1]
     812                      .dwattr $C$DW$70, DW_AT_accessibility(DW_ACCESS_public)
     813              
     814              $C$DW$71        .dwtag  DW_TAG_member
     815                      .dwattr $C$DW$71, DW_AT_type(*$C$DW$T$19)
     816                      .dwattr $C$DW$71, DW_AT_name("GPIO23")
     817                      .dwattr $C$DW$71, DW_AT_TI_symbol_name("_GPIO23")
     818                      .dwattr $C$DW$71, DW_AT_bit_offset(0x00)
     819                      .dwattr $C$DW$71, DW_AT_bit_size(0x04)
     820                      .dwattr $C$DW$71, DW_AT_data_member_location[DW_OP_plus_uconst 0x1]
     821                      .dwattr $C$DW$71, DW_AT_accessibility(DW_ACCESS_public)
     822              
     823                      .dwendtag $C$DW$T$27
     824              
     825              
     826              $C$DW$T$28      .dwtag  DW_TAG_union_type
     827                      .dwattr $C$DW$T$28, DW_AT_name("GPACSEL3_REG")
     828                      .dwattr $C$DW$T$28, DW_AT_byte_size(0x02)
     829              $C$DW$72        .dwtag  DW_TAG_member
     830                      .dwattr $C$DW$72, DW_AT_type(*$C$DW$T$21)
     831                      .dwattr $C$DW$72, DW_AT_name("all")
     832                      .dwattr $C$DW$72, DW_AT_TI_symbol_name("_all")
     833                      .dwattr $C$DW$72, DW_AT_data_member_location[DW_OP_plus_uconst 0x0]
     834                      .dwattr $C$DW$72, DW_AT_accessibility(DW_ACCESS_public)
     835              
     836              $C$DW$73        .dwtag  DW_TAG_member
     837                      .dwattr $C$DW$73, DW_AT_type(*$C$DW$T$27)
     838                      .dwattr $C$DW$73, DW_AT_name("bit")
     839                      .dwattr $C$DW$73, DW_AT_TI_symbol_name("_bit")
     840                      .dwattr $C$DW$73, DW_AT_data_member_location[DW_OP_plus_uconst 0x0]
     841                      .dwattr $C$DW$73, DW_AT_accessibility(DW_ACCESS_public)
     842              
     843                      .dwendtag $C$DW$T$28
     844              
     845              
     846              $C$DW$T$29      .dwtag  DW_TAG_structure_type
     847                      .dwattr $C$DW$T$29, DW_AT_name("GPACSEL4_BITS")
     848                      .dwattr $C$DW$T$29, DW_AT_byte_size(0x02)
     849              $C$DW$74        .dwtag  DW_TAG_member
     850                      .dwattr $C$DW$74, DW_AT_type(*$C$DW$T$19)
     851                      .dwattr $C$DW$74, DW_AT_name("GPIO24")
     852                      .dwattr $C$DW$74, DW_AT_TI_symbol_name("_GPIO24")
     853                      .dwattr $C$DW$74, DW_AT_bit_offset(0x0c)
     854                      .dwattr $C$DW$74, DW_AT_bit_size(0x04)
TMS320C2000 Assembler PC v18.1.2 Fri Dec 14 17:55:34 2018

Tools Copyright (c) 1996-2017 Texas Instruments Incorporated
F2837xD_Spi.asm                                                      PAGE   17

     855                      .dwattr $C$DW$74, DW_AT_data_member_location[DW_OP_plus_uconst 0x0]
     856                      .dwattr $C$DW$74, DW_AT_accessibility(DW_ACCESS_public)
     857              
     858              $C$DW$75        .dwtag  DW_TAG_member
     859                      .dwattr $C$DW$75, DW_AT_type(*$C$DW$T$19)
     860                      .dwattr $C$DW$75, DW_AT_name("GPIO25")
     861                      .dwattr $C$DW$75, DW_AT_TI_symbol_name("_GPIO25")
     862                      .dwattr $C$DW$75, DW_AT_bit_offset(0x08)
     863                      .dwattr $C$DW$75, DW_AT_bit_size(0x04)
     864                      .dwattr $C$DW$75, DW_AT_data_member_location[DW_OP_plus_uconst 0x0]
     865                      .dwattr $C$DW$75, DW_AT_accessibility(DW_ACCESS_public)
     866              
     867              $C$DW$76        .dwtag  DW_TAG_member
     868                      .dwattr $C$DW$76, DW_AT_type(*$C$DW$T$19)
     869                      .dwattr $C$DW$76, DW_AT_name("GPIO26")
     870                      .dwattr $C$DW$76, DW_AT_TI_symbol_name("_GPIO26")
     871                      .dwattr $C$DW$76, DW_AT_bit_offset(0x04)
     872                      .dwattr $C$DW$76, DW_AT_bit_size(0x04)
     873                      .dwattr $C$DW$76, DW_AT_data_member_location[DW_OP_plus_uconst 0x0]
     874                      .dwattr $C$DW$76, DW_AT_accessibility(DW_ACCESS_public)
     875              
     876              $C$DW$77        .dwtag  DW_TAG_member
     877                      .dwattr $C$DW$77, DW_AT_type(*$C$DW$T$19)
     878                      .dwattr $C$DW$77, DW_AT_name("GPIO27")
     879                      .dwattr $C$DW$77, DW_AT_TI_symbol_name("_GPIO27")
     880                      .dwattr $C$DW$77, DW_AT_bit_offset(0x00)
     881                      .dwattr $C$DW$77, DW_AT_bit_size(0x04)
     882                      .dwattr $C$DW$77, DW_AT_data_member_location[DW_OP_plus_uconst 0x0]
     883                      .dwattr $C$DW$77, DW_AT_accessibility(DW_ACCESS_public)
     884              
     885              $C$DW$78        .dwtag  DW_TAG_member
     886                      .dwattr $C$DW$78, DW_AT_type(*$C$DW$T$19)
     887                      .dwattr $C$DW$78, DW_AT_name("GPIO28")
     888                      .dwattr $C$DW$78, DW_AT_TI_symbol_name("_GPIO28")
     889                      .dwattr $C$DW$78, DW_AT_bit_offset(0x0c)
     890                      .dwattr $C$DW$78, DW_AT_bit_size(0x04)
     891                      .dwattr $C$DW$78, DW_AT_data_member_location[DW_OP_plus_uconst 0x1]
     892                      .dwattr $C$DW$78, DW_AT_accessibility(DW_ACCESS_public)
     893              
     894              $C$DW$79        .dwtag  DW_TAG_member
     895                      .dwattr $C$DW$79, DW_AT_type(*$C$DW$T$19)
     896                      .dwattr $C$DW$79, DW_AT_name("GPIO29")
     897                      .dwattr $C$DW$79, DW_AT_TI_symbol_name("_GPIO29")
     898                      .dwattr $C$DW$79, DW_AT_bit_offset(0x08)
     899                      .dwattr $C$DW$79, DW_AT_bit_size(0x04)
     900                      .dwattr $C$DW$79, DW_AT_data_member_location[DW_OP_plus_uconst 0x1]
     901                      .dwattr $C$DW$79, DW_AT_accessibility(DW_ACCESS_public)
     902              
     903              $C$DW$80        .dwtag  DW_TAG_member
     904                      .dwattr $C$DW$80, DW_AT_type(*$C$DW$T$19)
     905                      .dwattr $C$DW$80, DW_AT_name("GPIO30")
     906                      .dwattr $C$DW$80, DW_AT_TI_symbol_name("_GPIO30")
     907                      .dwattr $C$DW$80, DW_AT_bit_offset(0x04)
     908                      .dwattr $C$DW$80, DW_AT_bit_size(0x04)
     909                      .dwattr $C$DW$80, DW_AT_data_member_location[DW_OP_plus_uconst 0x1]
TMS320C2000 Assembler PC v18.1.2 Fri Dec 14 17:55:34 2018

Tools Copyright (c) 1996-2017 Texas Instruments Incorporated
F2837xD_Spi.asm                                                      PAGE   18

     910                      .dwattr $C$DW$80, DW_AT_accessibility(DW_ACCESS_public)
     911              
     912              $C$DW$81        .dwtag  DW_TAG_member
     913                      .dwattr $C$DW$81, DW_AT_type(*$C$DW$T$19)
     914                      .dwattr $C$DW$81, DW_AT_name("GPIO31")
     915                      .dwattr $C$DW$81, DW_AT_TI_symbol_name("_GPIO31")
     916                      .dwattr $C$DW$81, DW_AT_bit_offset(0x00)
     917                      .dwattr $C$DW$81, DW_AT_bit_size(0x04)
     918                      .dwattr $C$DW$81, DW_AT_data_member_location[DW_OP_plus_uconst 0x1]
     919                      .dwattr $C$DW$81, DW_AT_accessibility(DW_ACCESS_public)
     920              
     921                      .dwendtag $C$DW$T$29
     922              
     923              
     924              $C$DW$T$30      .dwtag  DW_TAG_union_type
     925                      .dwattr $C$DW$T$30, DW_AT_name("GPACSEL4_REG")
     926                      .dwattr $C$DW$T$30, DW_AT_byte_size(0x02)
     927              $C$DW$82        .dwtag  DW_TAG_member
     928                      .dwattr $C$DW$82, DW_AT_type(*$C$DW$T$21)
     929                      .dwattr $C$DW$82, DW_AT_name("all")
     930                      .dwattr $C$DW$82, DW_AT_TI_symbol_name("_all")
     931                      .dwattr $C$DW$82, DW_AT_data_member_location[DW_OP_plus_uconst 0x0]
     932                      .dwattr $C$DW$82, DW_AT_accessibility(DW_ACCESS_public)
     933              
     934              $C$DW$83        .dwtag  DW_TAG_member
     935                      .dwattr $C$DW$83, DW_AT_type(*$C$DW$T$29)
     936                      .dwattr $C$DW$83, DW_AT_name("bit")
     937                      .dwattr $C$DW$83, DW_AT_TI_symbol_name("_bit")
     938                      .dwattr $C$DW$83, DW_AT_data_member_location[DW_OP_plus_uconst 0x0]
     939                      .dwattr $C$DW$83, DW_AT_accessibility(DW_ACCESS_public)
     940              
     941                      .dwendtag $C$DW$T$30
     942              
     943              
     944              $C$DW$T$31      .dwtag  DW_TAG_structure_type
     945                      .dwattr $C$DW$T$31, DW_AT_name("GPACTRL_BITS")
     946                      .dwattr $C$DW$T$31, DW_AT_byte_size(0x02)
     947              $C$DW$84        .dwtag  DW_TAG_member
     948                      .dwattr $C$DW$84, DW_AT_type(*$C$DW$T$19)
     949                      .dwattr $C$DW$84, DW_AT_name("QUALPRD0")
     950                      .dwattr $C$DW$84, DW_AT_TI_symbol_name("_QUALPRD0")
     951                      .dwattr $C$DW$84, DW_AT_bit_offset(0x08)
     952                      .dwattr $C$DW$84, DW_AT_bit_size(0x08)
     953                      .dwattr $C$DW$84, DW_AT_data_member_location[DW_OP_plus_uconst 0x0]
     954                      .dwattr $C$DW$84, DW_AT_accessibility(DW_ACCESS_public)
     955              
     956              $C$DW$85        .dwtag  DW_TAG_member
     957                      .dwattr $C$DW$85, DW_AT_type(*$C$DW$T$19)
     958                      .dwattr $C$DW$85, DW_AT_name("QUALPRD1")
     959                      .dwattr $C$DW$85, DW_AT_TI_symbol_name("_QUALPRD1")
     960                      .dwattr $C$DW$85, DW_AT_bit_offset(0x00)
     961                      .dwattr $C$DW$85, DW_AT_bit_size(0x08)
     962                      .dwattr $C$DW$85, DW_AT_data_member_location[DW_OP_plus_uconst 0x0]
     963                      .dwattr $C$DW$85, DW_AT_accessibility(DW_ACCESS_public)
     964              
TMS320C2000 Assembler PC v18.1.2 Fri Dec 14 17:55:34 2018

Tools Copyright (c) 1996-2017 Texas Instruments Incorporated
F2837xD_Spi.asm                                                      PAGE   19

     965              $C$DW$86        .dwtag  DW_TAG_member
     966                      .dwattr $C$DW$86, DW_AT_type(*$C$DW$T$19)
     967                      .dwattr $C$DW$86, DW_AT_name("QUALPRD2")
     968                      .dwattr $C$DW$86, DW_AT_TI_symbol_name("_QUALPRD2")
     969                      .dwattr $C$DW$86, DW_AT_bit_offset(0x08)
     970                      .dwattr $C$DW$86, DW_AT_bit_size(0x08)
     971                      .dwattr $C$DW$86, DW_AT_data_member_location[DW_OP_plus_uconst 0x1]
     972                      .dwattr $C$DW$86, DW_AT_accessibility(DW_ACCESS_public)
     973              
     974              $C$DW$87        .dwtag  DW_TAG_member
     975                      .dwattr $C$DW$87, DW_AT_type(*$C$DW$T$19)
     976                      .dwattr $C$DW$87, DW_AT_name("QUALPRD3")
     977                      .dwattr $C$DW$87, DW_AT_TI_symbol_name("_QUALPRD3")
     978                      .dwattr $C$DW$87, DW_AT_bit_offset(0x00)
     979                      .dwattr $C$DW$87, DW_AT_bit_size(0x08)
     980                      .dwattr $C$DW$87, DW_AT_data_member_location[DW_OP_plus_uconst 0x1]
     981                      .dwattr $C$DW$87, DW_AT_accessibility(DW_ACCESS_public)
     982              
     983                      .dwendtag $C$DW$T$31
     984              
     985              
     986              $C$DW$T$32      .dwtag  DW_TAG_union_type
     987                      .dwattr $C$DW$T$32, DW_AT_name("GPACTRL_REG")
     988                      .dwattr $C$DW$T$32, DW_AT_byte_size(0x02)
     989              $C$DW$88        .dwtag  DW_TAG_member
     990                      .dwattr $C$DW$88, DW_AT_type(*$C$DW$T$21)
     991                      .dwattr $C$DW$88, DW_AT_name("all")
     992                      .dwattr $C$DW$88, DW_AT_TI_symbol_name("_all")
     993                      .dwattr $C$DW$88, DW_AT_data_member_location[DW_OP_plus_uconst 0x0]
     994                      .dwattr $C$DW$88, DW_AT_accessibility(DW_ACCESS_public)
     995              
     996              $C$DW$89        .dwtag  DW_TAG_member
     997                      .dwattr $C$DW$89, DW_AT_type(*$C$DW$T$31)
     998                      .dwattr $C$DW$89, DW_AT_name("bit")
     999                      .dwattr $C$DW$89, DW_AT_TI_symbol_name("_bit")
    1000                      .dwattr $C$DW$89, DW_AT_data_member_location[DW_OP_plus_uconst 0x0]
    1001                      .dwattr $C$DW$89, DW_AT_accessibility(DW_ACCESS_public)
    1002              
    1003                      .dwendtag $C$DW$T$32
    1004              
    1005              
    1006              $C$DW$T$33      .dwtag  DW_TAG_structure_type
    1007                      .dwattr $C$DW$T$33, DW_AT_name("GPADIR_BITS")
    1008                      .dwattr $C$DW$T$33, DW_AT_byte_size(0x02)
    1009              $C$DW$90        .dwtag  DW_TAG_member
    1010                      .dwattr $C$DW$90, DW_AT_type(*$C$DW$T$19)
    1011                      .dwattr $C$DW$90, DW_AT_name("GPIO0")
    1012                      .dwattr $C$DW$90, DW_AT_TI_symbol_name("_GPIO0")
    1013                      .dwattr $C$DW$90, DW_AT_bit_offset(0x0f)
    1014                      .dwattr $C$DW$90, DW_AT_bit_size(0x01)
    1015                      .dwattr $C$DW$90, DW_AT_data_member_location[DW_OP_plus_uconst 0x0]
    1016                      .dwattr $C$DW$90, DW_AT_accessibility(DW_ACCESS_public)
    1017              
    1018              $C$DW$91        .dwtag  DW_TAG_member
    1019                      .dwattr $C$DW$91, DW_AT_type(*$C$DW$T$19)
TMS320C2000 Assembler PC v18.1.2 Fri Dec 14 17:55:34 2018

Tools Copyright (c) 1996-2017 Texas Instruments Incorporated
F2837xD_Spi.asm                                                      PAGE   20

    1020                      .dwattr $C$DW$91, DW_AT_name("GPIO1")
    1021                      .dwattr $C$DW$91, DW_AT_TI_symbol_name("_GPIO1")
    1022                      .dwattr $C$DW$91, DW_AT_bit_offset(0x0e)
    1023                      .dwattr $C$DW$91, DW_AT_bit_size(0x01)
    1024                      .dwattr $C$DW$91, DW_AT_data_member_location[DW_OP_plus_uconst 0x0]
    1025                      .dwattr $C$DW$91, DW_AT_accessibility(DW_ACCESS_public)
    1026              
    1027              $C$DW$92        .dwtag  DW_TAG_member
    1028                      .dwattr $C$DW$92, DW_AT_type(*$C$DW$T$19)
    1029                      .dwattr $C$DW$92, DW_AT_name("GPIO2")
    1030                      .dwattr $C$DW$92, DW_AT_TI_symbol_name("_GPIO2")
    1031                      .dwattr $C$DW$92, DW_AT_bit_offset(0x0d)
    1032                      .dwattr $C$DW$92, DW_AT_bit_size(0x01)
    1033                      .dwattr $C$DW$92, DW_AT_data_member_location[DW_OP_plus_uconst 0x0]
    1034                      .dwattr $C$DW$92, DW_AT_accessibility(DW_ACCESS_public)
    1035              
    1036              $C$DW$93        .dwtag  DW_TAG_member
    1037                      .dwattr $C$DW$93, DW_AT_type(*$C$DW$T$19)
    1038                      .dwattr $C$DW$93, DW_AT_name("GPIO3")
    1039                      .dwattr $C$DW$93, DW_AT_TI_symbol_name("_GPIO3")
    1040                      .dwattr $C$DW$93, DW_AT_bit_offset(0x0c)
    1041                      .dwattr $C$DW$93, DW_AT_bit_size(0x01)
    1042                      .dwattr $C$DW$93, DW_AT_data_member_location[DW_OP_plus_uconst 0x0]
    1043                      .dwattr $C$DW$93, DW_AT_accessibility(DW_ACCESS_public)
    1044              
    1045              $C$DW$94        .dwtag  DW_TAG_member
    1046                      .dwattr $C$DW$94, DW_AT_type(*$C$DW$T$19)
    1047                      .dwattr $C$DW$94, DW_AT_name("GPIO4")
    1048                      .dwattr $C$DW$94, DW_AT_TI_symbol_name("_GPIO4")
    1049                      .dwattr $C$DW$94, DW_AT_bit_offset(0x0b)
    1050                      .dwattr $C$DW$94, DW_AT_bit_size(0x01)
    1051                      .dwattr $C$DW$94, DW_AT_data_member_location[DW_OP_plus_uconst 0x0]
    1052                      .dwattr $C$DW$94, DW_AT_accessibility(DW_ACCESS_public)
    1053              
    1054              $C$DW$95        .dwtag  DW_TAG_member
    1055                      .dwattr $C$DW$95, DW_AT_type(*$C$DW$T$19)
    1056                      .dwattr $C$DW$95, DW_AT_name("GPIO5")
    1057                      .dwattr $C$DW$95, DW_AT_TI_symbol_name("_GPIO5")
    1058                      .dwattr $C$DW$95, DW_AT_bit_offset(0x0a)
    1059                      .dwattr $C$DW$95, DW_AT_bit_size(0x01)
    1060                      .dwattr $C$DW$95, DW_AT_data_member_location[DW_OP_plus_uconst 0x0]
    1061                      .dwattr $C$DW$95, DW_AT_accessibility(DW_ACCESS_public)
    1062              
    1063              $C$DW$96        .dwtag  DW_TAG_member
    1064                      .dwattr $C$DW$96, DW_AT_type(*$C$DW$T$19)
    1065                      .dwattr $C$DW$96, DW_AT_name("GPIO6")
    1066                      .dwattr $C$DW$96, DW_AT_TI_symbol_name("_GPIO6")
    1067                      .dwattr $C$DW$96, DW_AT_bit_offset(0x09)
    1068                      .dwattr $C$DW$96, DW_AT_bit_size(0x01)
    1069                      .dwattr $C$DW$96, DW_AT_data_member_location[DW_OP_plus_uconst 0x0]
    1070                      .dwattr $C$DW$96, DW_AT_accessibility(DW_ACCESS_public)
    1071              
    1072              $C$DW$97        .dwtag  DW_TAG_member
    1073                      .dwattr $C$DW$97, DW_AT_type(*$C$DW$T$19)
    1074                      .dwattr $C$DW$97, DW_AT_name("GPIO7")
TMS320C2000 Assembler PC v18.1.2 Fri Dec 14 17:55:34 2018

Tools Copyright (c) 1996-2017 Texas Instruments Incorporated
F2837xD_Spi.asm                                                      PAGE   21

    1075                      .dwattr $C$DW$97, DW_AT_TI_symbol_name("_GPIO7")
    1076                      .dwattr $C$DW$97, DW_AT_bit_offset(0x08)
    1077                      .dwattr $C$DW$97, DW_AT_bit_size(0x01)
    1078                      .dwattr $C$DW$97, DW_AT_data_member_location[DW_OP_plus_uconst 0x0]
    1079                      .dwattr $C$DW$97, DW_AT_accessibility(DW_ACCESS_public)
    1080              
    1081              $C$DW$98        .dwtag  DW_TAG_member
    1082                      .dwattr $C$DW$98, DW_AT_type(*$C$DW$T$19)
    1083                      .dwattr $C$DW$98, DW_AT_name("GPIO8")
    1084                      .dwattr $C$DW$98, DW_AT_TI_symbol_name("_GPIO8")
    1085                      .dwattr $C$DW$98, DW_AT_bit_offset(0x07)
    1086                      .dwattr $C$DW$98, DW_AT_bit_size(0x01)
    1087                      .dwattr $C$DW$98, DW_AT_data_member_location[DW_OP_plus_uconst 0x0]
    1088                      .dwattr $C$DW$98, DW_AT_accessibility(DW_ACCESS_public)
    1089              
    1090              $C$DW$99        .dwtag  DW_TAG_member
    1091                      .dwattr $C$DW$99, DW_AT_type(*$C$DW$T$19)
    1092                      .dwattr $C$DW$99, DW_AT_name("GPIO9")
    1093                      .dwattr $C$DW$99, DW_AT_TI_symbol_name("_GPIO9")
    1094                      .dwattr $C$DW$99, DW_AT_bit_offset(0x06)
    1095                      .dwattr $C$DW$99, DW_AT_bit_size(0x01)
    1096                      .dwattr $C$DW$99, DW_AT_data_member_location[DW_OP_plus_uconst 0x0]
    1097                      .dwattr $C$DW$99, DW_AT_accessibility(DW_ACCESS_public)
    1098              
    1099              $C$DW$100       .dwtag  DW_TAG_member
    1100                      .dwattr $C$DW$100, DW_AT_type(*$C$DW$T$19)
    1101                      .dwattr $C$DW$100, DW_AT_name("GPIO10")
    1102                      .dwattr $C$DW$100, DW_AT_TI_symbol_name("_GPIO10")
    1103                      .dwattr $C$DW$100, DW_AT_bit_offset(0x05)
    1104                      .dwattr $C$DW$100, DW_AT_bit_size(0x01)
    1105                      .dwattr $C$DW$100, DW_AT_data_member_location[DW_OP_plus_uconst 0x0]
    1106                      .dwattr $C$DW$100, DW_AT_accessibility(DW_ACCESS_public)
    1107              
    1108              $C$DW$101       .dwtag  DW_TAG_member
    1109                      .dwattr $C$DW$101, DW_AT_type(*$C$DW$T$19)
    1110                      .dwattr $C$DW$101, DW_AT_name("GPIO11")
    1111                      .dwattr $C$DW$101, DW_AT_TI_symbol_name("_GPIO11")
    1112                      .dwattr $C$DW$101, DW_AT_bit_offset(0x04)
    1113                      .dwattr $C$DW$101, DW_AT_bit_size(0x01)
    1114                      .dwattr $C$DW$101, DW_AT_data_member_location[DW_OP_plus_uconst 0x0]
    1115                      .dwattr $C$DW$101, DW_AT_accessibility(DW_ACCESS_public)
    1116              
    1117              $C$DW$102       .dwtag  DW_TAG_member
    1118                      .dwattr $C$DW$102, DW_AT_type(*$C$DW$T$19)
    1119                      .dwattr $C$DW$102, DW_AT_name("GPIO12")
    1120                      .dwattr $C$DW$102, DW_AT_TI_symbol_name("_GPIO12")
    1121                      .dwattr $C$DW$102, DW_AT_bit_offset(0x03)
    1122                      .dwattr $C$DW$102, DW_AT_bit_size(0x01)
    1123                      .dwattr $C$DW$102, DW_AT_data_member_location[DW_OP_plus_uconst 0x0]
    1124                      .dwattr $C$DW$102, DW_AT_accessibility(DW_ACCESS_public)
    1125              
    1126              $C$DW$103       .dwtag  DW_TAG_member
    1127                      .dwattr $C$DW$103, DW_AT_type(*$C$DW$T$19)
    1128                      .dwattr $C$DW$103, DW_AT_name("GPIO13")
    1129                      .dwattr $C$DW$103, DW_AT_TI_symbol_name("_GPIO13")
TMS320C2000 Assembler PC v18.1.2 Fri Dec 14 17:55:34 2018

Tools Copyright (c) 1996-2017 Texas Instruments Incorporated
F2837xD_Spi.asm                                                      PAGE   22

    1130                      .dwattr $C$DW$103, DW_AT_bit_offset(0x02)
    1131                      .dwattr $C$DW$103, DW_AT_bit_size(0x01)
    1132                      .dwattr $C$DW$103, DW_AT_data_member_location[DW_OP_plus_uconst 0x0]
    1133                      .dwattr $C$DW$103, DW_AT_accessibility(DW_ACCESS_public)
    1134              
    1135              $C$DW$104       .dwtag  DW_TAG_member
    1136                      .dwattr $C$DW$104, DW_AT_type(*$C$DW$T$19)
    1137                      .dwattr $C$DW$104, DW_AT_name("GPIO14")
    1138                      .dwattr $C$DW$104, DW_AT_TI_symbol_name("_GPIO14")
    1139                      .dwattr $C$DW$104, DW_AT_bit_offset(0x01)
    1140                      .dwattr $C$DW$104, DW_AT_bit_size(0x01)
    1141                      .dwattr $C$DW$104, DW_AT_data_member_location[DW_OP_plus_uconst 0x0]
    1142                      .dwattr $C$DW$104, DW_AT_accessibility(DW_ACCESS_public)
    1143              
    1144              $C$DW$105       .dwtag  DW_TAG_member
    1145                      .dwattr $C$DW$105, DW_AT_type(*$C$DW$T$19)
    1146                      .dwattr $C$DW$105, DW_AT_name("GPIO15")
    1147                      .dwattr $C$DW$105, DW_AT_TI_symbol_name("_GPIO15")
    1148                      .dwattr $C$DW$105, DW_AT_bit_offset(0x00)
    1149                      .dwattr $C$DW$105, DW_AT_bit_size(0x01)
    1150                      .dwattr $C$DW$105, DW_AT_data_member_location[DW_OP_plus_uconst 0x0]
    1151                      .dwattr $C$DW$105, DW_AT_accessibility(DW_ACCESS_public)
    1152              
    1153              $C$DW$106       .dwtag  DW_TAG_member
    1154                      .dwattr $C$DW$106, DW_AT_type(*$C$DW$T$19)
    1155                      .dwattr $C$DW$106, DW_AT_name("GPIO16")
    1156                      .dwattr $C$DW$106, DW_AT_TI_symbol_name("_GPIO16")
    1157                      .dwattr $C$DW$106, DW_AT_bit_offset(0x0f)
    1158                      .dwattr $C$DW$106, DW_AT_bit_size(0x01)
    1159                      .dwattr $C$DW$106, DW_AT_data_member_location[DW_OP_plus_uconst 0x1]
    1160                      .dwattr $C$DW$106, DW_AT_accessibility(DW_ACCESS_public)
    1161              
    1162              $C$DW$107       .dwtag  DW_TAG_member
    1163                      .dwattr $C$DW$107, DW_AT_type(*$C$DW$T$19)
    1164                      .dwattr $C$DW$107, DW_AT_name("GPIO17")
    1165                      .dwattr $C$DW$107, DW_AT_TI_symbol_name("_GPIO17")
    1166                      .dwattr $C$DW$107, DW_AT_bit_offset(0x0e)
    1167                      .dwattr $C$DW$107, DW_AT_bit_size(0x01)
    1168                      .dwattr $C$DW$107, DW_AT_data_member_location[DW_OP_plus_uconst 0x1]
    1169                      .dwattr $C$DW$107, DW_AT_accessibility(DW_ACCESS_public)
    1170              
    1171              $C$DW$108       .dwtag  DW_TAG_member
    1172                      .dwattr $C$DW$108, DW_AT_type(*$C$DW$T$19)
    1173                      .dwattr $C$DW$108, DW_AT_name("GPIO18")
    1174                      .dwattr $C$DW$108, DW_AT_TI_symbol_name("_GPIO18")
    1175                      .dwattr $C$DW$108, DW_AT_bit_offset(0x0d)
    1176                      .dwattr $C$DW$108, DW_AT_bit_size(0x01)
    1177                      .dwattr $C$DW$108, DW_AT_data_member_location[DW_OP_plus_uconst 0x1]
    1178                      .dwattr $C$DW$108, DW_AT_accessibility(DW_ACCESS_public)
    1179              
    1180              $C$DW$109       .dwtag  DW_TAG_member
    1181                      .dwattr $C$DW$109, DW_AT_type(*$C$DW$T$19)
    1182                      .dwattr $C$DW$109, DW_AT_name("GPIO19")
    1183                      .dwattr $C$DW$109, DW_AT_TI_symbol_name("_GPIO19")
    1184                      .dwattr $C$DW$109, DW_AT_bit_offset(0x0c)
TMS320C2000 Assembler PC v18.1.2 Fri Dec 14 17:55:34 2018

Tools Copyright (c) 1996-2017 Texas Instruments Incorporated
F2837xD_Spi.asm                                                      PAGE   23

    1185                      .dwattr $C$DW$109, DW_AT_bit_size(0x01)
    1186                      .dwattr $C$DW$109, DW_AT_data_member_location[DW_OP_plus_uconst 0x1]
    1187                      .dwattr $C$DW$109, DW_AT_accessibility(DW_ACCESS_public)
    1188              
    1189              $C$DW$110       .dwtag  DW_TAG_member
    1190                      .dwattr $C$DW$110, DW_AT_type(*$C$DW$T$19)
    1191                      .dwattr $C$DW$110, DW_AT_name("GPIO20")
    1192                      .dwattr $C$DW$110, DW_AT_TI_symbol_name("_GPIO20")
    1193                      .dwattr $C$DW$110, DW_AT_bit_offset(0x0b)
    1194                      .dwattr $C$DW$110, DW_AT_bit_size(0x01)
    1195                      .dwattr $C$DW$110, DW_AT_data_member_location[DW_OP_plus_uconst 0x1]
    1196                      .dwattr $C$DW$110, DW_AT_accessibility(DW_ACCESS_public)
    1197              
    1198              $C$DW$111       .dwtag  DW_TAG_member
    1199                      .dwattr $C$DW$111, DW_AT_type(*$C$DW$T$19)
    1200                      .dwattr $C$DW$111, DW_AT_name("GPIO21")
    1201                      .dwattr $C$DW$111, DW_AT_TI_symbol_name("_GPIO21")
    1202                      .dwattr $C$DW$111, DW_AT_bit_offset(0x0a)
    1203                      .dwattr $C$DW$111, DW_AT_bit_size(0x01)
    1204                      .dwattr $C$DW$111, DW_AT_data_member_location[DW_OP_plus_uconst 0x1]
    1205                      .dwattr $C$DW$111, DW_AT_accessibility(DW_ACCESS_public)
    1206              
    1207              $C$DW$112       .dwtag  DW_TAG_member
    1208                      .dwattr $C$DW$112, DW_AT_type(*$C$DW$T$19)
    1209                      .dwattr $C$DW$112, DW_AT_name("GPIO22")
    1210                      .dwattr $C$DW$112, DW_AT_TI_symbol_name("_GPIO22")
    1211                      .dwattr $C$DW$112, DW_AT_bit_offset(0x09)
    1212                      .dwattr $C$DW$112, DW_AT_bit_size(0x01)
    1213                      .dwattr $C$DW$112, DW_AT_data_member_location[DW_OP_plus_uconst 0x1]
    1214                      .dwattr $C$DW$112, DW_AT_accessibility(DW_ACCESS_public)
    1215              
    1216              $C$DW$113       .dwtag  DW_TAG_member
    1217                      .dwattr $C$DW$113, DW_AT_type(*$C$DW$T$19)
    1218                      .dwattr $C$DW$113, DW_AT_name("GPIO23")
    1219                      .dwattr $C$DW$113, DW_AT_TI_symbol_name("_GPIO23")
    1220                      .dwattr $C$DW$113, DW_AT_bit_offset(0x08)
    1221                      .dwattr $C$DW$113, DW_AT_bit_size(0x01)
    1222                      .dwattr $C$DW$113, DW_AT_data_member_location[DW_OP_plus_uconst 0x1]
    1223                      .dwattr $C$DW$113, DW_AT_accessibility(DW_ACCESS_public)
    1224              
    1225              $C$DW$114       .dwtag  DW_TAG_member
    1226                      .dwattr $C$DW$114, DW_AT_type(*$C$DW$T$19)
    1227                      .dwattr $C$DW$114, DW_AT_name("GPIO24")
    1228                      .dwattr $C$DW$114, DW_AT_TI_symbol_name("_GPIO24")
    1229                      .dwattr $C$DW$114, DW_AT_bit_offset(0x07)
    1230                      .dwattr $C$DW$114, DW_AT_bit_size(0x01)
    1231                      .dwattr $C$DW$114, DW_AT_data_member_location[DW_OP_plus_uconst 0x1]
    1232                      .dwattr $C$DW$114, DW_AT_accessibility(DW_ACCESS_public)
    1233              
    1234              $C$DW$115       .dwtag  DW_TAG_member
    1235                      .dwattr $C$DW$115, DW_AT_type(*$C$DW$T$19)
    1236                      .dwattr $C$DW$115, DW_AT_name("GPIO25")
    1237                      .dwattr $C$DW$115, DW_AT_TI_symbol_name("_GPIO25")
    1238                      .dwattr $C$DW$115, DW_AT_bit_offset(0x06)
    1239                      .dwattr $C$DW$115, DW_AT_bit_size(0x01)
TMS320C2000 Assembler PC v18.1.2 Fri Dec 14 17:55:34 2018

Tools Copyright (c) 1996-2017 Texas Instruments Incorporated
F2837xD_Spi.asm                                                      PAGE   24

    1240                      .dwattr $C$DW$115, DW_AT_data_member_location[DW_OP_plus_uconst 0x1]
    1241                      .dwattr $C$DW$115, DW_AT_accessibility(DW_ACCESS_public)
    1242              
    1243              $C$DW$116       .dwtag  DW_TAG_member
    1244                      .dwattr $C$DW$116, DW_AT_type(*$C$DW$T$19)
    1245                      .dwattr $C$DW$116, DW_AT_name("GPIO26")
    1246                      .dwattr $C$DW$116, DW_AT_TI_symbol_name("_GPIO26")
    1247                      .dwattr $C$DW$116, DW_AT_bit_offset(0x05)
    1248                      .dwattr $C$DW$116, DW_AT_bit_size(0x01)
    1249                      .dwattr $C$DW$116, DW_AT_data_member_location[DW_OP_plus_uconst 0x1]
    1250                      .dwattr $C$DW$116, DW_AT_accessibility(DW_ACCESS_public)
    1251              
    1252              $C$DW$117       .dwtag  DW_TAG_member
    1253                      .dwattr $C$DW$117, DW_AT_type(*$C$DW$T$19)
    1254                      .dwattr $C$DW$117, DW_AT_name("GPIO27")
    1255                      .dwattr $C$DW$117, DW_AT_TI_symbol_name("_GPIO27")
    1256                      .dwattr $C$DW$117, DW_AT_bit_offset(0x04)
    1257                      .dwattr $C$DW$117, DW_AT_bit_size(0x01)
    1258                      .dwattr $C$DW$117, DW_AT_data_member_location[DW_OP_plus_uconst 0x1]
    1259                      .dwattr $C$DW$117, DW_AT_accessibility(DW_ACCESS_public)
    1260              
    1261              $C$DW$118       .dwtag  DW_TAG_member
    1262                      .dwattr $C$DW$118, DW_AT_type(*$C$DW$T$19)
    1263                      .dwattr $C$DW$118, DW_AT_name("GPIO28")
    1264                      .dwattr $C$DW$118, DW_AT_TI_symbol_name("_GPIO28")
    1265                      .dwattr $C$DW$118, DW_AT_bit_offset(0x03)
    1266                      .dwattr $C$DW$118, DW_AT_bit_size(0x01)
    1267                      .dwattr $C$DW$118, DW_AT_data_member_location[DW_OP_plus_uconst 0x1]
    1268                      .dwattr $C$DW$118, DW_AT_accessibility(DW_ACCESS_public)
    1269              
    1270              $C$DW$119       .dwtag  DW_TAG_member
    1271                      .dwattr $C$DW$119, DW_AT_type(*$C$DW$T$19)
    1272                      .dwattr $C$DW$119, DW_AT_name("GPIO29")
    1273                      .dwattr $C$DW$119, DW_AT_TI_symbol_name("_GPIO29")
    1274                      .dwattr $C$DW$119, DW_AT_bit_offset(0x02)
    1275                      .dwattr $C$DW$119, DW_AT_bit_size(0x01)
    1276                      .dwattr $C$DW$119, DW_AT_data_member_location[DW_OP_plus_uconst 0x1]
    1277                      .dwattr $C$DW$119, DW_AT_accessibility(DW_ACCESS_public)
    1278              
    1279              $C$DW$120       .dwtag  DW_TAG_member
    1280                      .dwattr $C$DW$120, DW_AT_type(*$C$DW$T$19)
    1281                      .dwattr $C$DW$120, DW_AT_name("GPIO30")
    1282                      .dwattr $C$DW$120, DW_AT_TI_symbol_name("_GPIO30")
    1283                      .dwattr $C$DW$120, DW_AT_bit_offset(0x01)
    1284                      .dwattr $C$DW$120, DW_AT_bit_size(0x01)
    1285                      .dwattr $C$DW$120, DW_AT_data_member_location[DW_OP_plus_uconst 0x1]
    1286                      .dwattr $C$DW$120, DW_AT_accessibility(DW_ACCESS_public)
    1287              
    1288              $C$DW$121       .dwtag  DW_TAG_member
    1289                      .dwattr $C$DW$121, DW_AT_type(*$C$DW$T$19)
    1290                      .dwattr $C$DW$121, DW_AT_name("GPIO31")
    1291                      .dwattr $C$DW$121, DW_AT_TI_symbol_name("_GPIO31")
    1292                      .dwattr $C$DW$121, DW_AT_bit_offset(0x00)
    1293                      .dwattr $C$DW$121, DW_AT_bit_size(0x01)
    1294                      .dwattr $C$DW$121, DW_AT_data_member_location[DW_OP_plus_uconst 0x1]
TMS320C2000 Assembler PC v18.1.2 Fri Dec 14 17:55:34 2018

Tools Copyright (c) 1996-2017 Texas Instruments Incorporated
F2837xD_Spi.asm                                                      PAGE   25

    1295                      .dwattr $C$DW$121, DW_AT_accessibility(DW_ACCESS_public)
    1296              
    1297                      .dwendtag $C$DW$T$33
    1298              
    1299              
    1300              $C$DW$T$34      .dwtag  DW_TAG_union_type
    1301                      .dwattr $C$DW$T$34, DW_AT_name("GPADIR_REG")
    1302                      .dwattr $C$DW$T$34, DW_AT_byte_size(0x02)
    1303              $C$DW$122       .dwtag  DW_TAG_member
    1304                      .dwattr $C$DW$122, DW_AT_type(*$C$DW$T$21)
    1305                      .dwattr $C$DW$122, DW_AT_name("all")
    1306                      .dwattr $C$DW$122, DW_AT_TI_symbol_name("_all")
    1307                      .dwattr $C$DW$122, DW_AT_data_member_location[DW_OP_plus_uconst 0x0]
    1308                      .dwattr $C$DW$122, DW_AT_accessibility(DW_ACCESS_public)
    1309              
    1310              $C$DW$123       .dwtag  DW_TAG_member
    1311                      .dwattr $C$DW$123, DW_AT_type(*$C$DW$T$33)
    1312                      .dwattr $C$DW$123, DW_AT_name("bit")
    1313                      .dwattr $C$DW$123, DW_AT_TI_symbol_name("_bit")
    1314                      .dwattr $C$DW$123, DW_AT_data_member_location[DW_OP_plus_uconst 0x0]
    1315                      .dwattr $C$DW$123, DW_AT_accessibility(DW_ACCESS_public)
    1316              
    1317                      .dwendtag $C$DW$T$34
    1318              
    1319              
    1320              $C$DW$T$35      .dwtag  DW_TAG_structure_type
    1321                      .dwattr $C$DW$T$35, DW_AT_name("GPAGMUX1_BITS")
    1322                      .dwattr $C$DW$T$35, DW_AT_byte_size(0x02)
    1323              $C$DW$124       .dwtag  DW_TAG_member
    1324                      .dwattr $C$DW$124, DW_AT_type(*$C$DW$T$19)
    1325                      .dwattr $C$DW$124, DW_AT_name("GPIO0")
    1326                      .dwattr $C$DW$124, DW_AT_TI_symbol_name("_GPIO0")
    1327                      .dwattr $C$DW$124, DW_AT_bit_offset(0x0e)
    1328                      .dwattr $C$DW$124, DW_AT_bit_size(0x02)
    1329                      .dwattr $C$DW$124, DW_AT_data_member_location[DW_OP_plus_uconst 0x0]
    1330                      .dwattr $C$DW$124, DW_AT_accessibility(DW_ACCESS_public)
    1331              
    1332              $C$DW$125       .dwtag  DW_TAG_member
    1333                      .dwattr $C$DW$125, DW_AT_type(*$C$DW$T$19)
    1334                      .dwattr $C$DW$125, DW_AT_name("GPIO1")
    1335                      .dwattr $C$DW$125, DW_AT_TI_symbol_name("_GPIO1")
    1336                      .dwattr $C$DW$125, DW_AT_bit_offset(0x0c)
    1337                      .dwattr $C$DW$125, DW_AT_bit_size(0x02)
    1338                      .dwattr $C$DW$125, DW_AT_data_member_location[DW_OP_plus_uconst 0x0]
    1339                      .dwattr $C$DW$125, DW_AT_accessibility(DW_ACCESS_public)
    1340              
    1341              $C$DW$126       .dwtag  DW_TAG_member
    1342                      .dwattr $C$DW$126, DW_AT_type(*$C$DW$T$19)
    1343                      .dwattr $C$DW$126, DW_AT_name("GPIO2")
    1344                      .dwattr $C$DW$126, DW_AT_TI_symbol_name("_GPIO2")
    1345                      .dwattr $C$DW$126, DW_AT_bit_offset(0x0a)
    1346                      .dwattr $C$DW$126, DW_AT_bit_size(0x02)
    1347                      .dwattr $C$DW$126, DW_AT_data_member_location[DW_OP_plus_uconst 0x0]
    1348                      .dwattr $C$DW$126, DW_AT_accessibility(DW_ACCESS_public)
    1349              
TMS320C2000 Assembler PC v18.1.2 Fri Dec 14 17:55:34 2018

Tools Copyright (c) 1996-2017 Texas Instruments Incorporated
F2837xD_Spi.asm                                                      PAGE   26

    1350              $C$DW$127       .dwtag  DW_TAG_member
    1351                      .dwattr $C$DW$127, DW_AT_type(*$C$DW$T$19)
    1352                      .dwattr $C$DW$127, DW_AT_name("GPIO3")
    1353                      .dwattr $C$DW$127, DW_AT_TI_symbol_name("_GPIO3")
    1354                      .dwattr $C$DW$127, DW_AT_bit_offset(0x08)
    1355                      .dwattr $C$DW$127, DW_AT_bit_size(0x02)
    1356                      .dwattr $C$DW$127, DW_AT_data_member_location[DW_OP_plus_uconst 0x0]
    1357                      .dwattr $C$DW$127, DW_AT_accessibility(DW_ACCESS_public)
    1358              
    1359              $C$DW$128       .dwtag  DW_TAG_member
    1360                      .dwattr $C$DW$128, DW_AT_type(*$C$DW$T$19)
    1361                      .dwattr $C$DW$128, DW_AT_name("GPIO4")
    1362                      .dwattr $C$DW$128, DW_AT_TI_symbol_name("_GPIO4")
    1363                      .dwattr $C$DW$128, DW_AT_bit_offset(0x06)
    1364                      .dwattr $C$DW$128, DW_AT_bit_size(0x02)
    1365                      .dwattr $C$DW$128, DW_AT_data_member_location[DW_OP_plus_uconst 0x0]
    1366                      .dwattr $C$DW$128, DW_AT_accessibility(DW_ACCESS_public)
    1367              
    1368              $C$DW$129       .dwtag  DW_TAG_member
    1369                      .dwattr $C$DW$129, DW_AT_type(*$C$DW$T$19)
    1370                      .dwattr $C$DW$129, DW_AT_name("GPIO5")
    1371                      .dwattr $C$DW$129, DW_AT_TI_symbol_name("_GPIO5")
    1372                      .dwattr $C$DW$129, DW_AT_bit_offset(0x04)
    1373                      .dwattr $C$DW$129, DW_AT_bit_size(0x02)
    1374                      .dwattr $C$DW$129, DW_AT_data_member_location[DW_OP_plus_uconst 0x0]
    1375                      .dwattr $C$DW$129, DW_AT_accessibility(DW_ACCESS_public)
    1376              
    1377              $C$DW$130       .dwtag  DW_TAG_member
    1378                      .dwattr $C$DW$130, DW_AT_type(*$C$DW$T$19)
    1379                      .dwattr $C$DW$130, DW_AT_name("GPIO6")
    1380                      .dwattr $C$DW$130, DW_AT_TI_symbol_name("_GPIO6")
    1381                      .dwattr $C$DW$130, DW_AT_bit_offset(0x02)
    1382                      .dwattr $C$DW$130, DW_AT_bit_size(0x02)
    1383                      .dwattr $C$DW$130, DW_AT_data_member_location[DW_OP_plus_uconst 0x0]
    1384                      .dwattr $C$DW$130, DW_AT_accessibility(DW_ACCESS_public)
    1385              
    1386              $C$DW$131       .dwtag  DW_TAG_member
    1387                      .dwattr $C$DW$131, DW_AT_type(*$C$DW$T$19)
    1388                      .dwattr $C$DW$131, DW_AT_name("GPIO7")
    1389                      .dwattr $C$DW$131, DW_AT_TI_symbol_name("_GPIO7")
    1390                      .dwattr $C$DW$131, DW_AT_bit_offset(0x00)
    1391                      .dwattr $C$DW$131, DW_AT_bit_size(0x02)
    1392                      .dwattr $C$DW$131, DW_AT_data_member_location[DW_OP_plus_uconst 0x0]
    1393                      .dwattr $C$DW$131, DW_AT_accessibility(DW_ACCESS_public)
    1394              
    1395              $C$DW$132       .dwtag  DW_TAG_member
    1396                      .dwattr $C$DW$132, DW_AT_type(*$C$DW$T$19)
    1397                      .dwattr $C$DW$132, DW_AT_name("GPIO8")
    1398                      .dwattr $C$DW$132, DW_AT_TI_symbol_name("_GPIO8")
    1399                      .dwattr $C$DW$132, DW_AT_bit_offset(0x0e)
    1400                      .dwattr $C$DW$132, DW_AT_bit_size(0x02)
    1401                      .dwattr $C$DW$132, DW_AT_data_member_location[DW_OP_plus_uconst 0x1]
    1402                      .dwattr $C$DW$132, DW_AT_accessibility(DW_ACCESS_public)
    1403              
    1404              $C$DW$133       .dwtag  DW_TAG_member
TMS320C2000 Assembler PC v18.1.2 Fri Dec 14 17:55:34 2018

Tools Copyright (c) 1996-2017 Texas Instruments Incorporated
F2837xD_Spi.asm                                                      PAGE   27

    1405                      .dwattr $C$DW$133, DW_AT_type(*$C$DW$T$19)
    1406                      .dwattr $C$DW$133, DW_AT_name("GPIO9")
    1407                      .dwattr $C$DW$133, DW_AT_TI_symbol_name("_GPIO9")
    1408                      .dwattr $C$DW$133, DW_AT_bit_offset(0x0c)
    1409                      .dwattr $C$DW$133, DW_AT_bit_size(0x02)
    1410                      .dwattr $C$DW$133, DW_AT_data_member_location[DW_OP_plus_uconst 0x1]
    1411                      .dwattr $C$DW$133, DW_AT_accessibility(DW_ACCESS_public)
    1412              
    1413              $C$DW$134       .dwtag  DW_TAG_member
    1414                      .dwattr $C$DW$134, DW_AT_type(*$C$DW$T$19)
    1415                      .dwattr $C$DW$134, DW_AT_name("GPIO10")
    1416                      .dwattr $C$DW$134, DW_AT_TI_symbol_name("_GPIO10")
    1417                      .dwattr $C$DW$134, DW_AT_bit_offset(0x0a)
    1418                      .dwattr $C$DW$134, DW_AT_bit_size(0x02)
    1419                      .dwattr $C$DW$134, DW_AT_data_member_location[DW_OP_plus_uconst 0x1]
    1420                      .dwattr $C$DW$134, DW_AT_accessibility(DW_ACCESS_public)
    1421              
    1422              $C$DW$135       .dwtag  DW_TAG_member
    1423                      .dwattr $C$DW$135, DW_AT_type(*$C$DW$T$19)
    1424                      .dwattr $C$DW$135, DW_AT_name("GPIO11")
    1425                      .dwattr $C$DW$135, DW_AT_TI_symbol_name("_GPIO11")
    1426                      .dwattr $C$DW$135, DW_AT_bit_offset(0x08)
    1427                      .dwattr $C$DW$135, DW_AT_bit_size(0x02)
    1428                      .dwattr $C$DW$135, DW_AT_data_member_location[DW_OP_plus_uconst 0x1]
    1429                      .dwattr $C$DW$135, DW_AT_accessibility(DW_ACCESS_public)
    1430              
    1431              $C$DW$136       .dwtag  DW_TAG_member
    1432                      .dwattr $C$DW$136, DW_AT_type(*$C$DW$T$19)
    1433                      .dwattr $C$DW$136, DW_AT_name("GPIO12")
    1434                      .dwattr $C$DW$136, DW_AT_TI_symbol_name("_GPIO12")
    1435                      .dwattr $C$DW$136, DW_AT_bit_offset(0x06)
    1436                      .dwattr $C$DW$136, DW_AT_bit_size(0x02)
    1437                      .dwattr $C$DW$136, DW_AT_data_member_location[DW_OP_plus_uconst 0x1]
    1438                      .dwattr $C$DW$136, DW_AT_accessibility(DW_ACCESS_public)
    1439              
    1440              $C$DW$137       .dwtag  DW_TAG_member
    1441                      .dwattr $C$DW$137, DW_AT_type(*$C$DW$T$19)
    1442                      .dwattr $C$DW$137, DW_AT_name("GPIO13")
    1443                      .dwattr $C$DW$137, DW_AT_TI_symbol_name("_GPIO13")
    1444                      .dwattr $C$DW$137, DW_AT_bit_offset(0x04)
    1445                      .dwattr $C$DW$137, DW_AT_bit_size(0x02)
    1446                      .dwattr $C$DW$137, DW_AT_data_member_location[DW_OP_plus_uconst 0x1]
    1447                      .dwattr $C$DW$137, DW_AT_accessibility(DW_ACCESS_public)
    1448              
    1449              $C$DW$138       .dwtag  DW_TAG_member
    1450                      .dwattr $C$DW$138, DW_AT_type(*$C$DW$T$19)
    1451                      .dwattr $C$DW$138, DW_AT_name("GPIO14")
    1452                      .dwattr $C$DW$138, DW_AT_TI_symbol_name("_GPIO14")
    1453                      .dwattr $C$DW$138, DW_AT_bit_offset(0x02)
    1454                      .dwattr $C$DW$138, DW_AT_bit_size(0x02)
    1455                      .dwattr $C$DW$138, DW_AT_data_member_location[DW_OP_plus_uconst 0x1]
    1456                      .dwattr $C$DW$138, DW_AT_accessibility(DW_ACCESS_public)
    1457              
    1458              $C$DW$139       .dwtag  DW_TAG_member
    1459                      .dwattr $C$DW$139, DW_AT_type(*$C$DW$T$19)
TMS320C2000 Assembler PC v18.1.2 Fri Dec 14 17:55:34 2018

Tools Copyright (c) 1996-2017 Texas Instruments Incorporated
F2837xD_Spi.asm                                                      PAGE   28

    1460                      .dwattr $C$DW$139, DW_AT_name("GPIO15")
    1461                      .dwattr $C$DW$139, DW_AT_TI_symbol_name("_GPIO15")
    1462                      .dwattr $C$DW$139, DW_AT_bit_offset(0x00)
    1463                      .dwattr $C$DW$139, DW_AT_bit_size(0x02)
    1464                      .dwattr $C$DW$139, DW_AT_data_member_location[DW_OP_plus_uconst 0x1]
    1465                      .dwattr $C$DW$139, DW_AT_accessibility(DW_ACCESS_public)
    1466              
    1467                      .dwendtag $C$DW$T$35
    1468              
    1469              
    1470              $C$DW$T$36      .dwtag  DW_TAG_union_type
    1471                      .dwattr $C$DW$T$36, DW_AT_name("GPAGMUX1_REG")
    1472                      .dwattr $C$DW$T$36, DW_AT_byte_size(0x02)
    1473              $C$DW$140       .dwtag  DW_TAG_member
    1474                      .dwattr $C$DW$140, DW_AT_type(*$C$DW$T$21)
    1475                      .dwattr $C$DW$140, DW_AT_name("all")
    1476                      .dwattr $C$DW$140, DW_AT_TI_symbol_name("_all")
    1477                      .dwattr $C$DW$140, DW_AT_data_member_location[DW_OP_plus_uconst 0x0]
    1478                      .dwattr $C$DW$140, DW_AT_accessibility(DW_ACCESS_public)
    1479              
    1480              $C$DW$141       .dwtag  DW_TAG_member
    1481                      .dwattr $C$DW$141, DW_AT_type(*$C$DW$T$35)
    1482                      .dwattr $C$DW$141, DW_AT_name("bit")
    1483                      .dwattr $C$DW$141, DW_AT_TI_symbol_name("_bit")
    1484                      .dwattr $C$DW$141, DW_AT_data_member_location[DW_OP_plus_uconst 0x0]
    1485                      .dwattr $C$DW$141, DW_AT_accessibility(DW_ACCESS_public)
    1486              
    1487                      .dwendtag $C$DW$T$36
    1488              
    1489              
    1490              $C$DW$T$37      .dwtag  DW_TAG_structure_type
    1491                      .dwattr $C$DW$T$37, DW_AT_name("GPAGMUX2_BITS")
    1492                      .dwattr $C$DW$T$37, DW_AT_byte_size(0x02)
    1493              $C$DW$142       .dwtag  DW_TAG_member
    1494                      .dwattr $C$DW$142, DW_AT_type(*$C$DW$T$19)
    1495                      .dwattr $C$DW$142, DW_AT_name("GPIO16")
    1496                      .dwattr $C$DW$142, DW_AT_TI_symbol_name("_GPIO16")
    1497                      .dwattr $C$DW$142, DW_AT_bit_offset(0x0e)
    1498                      .dwattr $C$DW$142, DW_AT_bit_size(0x02)
    1499                      .dwattr $C$DW$142, DW_AT_data_member_location[DW_OP_plus_uconst 0x0]
    1500                      .dwattr $C$DW$142, DW_AT_accessibility(DW_ACCESS_public)
    1501              
    1502              $C$DW$143       .dwtag  DW_TAG_member
    1503                      .dwattr $C$DW$143, DW_AT_type(*$C$DW$T$19)
    1504                      .dwattr $C$DW$143, DW_AT_name("GPIO17")
    1505                      .dwattr $C$DW$143, DW_AT_TI_symbol_name("_GPIO17")
    1506                      .dwattr $C$DW$143, DW_AT_bit_offset(0x0c)
    1507                      .dwattr $C$DW$143, DW_AT_bit_size(0x02)
    1508                      .dwattr $C$DW$143, DW_AT_data_member_location[DW_OP_plus_uconst 0x0]
    1509                      .dwattr $C$DW$143, DW_AT_accessibility(DW_ACCESS_public)
    1510              
    1511              $C$DW$144       .dwtag  DW_TAG_member
    1512                      .dwattr $C$DW$144, DW_AT_type(*$C$DW$T$19)
    1513                      .dwattr $C$DW$144, DW_AT_name("GPIO18")
    1514                      .dwattr $C$DW$144, DW_AT_TI_symbol_name("_GPIO18")
TMS320C2000 Assembler PC v18.1.2 Fri Dec 14 17:55:34 2018

Tools Copyright (c) 1996-2017 Texas Instruments Incorporated
F2837xD_Spi.asm                                                      PAGE   29

    1515                      .dwattr $C$DW$144, DW_AT_bit_offset(0x0a)
    1516                      .dwattr $C$DW$144, DW_AT_bit_size(0x02)
    1517                      .dwattr $C$DW$144, DW_AT_data_member_location[DW_OP_plus_uconst 0x0]
    1518                      .dwattr $C$DW$144, DW_AT_accessibility(DW_ACCESS_public)
    1519              
    1520              $C$DW$145       .dwtag  DW_TAG_member
    1521                      .dwattr $C$DW$145, DW_AT_type(*$C$DW$T$19)
    1522                      .dwattr $C$DW$145, DW_AT_name("GPIO19")
    1523                      .dwattr $C$DW$145, DW_AT_TI_symbol_name("_GPIO19")
    1524                      .dwattr $C$DW$145, DW_AT_bit_offset(0x08)
    1525                      .dwattr $C$DW$145, DW_AT_bit_size(0x02)
    1526                      .dwattr $C$DW$145, DW_AT_data_member_location[DW_OP_plus_uconst 0x0]
    1527                      .dwattr $C$DW$145, DW_AT_accessibility(DW_ACCESS_public)
    1528              
    1529              $C$DW$146       .dwtag  DW_TAG_member
    1530                      .dwattr $C$DW$146, DW_AT_type(*$C$DW$T$19)
    1531                      .dwattr $C$DW$146, DW_AT_name("GPIO20")
    1532                      .dwattr $C$DW$146, DW_AT_TI_symbol_name("_GPIO20")
    1533                      .dwattr $C$DW$146, DW_AT_bit_offset(0x06)
    1534                      .dwattr $C$DW$146, DW_AT_bit_size(0x02)
    1535                      .dwattr $C$DW$146, DW_AT_data_member_location[DW_OP_plus_uconst 0x0]
    1536                      .dwattr $C$DW$146, DW_AT_accessibility(DW_ACCESS_public)
    1537              
    1538              $C$DW$147       .dwtag  DW_TAG_member
    1539                      .dwattr $C$DW$147, DW_AT_type(*$C$DW$T$19)
    1540                      .dwattr $C$DW$147, DW_AT_name("GPIO21")
    1541                      .dwattr $C$DW$147, DW_AT_TI_symbol_name("_GPIO21")
    1542                      .dwattr $C$DW$147, DW_AT_bit_offset(0x04)
    1543                      .dwattr $C$DW$147, DW_AT_bit_size(0x02)
    1544                      .dwattr $C$DW$147, DW_AT_data_member_location[DW_OP_plus_uconst 0x0]
    1545                      .dwattr $C$DW$147, DW_AT_accessibility(DW_ACCESS_public)
    1546              
    1547              $C$DW$148       .dwtag  DW_TAG_member
    1548                      .dwattr $C$DW$148, DW_AT_type(*$C$DW$T$19)
    1549                      .dwattr $C$DW$148, DW_AT_name("GPIO22")
    1550                      .dwattr $C$DW$148, DW_AT_TI_symbol_name("_GPIO22")
    1551                      .dwattr $C$DW$148, DW_AT_bit_offset(0x02)
    1552                      .dwattr $C$DW$148, DW_AT_bit_size(0x02)
    1553                      .dwattr $C$DW$148, DW_AT_data_member_location[DW_OP_plus_uconst 0x0]
    1554                      .dwattr $C$DW$148, DW_AT_accessibility(DW_ACCESS_public)
    1555              
    1556              $C$DW$149       .dwtag  DW_TAG_member
    1557                      .dwattr $C$DW$149, DW_AT_type(*$C$DW$T$19)
    1558                      .dwattr $C$DW$149, DW_AT_name("GPIO23")
    1559                      .dwattr $C$DW$149, DW_AT_TI_symbol_name("_GPIO23")
    1560                      .dwattr $C$DW$149, DW_AT_bit_offset(0x00)
    1561                      .dwattr $C$DW$149, DW_AT_bit_size(0x02)
    1562                      .dwattr $C$DW$149, DW_AT_data_member_location[DW_OP_plus_uconst 0x0]
    1563                      .dwattr $C$DW$149, DW_AT_accessibility(DW_ACCESS_public)
    1564              
    1565              $C$DW$150       .dwtag  DW_TAG_member
    1566                      .dwattr $C$DW$150, DW_AT_type(*$C$DW$T$19)
    1567                      .dwattr $C$DW$150, DW_AT_name("GPIO24")
    1568                      .dwattr $C$DW$150, DW_AT_TI_symbol_name("_GPIO24")
    1569                      .dwattr $C$DW$150, DW_AT_bit_offset(0x0e)
TMS320C2000 Assembler PC v18.1.2 Fri Dec 14 17:55:34 2018

Tools Copyright (c) 1996-2017 Texas Instruments Incorporated
F2837xD_Spi.asm                                                      PAGE   30

    1570                      .dwattr $C$DW$150, DW_AT_bit_size(0x02)
    1571                      .dwattr $C$DW$150, DW_AT_data_member_location[DW_OP_plus_uconst 0x1]
    1572                      .dwattr $C$DW$150, DW_AT_accessibility(DW_ACCESS_public)
    1573              
    1574              $C$DW$151       .dwtag  DW_TAG_member
    1575                      .dwattr $C$DW$151, DW_AT_type(*$C$DW$T$19)
    1576                      .dwattr $C$DW$151, DW_AT_name("GPIO25")
    1577                      .dwattr $C$DW$151, DW_AT_TI_symbol_name("_GPIO25")
    1578                      .dwattr $C$DW$151, DW_AT_bit_offset(0x0c)
    1579                      .dwattr $C$DW$151, DW_AT_bit_size(0x02)
    1580                      .dwattr $C$DW$151, DW_AT_data_member_location[DW_OP_plus_uconst 0x1]
    1581                      .dwattr $C$DW$151, DW_AT_accessibility(DW_ACCESS_public)
    1582              
    1583              $C$DW$152       .dwtag  DW_TAG_member
    1584                      .dwattr $C$DW$152, DW_AT_type(*$C$DW$T$19)
    1585                      .dwattr $C$DW$152, DW_AT_name("GPIO26")
    1586                      .dwattr $C$DW$152, DW_AT_TI_symbol_name("_GPIO26")
    1587                      .dwattr $C$DW$152, DW_AT_bit_offset(0x0a)
    1588                      .dwattr $C$DW$152, DW_AT_bit_size(0x02)
    1589                      .dwattr $C$DW$152, DW_AT_data_member_location[DW_OP_plus_uconst 0x1]
    1590                      .dwattr $C$DW$152, DW_AT_accessibility(DW_ACCESS_public)
    1591              
    1592              $C$DW$153       .dwtag  DW_TAG_member
    1593                      .dwattr $C$DW$153, DW_AT_type(*$C$DW$T$19)
    1594                      .dwattr $C$DW$153, DW_AT_name("GPIO27")
    1595                      .dwattr $C$DW$153, DW_AT_TI_symbol_name("_GPIO27")
    1596                      .dwattr $C$DW$153, DW_AT_bit_offset(0x08)
    1597                      .dwattr $C$DW$153, DW_AT_bit_size(0x02)
    1598                      .dwattr $C$DW$153, DW_AT_data_member_location[DW_OP_plus_uconst 0x1]
    1599                      .dwattr $C$DW$153, DW_AT_accessibility(DW_ACCESS_public)
    1600              
    1601              $C$DW$154       .dwtag  DW_TAG_member
    1602                      .dwattr $C$DW$154, DW_AT_type(*$C$DW$T$19)
    1603                      .dwattr $C$DW$154, DW_AT_name("GPIO28")
    1604                      .dwattr $C$DW$154, DW_AT_TI_symbol_name("_GPIO28")
    1605                      .dwattr $C$DW$154, DW_AT_bit_offset(0x06)
    1606                      .dwattr $C$DW$154, DW_AT_bit_size(0x02)
    1607                      .dwattr $C$DW$154, DW_AT_data_member_location[DW_OP_plus_uconst 0x1]
    1608                      .dwattr $C$DW$154, DW_AT_accessibility(DW_ACCESS_public)
    1609              
    1610              $C$DW$155       .dwtag  DW_TAG_member
    1611                      .dwattr $C$DW$155, DW_AT_type(*$C$DW$T$19)
    1612                      .dwattr $C$DW$155, DW_AT_name("GPIO29")
    1613                      .dwattr $C$DW$155, DW_AT_TI_symbol_name("_GPIO29")
    1614                      .dwattr $C$DW$155, DW_AT_bit_offset(0x04)
    1615                      .dwattr $C$DW$155, DW_AT_bit_size(0x02)
    1616                      .dwattr $C$DW$155, DW_AT_data_member_location[DW_OP_plus_uconst 0x1]
    1617                      .dwattr $C$DW$155, DW_AT_accessibility(DW_ACCESS_public)
    1618              
    1619              $C$DW$156       .dwtag  DW_TAG_member
    1620                      .dwattr $C$DW$156, DW_AT_type(*$C$DW$T$19)
    1621                      .dwattr $C$DW$156, DW_AT_name("GPIO30")
    1622                      .dwattr $C$DW$156, DW_AT_TI_symbol_name("_GPIO30")
    1623                      .dwattr $C$DW$156, DW_AT_bit_offset(0x02)
    1624                      .dwattr $C$DW$156, DW_AT_bit_size(0x02)
TMS320C2000 Assembler PC v18.1.2 Fri Dec 14 17:55:34 2018

Tools Copyright (c) 1996-2017 Texas Instruments Incorporated
F2837xD_Spi.asm                                                      PAGE   31

    1625                      .dwattr $C$DW$156, DW_AT_data_member_location[DW_OP_plus_uconst 0x1]
    1626                      .dwattr $C$DW$156, DW_AT_accessibility(DW_ACCESS_public)
    1627              
    1628              $C$DW$157       .dwtag  DW_TAG_member
    1629                      .dwattr $C$DW$157, DW_AT_type(*$C$DW$T$19)
    1630                      .dwattr $C$DW$157, DW_AT_name("GPIO31")
    1631                      .dwattr $C$DW$157, DW_AT_TI_symbol_name("_GPIO31")
    1632                      .dwattr $C$DW$157, DW_AT_bit_offset(0x00)
    1633                      .dwattr $C$DW$157, DW_AT_bit_size(0x02)
    1634                      .dwattr $C$DW$157, DW_AT_data_member_location[DW_OP_plus_uconst 0x1]
    1635                      .dwattr $C$DW$157, DW_AT_accessibility(DW_ACCESS_public)
    1636              
    1637                      .dwendtag $C$DW$T$37
    1638              
    1639              
    1640              $C$DW$T$38      .dwtag  DW_TAG_union_type
    1641                      .dwattr $C$DW$T$38, DW_AT_name("GPAGMUX2_REG")
    1642                      .dwattr $C$DW$T$38, DW_AT_byte_size(0x02)
    1643              $C$DW$158       .dwtag  DW_TAG_member
    1644                      .dwattr $C$DW$158, DW_AT_type(*$C$DW$T$21)
    1645                      .dwattr $C$DW$158, DW_AT_name("all")
    1646                      .dwattr $C$DW$158, DW_AT_TI_symbol_name("_all")
    1647                      .dwattr $C$DW$158, DW_AT_data_member_location[DW_OP_plus_uconst 0x0]
    1648                      .dwattr $C$DW$158, DW_AT_accessibility(DW_ACCESS_public)
    1649              
    1650              $C$DW$159       .dwtag  DW_TAG_member
    1651                      .dwattr $C$DW$159, DW_AT_type(*$C$DW$T$37)
    1652                      .dwattr $C$DW$159, DW_AT_name("bit")
    1653                      .dwattr $C$DW$159, DW_AT_TI_symbol_name("_bit")
    1654                      .dwattr $C$DW$159, DW_AT_data_member_location[DW_OP_plus_uconst 0x0]
    1655                      .dwattr $C$DW$159, DW_AT_accessibility(DW_ACCESS_public)
    1656              
    1657                      .dwendtag $C$DW$T$38
    1658              
    1659              
    1660              $C$DW$T$39      .dwtag  DW_TAG_structure_type
    1661                      .dwattr $C$DW$T$39, DW_AT_name("GPAINV_BITS")
    1662                      .dwattr $C$DW$T$39, DW_AT_byte_size(0x02)
    1663              $C$DW$160       .dwtag  DW_TAG_member
    1664                      .dwattr $C$DW$160, DW_AT_type(*$C$DW$T$19)
    1665                      .dwattr $C$DW$160, DW_AT_name("GPIO0")
    1666                      .dwattr $C$DW$160, DW_AT_TI_symbol_name("_GPIO0")
    1667                      .dwattr $C$DW$160, DW_AT_bit_offset(0x0f)
    1668                      .dwattr $C$DW$160, DW_AT_bit_size(0x01)
    1669                      .dwattr $C$DW$160, DW_AT_data_member_location[DW_OP_plus_uconst 0x0]
    1670                      .dwattr $C$DW$160, DW_AT_accessibility(DW_ACCESS_public)
    1671              
    1672              $C$DW$161       .dwtag  DW_TAG_member
    1673                      .dwattr $C$DW$161, DW_AT_type(*$C$DW$T$19)
    1674                      .dwattr $C$DW$161, DW_AT_name("GPIO1")
    1675                      .dwattr $C$DW$161, DW_AT_TI_symbol_name("_GPIO1")
    1676                      .dwattr $C$DW$161, DW_AT_bit_offset(0x0e)
    1677                      .dwattr $C$DW$161, DW_AT_bit_size(0x01)
    1678                      .dwattr $C$DW$161, DW_AT_data_member_location[DW_OP_plus_uconst 0x0]
    1679                      .dwattr $C$DW$161, DW_AT_accessibility(DW_ACCESS_public)
TMS320C2000 Assembler PC v18.1.2 Fri Dec 14 17:55:34 2018

Tools Copyright (c) 1996-2017 Texas Instruments Incorporated
F2837xD_Spi.asm                                                      PAGE   32

    1680              
    1681              $C$DW$162       .dwtag  DW_TAG_member
    1682                      .dwattr $C$DW$162, DW_AT_type(*$C$DW$T$19)
    1683                      .dwattr $C$DW$162, DW_AT_name("GPIO2")
    1684                      .dwattr $C$DW$162, DW_AT_TI_symbol_name("_GPIO2")
    1685                      .dwattr $C$DW$162, DW_AT_bit_offset(0x0d)
    1686                      .dwattr $C$DW$162, DW_AT_bit_size(0x01)
    1687                      .dwattr $C$DW$162, DW_AT_data_member_location[DW_OP_plus_uconst 0x0]
    1688                      .dwattr $C$DW$162, DW_AT_accessibility(DW_ACCESS_public)
    1689              
    1690              $C$DW$163       .dwtag  DW_TAG_member
    1691                      .dwattr $C$DW$163, DW_AT_type(*$C$DW$T$19)
    1692                      .dwattr $C$DW$163, DW_AT_name("GPIO3")
    1693                      .dwattr $C$DW$163, DW_AT_TI_symbol_name("_GPIO3")
    1694                      .dwattr $C$DW$163, DW_AT_bit_offset(0x0c)
    1695                      .dwattr $C$DW$163, DW_AT_bit_size(0x01)
    1696                      .dwattr $C$DW$163, DW_AT_data_member_location[DW_OP_plus_uconst 0x0]
    1697                      .dwattr $C$DW$163, DW_AT_accessibility(DW_ACCESS_public)
    1698              
    1699              $C$DW$164       .dwtag  DW_TAG_member
    1700                      .dwattr $C$DW$164, DW_AT_type(*$C$DW$T$19)
    1701                      .dwattr $C$DW$164, DW_AT_name("GPIO4")
    1702                      .dwattr $C$DW$164, DW_AT_TI_symbol_name("_GPIO4")
    1703                      .dwattr $C$DW$164, DW_AT_bit_offset(0x0b)
    1704                      .dwattr $C$DW$164, DW_AT_bit_size(0x01)
    1705                      .dwattr $C$DW$164, DW_AT_data_member_location[DW_OP_plus_uconst 0x0]
    1706                      .dwattr $C$DW$164, DW_AT_accessibility(DW_ACCESS_public)
    1707              
    1708              $C$DW$165       .dwtag  DW_TAG_member
    1709                      .dwattr $C$DW$165, DW_AT_type(*$C$DW$T$19)
    1710                      .dwattr $C$DW$165, DW_AT_name("GPIO5")
    1711                      .dwattr $C$DW$165, DW_AT_TI_symbol_name("_GPIO5")
    1712                      .dwattr $C$DW$165, DW_AT_bit_offset(0x0a)
    1713                      .dwattr $C$DW$165, DW_AT_bit_size(0x01)
    1714                      .dwattr $C$DW$165, DW_AT_data_member_location[DW_OP_plus_uconst 0x0]
    1715                      .dwattr $C$DW$165, DW_AT_accessibility(DW_ACCESS_public)
    1716              
    1717              $C$DW$166       .dwtag  DW_TAG_member
    1718                      .dwattr $C$DW$166, DW_AT_type(*$C$DW$T$19)
    1719                      .dwattr $C$DW$166, DW_AT_name("GPIO6")
    1720                      .dwattr $C$DW$166, DW_AT_TI_symbol_name("_GPIO6")
    1721                      .dwattr $C$DW$166, DW_AT_bit_offset(0x09)
    1722                      .dwattr $C$DW$166, DW_AT_bit_size(0x01)
    1723                      .dwattr $C$DW$166, DW_AT_data_member_location[DW_OP_plus_uconst 0x0]
    1724                      .dwattr $C$DW$166, DW_AT_accessibility(DW_ACCESS_public)
    1725              
    1726              $C$DW$167       .dwtag  DW_TAG_member
    1727                      .dwattr $C$DW$167, DW_AT_type(*$C$DW$T$19)
    1728                      .dwattr $C$DW$167, DW_AT_name("GPIO7")
    1729                      .dwattr $C$DW$167, DW_AT_TI_symbol_name("_GPIO7")
    1730                      .dwattr $C$DW$167, DW_AT_bit_offset(0x08)
    1731                      .dwattr $C$DW$167, DW_AT_bit_size(0x01)
    1732                      .dwattr $C$DW$167, DW_AT_data_member_location[DW_OP_plus_uconst 0x0]
    1733                      .dwattr $C$DW$167, DW_AT_accessibility(DW_ACCESS_public)
    1734              
TMS320C2000 Assembler PC v18.1.2 Fri Dec 14 17:55:34 2018

Tools Copyright (c) 1996-2017 Texas Instruments Incorporated
F2837xD_Spi.asm                                                      PAGE   33

    1735              $C$DW$168       .dwtag  DW_TAG_member
    1736                      .dwattr $C$DW$168, DW_AT_type(*$C$DW$T$19)
    1737                      .dwattr $C$DW$168, DW_AT_name("GPIO8")
    1738                      .dwattr $C$DW$168, DW_AT_TI_symbol_name("_GPIO8")
    1739                      .dwattr $C$DW$168, DW_AT_bit_offset(0x07)
    1740                      .dwattr $C$DW$168, DW_AT_bit_size(0x01)
    1741                      .dwattr $C$DW$168, DW_AT_data_member_location[DW_OP_plus_uconst 0x0]
    1742                      .dwattr $C$DW$168, DW_AT_accessibility(DW_ACCESS_public)
    1743              
    1744              $C$DW$169       .dwtag  DW_TAG_member
    1745                      .dwattr $C$DW$169, DW_AT_type(*$C$DW$T$19)
    1746                      .dwattr $C$DW$169, DW_AT_name("GPIO9")
    1747                      .dwattr $C$DW$169, DW_AT_TI_symbol_name("_GPIO9")
    1748                      .dwattr $C$DW$169, DW_AT_bit_offset(0x06)
    1749                      .dwattr $C$DW$169, DW_AT_bit_size(0x01)
    1750                      .dwattr $C$DW$169, DW_AT_data_member_location[DW_OP_plus_uconst 0x0]
    1751                      .dwattr $C$DW$169, DW_AT_accessibility(DW_ACCESS_public)
    1752              
    1753              $C$DW$170       .dwtag  DW_TAG_member
    1754                      .dwattr $C$DW$170, DW_AT_type(*$C$DW$T$19)
    1755                      .dwattr $C$DW$170, DW_AT_name("GPIO10")
    1756                      .dwattr $C$DW$170, DW_AT_TI_symbol_name("_GPIO10")
    1757                      .dwattr $C$DW$170, DW_AT_bit_offset(0x05)
    1758                      .dwattr $C$DW$170, DW_AT_bit_size(0x01)
    1759                      .dwattr $C$DW$170, DW_AT_data_member_location[DW_OP_plus_uconst 0x0]
    1760                      .dwattr $C$DW$170, DW_AT_accessibility(DW_ACCESS_public)
    1761              
    1762              $C$DW$171       .dwtag  DW_TAG_member
    1763                      .dwattr $C$DW$171, DW_AT_type(*$C$DW$T$19)
    1764                      .dwattr $C$DW$171, DW_AT_name("GPIO11")
    1765                      .dwattr $C$DW$171, DW_AT_TI_symbol_name("_GPIO11")
    1766                      .dwattr $C$DW$171, DW_AT_bit_offset(0x04)
    1767                      .dwattr $C$DW$171, DW_AT_bit_size(0x01)
    1768                      .dwattr $C$DW$171, DW_AT_data_member_location[DW_OP_plus_uconst 0x0]
    1769                      .dwattr $C$DW$171, DW_AT_accessibility(DW_ACCESS_public)
    1770              
    1771              $C$DW$172       .dwtag  DW_TAG_member
    1772                      .dwattr $C$DW$172, DW_AT_type(*$C$DW$T$19)
    1773                      .dwattr $C$DW$172, DW_AT_name("GPIO12")
    1774                      .dwattr $C$DW$172, DW_AT_TI_symbol_name("_GPIO12")
    1775                      .dwattr $C$DW$172, DW_AT_bit_offset(0x03)
    1776                      .dwattr $C$DW$172, DW_AT_bit_size(0x01)
    1777                      .dwattr $C$DW$172, DW_AT_data_member_location[DW_OP_plus_uconst 0x0]
    1778                      .dwattr $C$DW$172, DW_AT_accessibility(DW_ACCESS_public)
    1779              
    1780              $C$DW$173       .dwtag  DW_TAG_member
    1781                      .dwattr $C$DW$173, DW_AT_type(*$C$DW$T$19)
    1782                      .dwattr $C$DW$173, DW_AT_name("GPIO13")
    1783                      .dwattr $C$DW$173, DW_AT_TI_symbol_name("_GPIO13")
    1784                      .dwattr $C$DW$173, DW_AT_bit_offset(0x02)
    1785                      .dwattr $C$DW$173, DW_AT_bit_size(0x01)
    1786                      .dwattr $C$DW$173, DW_AT_data_member_location[DW_OP_plus_uconst 0x0]
    1787                      .dwattr $C$DW$173, DW_AT_accessibility(DW_ACCESS_public)
    1788              
    1789              $C$DW$174       .dwtag  DW_TAG_member
TMS320C2000 Assembler PC v18.1.2 Fri Dec 14 17:55:34 2018

Tools Copyright (c) 1996-2017 Texas Instruments Incorporated
F2837xD_Spi.asm                                                      PAGE   34

    1790                      .dwattr $C$DW$174, DW_AT_type(*$C$DW$T$19)
    1791                      .dwattr $C$DW$174, DW_AT_name("GPIO14")
    1792                      .dwattr $C$DW$174, DW_AT_TI_symbol_name("_GPIO14")
    1793                      .dwattr $C$DW$174, DW_AT_bit_offset(0x01)
    1794                      .dwattr $C$DW$174, DW_AT_bit_size(0x01)
    1795                      .dwattr $C$DW$174, DW_AT_data_member_location[DW_OP_plus_uconst 0x0]
    1796                      .dwattr $C$DW$174, DW_AT_accessibility(DW_ACCESS_public)
    1797              
    1798              $C$DW$175       .dwtag  DW_TAG_member
    1799                      .dwattr $C$DW$175, DW_AT_type(*$C$DW$T$19)
    1800                      .dwattr $C$DW$175, DW_AT_name("GPIO15")
    1801                      .dwattr $C$DW$175, DW_AT_TI_symbol_name("_GPIO15")
    1802                      .dwattr $C$DW$175, DW_AT_bit_offset(0x00)
    1803                      .dwattr $C$DW$175, DW_AT_bit_size(0x01)
    1804                      .dwattr $C$DW$175, DW_AT_data_member_location[DW_OP_plus_uconst 0x0]
    1805                      .dwattr $C$DW$175, DW_AT_accessibility(DW_ACCESS_public)
    1806              
    1807              $C$DW$176       .dwtag  DW_TAG_member
    1808                      .dwattr $C$DW$176, DW_AT_type(*$C$DW$T$19)
    1809                      .dwattr $C$DW$176, DW_AT_name("GPIO16")
    1810                      .dwattr $C$DW$176, DW_AT_TI_symbol_name("_GPIO16")
    1811                      .dwattr $C$DW$176, DW_AT_bit_offset(0x0f)
    1812                      .dwattr $C$DW$176, DW_AT_bit_size(0x01)
    1813                      .dwattr $C$DW$176, DW_AT_data_member_location[DW_OP_plus_uconst 0x1]
    1814                      .dwattr $C$DW$176, DW_AT_accessibility(DW_ACCESS_public)
    1815              
    1816              $C$DW$177       .dwtag  DW_TAG_member
    1817                      .dwattr $C$DW$177, DW_AT_type(*$C$DW$T$19)
    1818                      .dwattr $C$DW$177, DW_AT_name("GPIO17")
    1819                      .dwattr $C$DW$177, DW_AT_TI_symbol_name("_GPIO17")
    1820                      .dwattr $C$DW$177, DW_AT_bit_offset(0x0e)
    1821                      .dwattr $C$DW$177, DW_AT_bit_size(0x01)
    1822                      .dwattr $C$DW$177, DW_AT_data_member_location[DW_OP_plus_uconst 0x1]
    1823                      .dwattr $C$DW$177, DW_AT_accessibility(DW_ACCESS_public)
    1824              
    1825              $C$DW$178       .dwtag  DW_TAG_member
    1826                      .dwattr $C$DW$178, DW_AT_type(*$C$DW$T$19)
    1827                      .dwattr $C$DW$178, DW_AT_name("GPIO18")
    1828                      .dwattr $C$DW$178, DW_AT_TI_symbol_name("_GPIO18")
    1829                      .dwattr $C$DW$178, DW_AT_bit_offset(0x0d)
    1830                      .dwattr $C$DW$178, DW_AT_bit_size(0x01)
    1831                      .dwattr $C$DW$178, DW_AT_data_member_location[DW_OP_plus_uconst 0x1]
    1832                      .dwattr $C$DW$178, DW_AT_accessibility(DW_ACCESS_public)
    1833              
    1834              $C$DW$179       .dwtag  DW_TAG_member
    1835                      .dwattr $C$DW$179, DW_AT_type(*$C$DW$T$19)
    1836                      .dwattr $C$DW$179, DW_AT_name("GPIO19")
    1837                      .dwattr $C$DW$179, DW_AT_TI_symbol_name("_GPIO19")
    1838                      .dwattr $C$DW$179, DW_AT_bit_offset(0x0c)
    1839                      .dwattr $C$DW$179, DW_AT_bit_size(0x01)
    1840                      .dwattr $C$DW$179, DW_AT_data_member_location[DW_OP_plus_uconst 0x1]
    1841                      .dwattr $C$DW$179, DW_AT_accessibility(DW_ACCESS_public)
    1842              
    1843              $C$DW$180       .dwtag  DW_TAG_member
    1844                      .dwattr $C$DW$180, DW_AT_type(*$C$DW$T$19)
TMS320C2000 Assembler PC v18.1.2 Fri Dec 14 17:55:34 2018

Tools Copyright (c) 1996-2017 Texas Instruments Incorporated
F2837xD_Spi.asm                                                      PAGE   35

    1845                      .dwattr $C$DW$180, DW_AT_name("GPIO20")
    1846                      .dwattr $C$DW$180, DW_AT_TI_symbol_name("_GPIO20")
    1847                      .dwattr $C$DW$180, DW_AT_bit_offset(0x0b)
    1848                      .dwattr $C$DW$180, DW_AT_bit_size(0x01)
    1849                      .dwattr $C$DW$180, DW_AT_data_member_location[DW_OP_plus_uconst 0x1]
    1850                      .dwattr $C$DW$180, DW_AT_accessibility(DW_ACCESS_public)
    1851              
    1852              $C$DW$181       .dwtag  DW_TAG_member
    1853                      .dwattr $C$DW$181, DW_AT_type(*$C$DW$T$19)
    1854                      .dwattr $C$DW$181, DW_AT_name("GPIO21")
    1855                      .dwattr $C$DW$181, DW_AT_TI_symbol_name("_GPIO21")
    1856                      .dwattr $C$DW$181, DW_AT_bit_offset(0x0a)
    1857                      .dwattr $C$DW$181, DW_AT_bit_size(0x01)
    1858                      .dwattr $C$DW$181, DW_AT_data_member_location[DW_OP_plus_uconst 0x1]
    1859                      .dwattr $C$DW$181, DW_AT_accessibility(DW_ACCESS_public)
    1860              
    1861              $C$DW$182       .dwtag  DW_TAG_member
    1862                      .dwattr $C$DW$182, DW_AT_type(*$C$DW$T$19)
    1863                      .dwattr $C$DW$182, DW_AT_name("GPIO22")
    1864                      .dwattr $C$DW$182, DW_AT_TI_symbol_name("_GPIO22")
    1865                      .dwattr $C$DW$182, DW_AT_bit_offset(0x09)
    1866                      .dwattr $C$DW$182, DW_AT_bit_size(0x01)
    1867                      .dwattr $C$DW$182, DW_AT_data_member_location[DW_OP_plus_uconst 0x1]
    1868                      .dwattr $C$DW$182, DW_AT_accessibility(DW_ACCESS_public)
    1869              
    1870              $C$DW$183       .dwtag  DW_TAG_member
    1871                      .dwattr $C$DW$183, DW_AT_type(*$C$DW$T$19)
    1872                      .dwattr $C$DW$183, DW_AT_name("GPIO23")
    1873                      .dwattr $C$DW$183, DW_AT_TI_symbol_name("_GPIO23")
    1874                      .dwattr $C$DW$183, DW_AT_bit_offset(0x08)
    1875                      .dwattr $C$DW$183, DW_AT_bit_size(0x01)
    1876                      .dwattr $C$DW$183, DW_AT_data_member_location[DW_OP_plus_uconst 0x1]
    1877                      .dwattr $C$DW$183, DW_AT_accessibility(DW_ACCESS_public)
    1878              
    1879              $C$DW$184       .dwtag  DW_TAG_member
    1880                      .dwattr $C$DW$184, DW_AT_type(*$C$DW$T$19)
    1881                      .dwattr $C$DW$184, DW_AT_name("GPIO24")
    1882                      .dwattr $C$DW$184, DW_AT_TI_symbol_name("_GPIO24")
    1883                      .dwattr $C$DW$184, DW_AT_bit_offset(0x07)
    1884                      .dwattr $C$DW$184, DW_AT_bit_size(0x01)
    1885                      .dwattr $C$DW$184, DW_AT_data_member_location[DW_OP_plus_uconst 0x1]
    1886                      .dwattr $C$DW$184, DW_AT_accessibility(DW_ACCESS_public)
    1887              
    1888              $C$DW$185       .dwtag  DW_TAG_member
    1889                      .dwattr $C$DW$185, DW_AT_type(*$C$DW$T$19)
    1890                      .dwattr $C$DW$185, DW_AT_name("GPIO25")
    1891                      .dwattr $C$DW$185, DW_AT_TI_symbol_name("_GPIO25")
    1892                      .dwattr $C$DW$185, DW_AT_bit_offset(0x06)
    1893                      .dwattr $C$DW$185, DW_AT_bit_size(0x01)
    1894                      .dwattr $C$DW$185, DW_AT_data_member_location[DW_OP_plus_uconst 0x1]
    1895                      .dwattr $C$DW$185, DW_AT_accessibility(DW_ACCESS_public)
    1896              
    1897              $C$DW$186       .dwtag  DW_TAG_member
    1898                      .dwattr $C$DW$186, DW_AT_type(*$C$DW$T$19)
    1899                      .dwattr $C$DW$186, DW_AT_name("GPIO26")
TMS320C2000 Assembler PC v18.1.2 Fri Dec 14 17:55:34 2018

Tools Copyright (c) 1996-2017 Texas Instruments Incorporated
F2837xD_Spi.asm                                                      PAGE   36

    1900                      .dwattr $C$DW$186, DW_AT_TI_symbol_name("_GPIO26")
    1901                      .dwattr $C$DW$186, DW_AT_bit_offset(0x05)
    1902                      .dwattr $C$DW$186, DW_AT_bit_size(0x01)
    1903                      .dwattr $C$DW$186, DW_AT_data_member_location[DW_OP_plus_uconst 0x1]
    1904                      .dwattr $C$DW$186, DW_AT_accessibility(DW_ACCESS_public)
    1905              
    1906              $C$DW$187       .dwtag  DW_TAG_member
    1907                      .dwattr $C$DW$187, DW_AT_type(*$C$DW$T$19)
    1908                      .dwattr $C$DW$187, DW_AT_name("GPIO27")
    1909                      .dwattr $C$DW$187, DW_AT_TI_symbol_name("_GPIO27")
    1910                      .dwattr $C$DW$187, DW_AT_bit_offset(0x04)
    1911                      .dwattr $C$DW$187, DW_AT_bit_size(0x01)
    1912                      .dwattr $C$DW$187, DW_AT_data_member_location[DW_OP_plus_uconst 0x1]
    1913                      .dwattr $C$DW$187, DW_AT_accessibility(DW_ACCESS_public)
    1914              
    1915              $C$DW$188       .dwtag  DW_TAG_member
    1916                      .dwattr $C$DW$188, DW_AT_type(*$C$DW$T$19)
    1917                      .dwattr $C$DW$188, DW_AT_name("GPIO28")
    1918                      .dwattr $C$DW$188, DW_AT_TI_symbol_name("_GPIO28")
    1919                      .dwattr $C$DW$188, DW_AT_bit_offset(0x03)
    1920                      .dwattr $C$DW$188, DW_AT_bit_size(0x01)
    1921                      .dwattr $C$DW$188, DW_AT_data_member_location[DW_OP_plus_uconst 0x1]
    1922                      .dwattr $C$DW$188, DW_AT_accessibility(DW_ACCESS_public)
    1923              
    1924              $C$DW$189       .dwtag  DW_TAG_member
    1925                      .dwattr $C$DW$189, DW_AT_type(*$C$DW$T$19)
    1926                      .dwattr $C$DW$189, DW_AT_name("GPIO29")
    1927                      .dwattr $C$DW$189, DW_AT_TI_symbol_name("_GPIO29")
    1928                      .dwattr $C$DW$189, DW_AT_bit_offset(0x02)
    1929                      .dwattr $C$DW$189, DW_AT_bit_size(0x01)
    1930                      .dwattr $C$DW$189, DW_AT_data_member_location[DW_OP_plus_uconst 0x1]
    1931                      .dwattr $C$DW$189, DW_AT_accessibility(DW_ACCESS_public)
    1932              
    1933              $C$DW$190       .dwtag  DW_TAG_member
    1934                      .dwattr $C$DW$190, DW_AT_type(*$C$DW$T$19)
    1935                      .dwattr $C$DW$190, DW_AT_name("GPIO30")
    1936                      .dwattr $C$DW$190, DW_AT_TI_symbol_name("_GPIO30")
    1937                      .dwattr $C$DW$190, DW_AT_bit_offset(0x01)
    1938                      .dwattr $C$DW$190, DW_AT_bit_size(0x01)
    1939                      .dwattr $C$DW$190, DW_AT_data_member_location[DW_OP_plus_uconst 0x1]
    1940                      .dwattr $C$DW$190, DW_AT_accessibility(DW_ACCESS_public)
    1941              
    1942              $C$DW$191       .dwtag  DW_TAG_member
    1943                      .dwattr $C$DW$191, DW_AT_type(*$C$DW$T$19)
    1944                      .dwattr $C$DW$191, DW_AT_name("GPIO31")
    1945                      .dwattr $C$DW$191, DW_AT_TI_symbol_name("_GPIO31")
    1946                      .dwattr $C$DW$191, DW_AT_bit_offset(0x00)
    1947                      .dwattr $C$DW$191, DW_AT_bit_size(0x01)
    1948                      .dwattr $C$DW$191, DW_AT_data_member_location[DW_OP_plus_uconst 0x1]
    1949                      .dwattr $C$DW$191, DW_AT_accessibility(DW_ACCESS_public)
    1950              
    1951                      .dwendtag $C$DW$T$39
    1952              
    1953              
    1954              $C$DW$T$40      .dwtag  DW_TAG_union_type
TMS320C2000 Assembler PC v18.1.2 Fri Dec 14 17:55:34 2018

Tools Copyright (c) 1996-2017 Texas Instruments Incorporated
F2837xD_Spi.asm                                                      PAGE   37

    1955                      .dwattr $C$DW$T$40, DW_AT_name("GPAINV_REG")
    1956                      .dwattr $C$DW$T$40, DW_AT_byte_size(0x02)
    1957              $C$DW$192       .dwtag  DW_TAG_member
    1958                      .dwattr $C$DW$192, DW_AT_type(*$C$DW$T$21)
    1959                      .dwattr $C$DW$192, DW_AT_name("all")
    1960                      .dwattr $C$DW$192, DW_AT_TI_symbol_name("_all")
    1961                      .dwattr $C$DW$192, DW_AT_data_member_location[DW_OP_plus_uconst 0x0]
    1962                      .dwattr $C$DW$192, DW_AT_accessibility(DW_ACCESS_public)
    1963              
    1964              $C$DW$193       .dwtag  DW_TAG_member
    1965                      .dwattr $C$DW$193, DW_AT_type(*$C$DW$T$39)
    1966                      .dwattr $C$DW$193, DW_AT_name("bit")
    1967                      .dwattr $C$DW$193, DW_AT_TI_symbol_name("_bit")
    1968                      .dwattr $C$DW$193, DW_AT_data_member_location[DW_OP_plus_uconst 0x0]
    1969                      .dwattr $C$DW$193, DW_AT_accessibility(DW_ACCESS_public)
    1970              
    1971                      .dwendtag $C$DW$T$40
    1972              
    1973              
    1974              $C$DW$T$41      .dwtag  DW_TAG_structure_type
    1975                      .dwattr $C$DW$T$41, DW_AT_name("GPALOCK_BITS")
    1976                      .dwattr $C$DW$T$41, DW_AT_byte_size(0x02)
    1977              $C$DW$194       .dwtag  DW_TAG_member
    1978                      .dwattr $C$DW$194, DW_AT_type(*$C$DW$T$19)
    1979                      .dwattr $C$DW$194, DW_AT_name("GPIO0")
    1980                      .dwattr $C$DW$194, DW_AT_TI_symbol_name("_GPIO0")
    1981                      .dwattr $C$DW$194, DW_AT_bit_offset(0x0f)
    1982                      .dwattr $C$DW$194, DW_AT_bit_size(0x01)
    1983                      .dwattr $C$DW$194, DW_AT_data_member_location[DW_OP_plus_uconst 0x0]
    1984                      .dwattr $C$DW$194, DW_AT_accessibility(DW_ACCESS_public)
    1985              
    1986              $C$DW$195       .dwtag  DW_TAG_member
    1987                      .dwattr $C$DW$195, DW_AT_type(*$C$DW$T$19)
    1988                      .dwattr $C$DW$195, DW_AT_name("GPIO1")
    1989                      .dwattr $C$DW$195, DW_AT_TI_symbol_name("_GPIO1")
    1990                      .dwattr $C$DW$195, DW_AT_bit_offset(0x0e)
    1991                      .dwattr $C$DW$195, DW_AT_bit_size(0x01)
    1992                      .dwattr $C$DW$195, DW_AT_data_member_location[DW_OP_plus_uconst 0x0]
    1993                      .dwattr $C$DW$195, DW_AT_accessibility(DW_ACCESS_public)
    1994              
    1995              $C$DW$196       .dwtag  DW_TAG_member
    1996                      .dwattr $C$DW$196, DW_AT_type(*$C$DW$T$19)
    1997                      .dwattr $C$DW$196, DW_AT_name("GPIO2")
    1998                      .dwattr $C$DW$196, DW_AT_TI_symbol_name("_GPIO2")
    1999                      .dwattr $C$DW$196, DW_AT_bit_offset(0x0d)
    2000                      .dwattr $C$DW$196, DW_AT_bit_size(0x01)
    2001                      .dwattr $C$DW$196, DW_AT_data_member_location[DW_OP_plus_uconst 0x0]
    2002                      .dwattr $C$DW$196, DW_AT_accessibility(DW_ACCESS_public)
    2003              
    2004              $C$DW$197       .dwtag  DW_TAG_member
    2005                      .dwattr $C$DW$197, DW_AT_type(*$C$DW$T$19)
    2006                      .dwattr $C$DW$197, DW_AT_name("GPIO3")
    2007                      .dwattr $C$DW$197, DW_AT_TI_symbol_name("_GPIO3")
    2008                      .dwattr $C$DW$197, DW_AT_bit_offset(0x0c)
    2009                      .dwattr $C$DW$197, DW_AT_bit_size(0x01)
TMS320C2000 Assembler PC v18.1.2 Fri Dec 14 17:55:34 2018

Tools Copyright (c) 1996-2017 Texas Instruments Incorporated
F2837xD_Spi.asm                                                      PAGE   38

    2010                      .dwattr $C$DW$197, DW_AT_data_member_location[DW_OP_plus_uconst 0x0]
    2011                      .dwattr $C$DW$197, DW_AT_accessibility(DW_ACCESS_public)
    2012              
    2013              $C$DW$198       .dwtag  DW_TAG_member
    2014                      .dwattr $C$DW$198, DW_AT_type(*$C$DW$T$19)
    2015                      .dwattr $C$DW$198, DW_AT_name("GPIO4")
    2016                      .dwattr $C$DW$198, DW_AT_TI_symbol_name("_GPIO4")
    2017                      .dwattr $C$DW$198, DW_AT_bit_offset(0x0b)
    2018                      .dwattr $C$DW$198, DW_AT_bit_size(0x01)
    2019                      .dwattr $C$DW$198, DW_AT_data_member_location[DW_OP_plus_uconst 0x0]
    2020                      .dwattr $C$DW$198, DW_AT_accessibility(DW_ACCESS_public)
    2021              
    2022              $C$DW$199       .dwtag  DW_TAG_member
    2023                      .dwattr $C$DW$199, DW_AT_type(*$C$DW$T$19)
    2024                      .dwattr $C$DW$199, DW_AT_name("GPIO5")
    2025                      .dwattr $C$DW$199, DW_AT_TI_symbol_name("_GPIO5")
    2026                      .dwattr $C$DW$199, DW_AT_bit_offset(0x0a)
    2027                      .dwattr $C$DW$199, DW_AT_bit_size(0x01)
    2028                      .dwattr $C$DW$199, DW_AT_data_member_location[DW_OP_plus_uconst 0x0]
    2029                      .dwattr $C$DW$199, DW_AT_accessibility(DW_ACCESS_public)
    2030              
    2031              $C$DW$200       .dwtag  DW_TAG_member
    2032                      .dwattr $C$DW$200, DW_AT_type(*$C$DW$T$19)
    2033                      .dwattr $C$DW$200, DW_AT_name("GPIO6")
    2034                      .dwattr $C$DW$200, DW_AT_TI_symbol_name("_GPIO6")
    2035                      .dwattr $C$DW$200, DW_AT_bit_offset(0x09)
    2036                      .dwattr $C$DW$200, DW_AT_bit_size(0x01)
    2037                      .dwattr $C$DW$200, DW_AT_data_member_location[DW_OP_plus_uconst 0x0]
    2038                      .dwattr $C$DW$200, DW_AT_accessibility(DW_ACCESS_public)
    2039              
    2040              $C$DW$201       .dwtag  DW_TAG_member
    2041                      .dwattr $C$DW$201, DW_AT_type(*$C$DW$T$19)
    2042                      .dwattr $C$DW$201, DW_AT_name("GPIO7")
    2043                      .dwattr $C$DW$201, DW_AT_TI_symbol_name("_GPIO7")
    2044                      .dwattr $C$DW$201, DW_AT_bit_offset(0x08)
    2045                      .dwattr $C$DW$201, DW_AT_bit_size(0x01)
    2046                      .dwattr $C$DW$201, DW_AT_data_member_location[DW_OP_plus_uconst 0x0]
    2047                      .dwattr $C$DW$201, DW_AT_accessibility(DW_ACCESS_public)
    2048              
    2049              $C$DW$202       .dwtag  DW_TAG_member
    2050                      .dwattr $C$DW$202, DW_AT_type(*$C$DW$T$19)
    2051                      .dwattr $C$DW$202, DW_AT_name("GPIO8")
    2052                      .dwattr $C$DW$202, DW_AT_TI_symbol_name("_GPIO8")
    2053                      .dwattr $C$DW$202, DW_AT_bit_offset(0x07)
    2054                      .dwattr $C$DW$202, DW_AT_bit_size(0x01)
    2055                      .dwattr $C$DW$202, DW_AT_data_member_location[DW_OP_plus_uconst 0x0]
    2056                      .dwattr $C$DW$202, DW_AT_accessibility(DW_ACCESS_public)
    2057              
    2058              $C$DW$203       .dwtag  DW_TAG_member
    2059                      .dwattr $C$DW$203, DW_AT_type(*$C$DW$T$19)
    2060                      .dwattr $C$DW$203, DW_AT_name("GPIO9")
    2061                      .dwattr $C$DW$203, DW_AT_TI_symbol_name("_GPIO9")
    2062                      .dwattr $C$DW$203, DW_AT_bit_offset(0x06)
    2063                      .dwattr $C$DW$203, DW_AT_bit_size(0x01)
    2064                      .dwattr $C$DW$203, DW_AT_data_member_location[DW_OP_plus_uconst 0x0]
TMS320C2000 Assembler PC v18.1.2 Fri Dec 14 17:55:34 2018

Tools Copyright (c) 1996-2017 Texas Instruments Incorporated
F2837xD_Spi.asm                                                      PAGE   39

    2065                      .dwattr $C$DW$203, DW_AT_accessibility(DW_ACCESS_public)
    2066              
    2067              $C$DW$204       .dwtag  DW_TAG_member
    2068                      .dwattr $C$DW$204, DW_AT_type(*$C$DW$T$19)
    2069                      .dwattr $C$DW$204, DW_AT_name("GPIO10")
    2070                      .dwattr $C$DW$204, DW_AT_TI_symbol_name("_GPIO10")
    2071                      .dwattr $C$DW$204, DW_AT_bit_offset(0x05)
    2072                      .dwattr $C$DW$204, DW_AT_bit_size(0x01)
    2073                      .dwattr $C$DW$204, DW_AT_data_member_location[DW_OP_plus_uconst 0x0]
    2074                      .dwattr $C$DW$204, DW_AT_accessibility(DW_ACCESS_public)
    2075              
    2076              $C$DW$205       .dwtag  DW_TAG_member
    2077                      .dwattr $C$DW$205, DW_AT_type(*$C$DW$T$19)
    2078                      .dwattr $C$DW$205, DW_AT_name("GPIO11")
    2079                      .dwattr $C$DW$205, DW_AT_TI_symbol_name("_GPIO11")
    2080                      .dwattr $C$DW$205, DW_AT_bit_offset(0x04)
    2081                      .dwattr $C$DW$205, DW_AT_bit_size(0x01)
    2082                      .dwattr $C$DW$205, DW_AT_data_member_location[DW_OP_plus_uconst 0x0]
    2083                      .dwattr $C$DW$205, DW_AT_accessibility(DW_ACCESS_public)
    2084              
    2085              $C$DW$206       .dwtag  DW_TAG_member
    2086                      .dwattr $C$DW$206, DW_AT_type(*$C$DW$T$19)
    2087                      .dwattr $C$DW$206, DW_AT_name("GPIO12")
    2088                      .dwattr $C$DW$206, DW_AT_TI_symbol_name("_GPIO12")
    2089                      .dwattr $C$DW$206, DW_AT_bit_offset(0x03)
    2090                      .dwattr $C$DW$206, DW_AT_bit_size(0x01)
    2091                      .dwattr $C$DW$206, DW_AT_data_member_location[DW_OP_plus_uconst 0x0]
    2092                      .dwattr $C$DW$206, DW_AT_accessibility(DW_ACCESS_public)
    2093              
    2094              $C$DW$207       .dwtag  DW_TAG_member
    2095                      .dwattr $C$DW$207, DW_AT_type(*$C$DW$T$19)
    2096                      .dwattr $C$DW$207, DW_AT_name("GPIO13")
    2097                      .dwattr $C$DW$207, DW_AT_TI_symbol_name("_GPIO13")
    2098                      .dwattr $C$DW$207, DW_AT_bit_offset(0x02)
    2099                      .dwattr $C$DW$207, DW_AT_bit_size(0x01)
    2100                      .dwattr $C$DW$207, DW_AT_data_member_location[DW_OP_plus_uconst 0x0]
    2101                      .dwattr $C$DW$207, DW_AT_accessibility(DW_ACCESS_public)
    2102              
    2103              $C$DW$208       .dwtag  DW_TAG_member
    2104                      .dwattr $C$DW$208, DW_AT_type(*$C$DW$T$19)
    2105                      .dwattr $C$DW$208, DW_AT_name("GPIO14")
    2106                      .dwattr $C$DW$208, DW_AT_TI_symbol_name("_GPIO14")
    2107                      .dwattr $C$DW$208, DW_AT_bit_offset(0x01)
    2108                      .dwattr $C$DW$208, DW_AT_bit_size(0x01)
    2109                      .dwattr $C$DW$208, DW_AT_data_member_location[DW_OP_plus_uconst 0x0]
    2110                      .dwattr $C$DW$208, DW_AT_accessibility(DW_ACCESS_public)
    2111              
    2112              $C$DW$209       .dwtag  DW_TAG_member
    2113                      .dwattr $C$DW$209, DW_AT_type(*$C$DW$T$19)
    2114                      .dwattr $C$DW$209, DW_AT_name("GPIO15")
    2115                      .dwattr $C$DW$209, DW_AT_TI_symbol_name("_GPIO15")
    2116                      .dwattr $C$DW$209, DW_AT_bit_offset(0x00)
    2117                      .dwattr $C$DW$209, DW_AT_bit_size(0x01)
    2118                      .dwattr $C$DW$209, DW_AT_data_member_location[DW_OP_plus_uconst 0x0]
    2119                      .dwattr $C$DW$209, DW_AT_accessibility(DW_ACCESS_public)
TMS320C2000 Assembler PC v18.1.2 Fri Dec 14 17:55:34 2018

Tools Copyright (c) 1996-2017 Texas Instruments Incorporated
F2837xD_Spi.asm                                                      PAGE   40

    2120              
    2121              $C$DW$210       .dwtag  DW_TAG_member
    2122                      .dwattr $C$DW$210, DW_AT_type(*$C$DW$T$19)
    2123                      .dwattr $C$DW$210, DW_AT_name("GPIO16")
    2124                      .dwattr $C$DW$210, DW_AT_TI_symbol_name("_GPIO16")
    2125                      .dwattr $C$DW$210, DW_AT_bit_offset(0x0f)
    2126                      .dwattr $C$DW$210, DW_AT_bit_size(0x01)
    2127                      .dwattr $C$DW$210, DW_AT_data_member_location[DW_OP_plus_uconst 0x1]
    2128                      .dwattr $C$DW$210, DW_AT_accessibility(DW_ACCESS_public)
    2129              
    2130              $C$DW$211       .dwtag  DW_TAG_member
    2131                      .dwattr $C$DW$211, DW_AT_type(*$C$DW$T$19)
    2132                      .dwattr $C$DW$211, DW_AT_name("GPIO17")
    2133                      .dwattr $C$DW$211, DW_AT_TI_symbol_name("_GPIO17")
    2134                      .dwattr $C$DW$211, DW_AT_bit_offset(0x0e)
    2135                      .dwattr $C$DW$211, DW_AT_bit_size(0x01)
    2136                      .dwattr $C$DW$211, DW_AT_data_member_location[DW_OP_plus_uconst 0x1]
    2137                      .dwattr $C$DW$211, DW_AT_accessibility(DW_ACCESS_public)
    2138              
    2139              $C$DW$212       .dwtag  DW_TAG_member
    2140                      .dwattr $C$DW$212, DW_AT_type(*$C$DW$T$19)
    2141                      .dwattr $C$DW$212, DW_AT_name("GPIO18")
    2142                      .dwattr $C$DW$212, DW_AT_TI_symbol_name("_GPIO18")
    2143                      .dwattr $C$DW$212, DW_AT_bit_offset(0x0d)
    2144                      .dwattr $C$DW$212, DW_AT_bit_size(0x01)
    2145                      .dwattr $C$DW$212, DW_AT_data_member_location[DW_OP_plus_uconst 0x1]
    2146                      .dwattr $C$DW$212, DW_AT_accessibility(DW_ACCESS_public)
    2147              
    2148              $C$DW$213       .dwtag  DW_TAG_member
    2149                      .dwattr $C$DW$213, DW_AT_type(*$C$DW$T$19)
    2150                      .dwattr $C$DW$213, DW_AT_name("GPIO19")
    2151                      .dwattr $C$DW$213, DW_AT_TI_symbol_name("_GPIO19")
    2152                      .dwattr $C$DW$213, DW_AT_bit_offset(0x0c)
    2153                      .dwattr $C$DW$213, DW_AT_bit_size(0x01)
    2154                      .dwattr $C$DW$213, DW_AT_data_member_location[DW_OP_plus_uconst 0x1]
    2155                      .dwattr $C$DW$213, DW_AT_accessibility(DW_ACCESS_public)
    2156              
    2157              $C$DW$214       .dwtag  DW_TAG_member
    2158                      .dwattr $C$DW$214, DW_AT_type(*$C$DW$T$19)
    2159                      .dwattr $C$DW$214, DW_AT_name("GPIO20")
    2160                      .dwattr $C$DW$214, DW_AT_TI_symbol_name("_GPIO20")
    2161                      .dwattr $C$DW$214, DW_AT_bit_offset(0x0b)
    2162                      .dwattr $C$DW$214, DW_AT_bit_size(0x01)
    2163                      .dwattr $C$DW$214, DW_AT_data_member_location[DW_OP_plus_uconst 0x1]
    2164                      .dwattr $C$DW$214, DW_AT_accessibility(DW_ACCESS_public)
    2165              
    2166              $C$DW$215       .dwtag  DW_TAG_member
    2167                      .dwattr $C$DW$215, DW_AT_type(*$C$DW$T$19)
    2168                      .dwattr $C$DW$215, DW_AT_name("GPIO21")
    2169                      .dwattr $C$DW$215, DW_AT_TI_symbol_name("_GPIO21")
    2170                      .dwattr $C$DW$215, DW_AT_bit_offset(0x0a)
    2171                      .dwattr $C$DW$215, DW_AT_bit_size(0x01)
    2172                      .dwattr $C$DW$215, DW_AT_data_member_location[DW_OP_plus_uconst 0x1]
    2173                      .dwattr $C$DW$215, DW_AT_accessibility(DW_ACCESS_public)
    2174              
TMS320C2000 Assembler PC v18.1.2 Fri Dec 14 17:55:34 2018

Tools Copyright (c) 1996-2017 Texas Instruments Incorporated
F2837xD_Spi.asm                                                      PAGE   41

    2175              $C$DW$216       .dwtag  DW_TAG_member
    2176                      .dwattr $C$DW$216, DW_AT_type(*$C$DW$T$19)
    2177                      .dwattr $C$DW$216, DW_AT_name("GPIO22")
    2178                      .dwattr $C$DW$216, DW_AT_TI_symbol_name("_GPIO22")
    2179                      .dwattr $C$DW$216, DW_AT_bit_offset(0x09)
    2180                      .dwattr $C$DW$216, DW_AT_bit_size(0x01)
    2181                      .dwattr $C$DW$216, DW_AT_data_member_location[DW_OP_plus_uconst 0x1]
    2182                      .dwattr $C$DW$216, DW_AT_accessibility(DW_ACCESS_public)
    2183              
    2184              $C$DW$217       .dwtag  DW_TAG_member
    2185                      .dwattr $C$DW$217, DW_AT_type(*$C$DW$T$19)
    2186                      .dwattr $C$DW$217, DW_AT_name("GPIO23")
    2187                      .dwattr $C$DW$217, DW_AT_TI_symbol_name("_GPIO23")
    2188                      .dwattr $C$DW$217, DW_AT_bit_offset(0x08)
    2189                      .dwattr $C$DW$217, DW_AT_bit_size(0x01)
    2190                      .dwattr $C$DW$217, DW_AT_data_member_location[DW_OP_plus_uconst 0x1]
    2191                      .dwattr $C$DW$217, DW_AT_accessibility(DW_ACCESS_public)
    2192              
    2193              $C$DW$218       .dwtag  DW_TAG_member
    2194                      .dwattr $C$DW$218, DW_AT_type(*$C$DW$T$19)
    2195                      .dwattr $C$DW$218, DW_AT_name("GPIO24")
    2196                      .dwattr $C$DW$218, DW_AT_TI_symbol_name("_GPIO24")
    2197                      .dwattr $C$DW$218, DW_AT_bit_offset(0x07)
    2198                      .dwattr $C$DW$218, DW_AT_bit_size(0x01)
    2199                      .dwattr $C$DW$218, DW_AT_data_member_location[DW_OP_plus_uconst 0x1]
    2200                      .dwattr $C$DW$218, DW_AT_accessibility(DW_ACCESS_public)
    2201              
    2202              $C$DW$219       .dwtag  DW_TAG_member
    2203                      .dwattr $C$DW$219, DW_AT_type(*$C$DW$T$19)
    2204                      .dwattr $C$DW$219, DW_AT_name("GPIO25")
    2205                      .dwattr $C$DW$219, DW_AT_TI_symbol_name("_GPIO25")
    2206                      .dwattr $C$DW$219, DW_AT_bit_offset(0x06)
    2207                      .dwattr $C$DW$219, DW_AT_bit_size(0x01)
    2208                      .dwattr $C$DW$219, DW_AT_data_member_location[DW_OP_plus_uconst 0x1]
    2209                      .dwattr $C$DW$219, DW_AT_accessibility(DW_ACCESS_public)
    2210              
    2211              $C$DW$220       .dwtag  DW_TAG_member
    2212                      .dwattr $C$DW$220, DW_AT_type(*$C$DW$T$19)
    2213                      .dwattr $C$DW$220, DW_AT_name("GPIO26")
    2214                      .dwattr $C$DW$220, DW_AT_TI_symbol_name("_GPIO26")
    2215                      .dwattr $C$DW$220, DW_AT_bit_offset(0x05)
    2216                      .dwattr $C$DW$220, DW_AT_bit_size(0x01)
    2217                      .dwattr $C$DW$220, DW_AT_data_member_location[DW_OP_plus_uconst 0x1]
    2218                      .dwattr $C$DW$220, DW_AT_accessibility(DW_ACCESS_public)
    2219              
    2220              $C$DW$221       .dwtag  DW_TAG_member
    2221                      .dwattr $C$DW$221, DW_AT_type(*$C$DW$T$19)
    2222                      .dwattr $C$DW$221, DW_AT_name("GPIO27")
    2223                      .dwattr $C$DW$221, DW_AT_TI_symbol_name("_GPIO27")
    2224                      .dwattr $C$DW$221, DW_AT_bit_offset(0x04)
    2225                      .dwattr $C$DW$221, DW_AT_bit_size(0x01)
    2226                      .dwattr $C$DW$221, DW_AT_data_member_location[DW_OP_plus_uconst 0x1]
    2227                      .dwattr $C$DW$221, DW_AT_accessibility(DW_ACCESS_public)
    2228              
    2229              $C$DW$222       .dwtag  DW_TAG_member
TMS320C2000 Assembler PC v18.1.2 Fri Dec 14 17:55:34 2018

Tools Copyright (c) 1996-2017 Texas Instruments Incorporated
F2837xD_Spi.asm                                                      PAGE   42

    2230                      .dwattr $C$DW$222, DW_AT_type(*$C$DW$T$19)
    2231                      .dwattr $C$DW$222, DW_AT_name("GPIO28")
    2232                      .dwattr $C$DW$222, DW_AT_TI_symbol_name("_GPIO28")
    2233                      .dwattr $C$DW$222, DW_AT_bit_offset(0x03)
    2234                      .dwattr $C$DW$222, DW_AT_bit_size(0x01)
    2235                      .dwattr $C$DW$222, DW_AT_data_member_location[DW_OP_plus_uconst 0x1]
    2236                      .dwattr $C$DW$222, DW_AT_accessibility(DW_ACCESS_public)
    2237              
    2238              $C$DW$223       .dwtag  DW_TAG_member
    2239                      .dwattr $C$DW$223, DW_AT_type(*$C$DW$T$19)
    2240                      .dwattr $C$DW$223, DW_AT_name("GPIO29")
    2241                      .dwattr $C$DW$223, DW_AT_TI_symbol_name("_GPIO29")
    2242                      .dwattr $C$DW$223, DW_AT_bit_offset(0x02)
    2243                      .dwattr $C$DW$223, DW_AT_bit_size(0x01)
    2244                      .dwattr $C$DW$223, DW_AT_data_member_location[DW_OP_plus_uconst 0x1]
    2245                      .dwattr $C$DW$223, DW_AT_accessibility(DW_ACCESS_public)
    2246              
    2247              $C$DW$224       .dwtag  DW_TAG_member
    2248                      .dwattr $C$DW$224, DW_AT_type(*$C$DW$T$19)
    2249                      .dwattr $C$DW$224, DW_AT_name("GPIO30")
    2250                      .dwattr $C$DW$224, DW_AT_TI_symbol_name("_GPIO30")
    2251                      .dwattr $C$DW$224, DW_AT_bit_offset(0x01)
    2252                      .dwattr $C$DW$224, DW_AT_bit_size(0x01)
    2253                      .dwattr $C$DW$224, DW_AT_data_member_location[DW_OP_plus_uconst 0x1]
    2254                      .dwattr $C$DW$224, DW_AT_accessibility(DW_ACCESS_public)
    2255              
    2256              $C$DW$225       .dwtag  DW_TAG_member
    2257                      .dwattr $C$DW$225, DW_AT_type(*$C$DW$T$19)
    2258                      .dwattr $C$DW$225, DW_AT_name("GPIO31")
    2259                      .dwattr $C$DW$225, DW_AT_TI_symbol_name("_GPIO31")
    2260                      .dwattr $C$DW$225, DW_AT_bit_offset(0x00)
    2261                      .dwattr $C$DW$225, DW_AT_bit_size(0x01)
    2262                      .dwattr $C$DW$225, DW_AT_data_member_location[DW_OP_plus_uconst 0x1]
    2263                      .dwattr $C$DW$225, DW_AT_accessibility(DW_ACCESS_public)
    2264              
    2265                      .dwendtag $C$DW$T$41
    2266              
    2267              
    2268              $C$DW$T$42      .dwtag  DW_TAG_union_type
    2269                      .dwattr $C$DW$T$42, DW_AT_name("GPALOCK_REG")
    2270                      .dwattr $C$DW$T$42, DW_AT_byte_size(0x02)
    2271              $C$DW$226       .dwtag  DW_TAG_member
    2272                      .dwattr $C$DW$226, DW_AT_type(*$C$DW$T$21)
    2273                      .dwattr $C$DW$226, DW_AT_name("all")
    2274                      .dwattr $C$DW$226, DW_AT_TI_symbol_name("_all")
    2275                      .dwattr $C$DW$226, DW_AT_data_member_location[DW_OP_plus_uconst 0x0]
    2276                      .dwattr $C$DW$226, DW_AT_accessibility(DW_ACCESS_public)
    2277              
    2278              $C$DW$227       .dwtag  DW_TAG_member
    2279                      .dwattr $C$DW$227, DW_AT_type(*$C$DW$T$41)
    2280                      .dwattr $C$DW$227, DW_AT_name("bit")
    2281                      .dwattr $C$DW$227, DW_AT_TI_symbol_name("_bit")
    2282                      .dwattr $C$DW$227, DW_AT_data_member_location[DW_OP_plus_uconst 0x0]
    2283                      .dwattr $C$DW$227, DW_AT_accessibility(DW_ACCESS_public)
    2284              
TMS320C2000 Assembler PC v18.1.2 Fri Dec 14 17:55:34 2018

Tools Copyright (c) 1996-2017 Texas Instruments Incorporated
F2837xD_Spi.asm                                                      PAGE   43

    2285                      .dwendtag $C$DW$T$42
    2286              
    2287              
    2288              $C$DW$T$43      .dwtag  DW_TAG_structure_type
    2289                      .dwattr $C$DW$T$43, DW_AT_name("GPAMUX1_BITS")
    2290                      .dwattr $C$DW$T$43, DW_AT_byte_size(0x02)
    2291              $C$DW$228       .dwtag  DW_TAG_member
    2292                      .dwattr $C$DW$228, DW_AT_type(*$C$DW$T$19)
    2293                      .dwattr $C$DW$228, DW_AT_name("GPIO0")
    2294                      .dwattr $C$DW$228, DW_AT_TI_symbol_name("_GPIO0")
    2295                      .dwattr $C$DW$228, DW_AT_bit_offset(0x0e)
    2296                      .dwattr $C$DW$228, DW_AT_bit_size(0x02)
    2297                      .dwattr $C$DW$228, DW_AT_data_member_location[DW_OP_plus_uconst 0x0]
    2298                      .dwattr $C$DW$228, DW_AT_accessibility(DW_ACCESS_public)
    2299              
    2300              $C$DW$229       .dwtag  DW_TAG_member
    2301                      .dwattr $C$DW$229, DW_AT_type(*$C$DW$T$19)
    2302                      .dwattr $C$DW$229, DW_AT_name("GPIO1")
    2303                      .dwattr $C$DW$229, DW_AT_TI_symbol_name("_GPIO1")
    2304                      .dwattr $C$DW$229, DW_AT_bit_offset(0x0c)
    2305                      .dwattr $C$DW$229, DW_AT_bit_size(0x02)
    2306                      .dwattr $C$DW$229, DW_AT_data_member_location[DW_OP_plus_uconst 0x0]
    2307                      .dwattr $C$DW$229, DW_AT_accessibility(DW_ACCESS_public)
    2308              
    2309              $C$DW$230       .dwtag  DW_TAG_member
    2310                      .dwattr $C$DW$230, DW_AT_type(*$C$DW$T$19)
    2311                      .dwattr $C$DW$230, DW_AT_name("GPIO2")
    2312                      .dwattr $C$DW$230, DW_AT_TI_symbol_name("_GPIO2")
    2313                      .dwattr $C$DW$230, DW_AT_bit_offset(0x0a)
    2314                      .dwattr $C$DW$230, DW_AT_bit_size(0x02)
    2315                      .dwattr $C$DW$230, DW_AT_data_member_location[DW_OP_plus_uconst 0x0]
    2316                      .dwattr $C$DW$230, DW_AT_accessibility(DW_ACCESS_public)
    2317              
    2318              $C$DW$231       .dwtag  DW_TAG_member
    2319                      .dwattr $C$DW$231, DW_AT_type(*$C$DW$T$19)
    2320                      .dwattr $C$DW$231, DW_AT_name("GPIO3")
    2321                      .dwattr $C$DW$231, DW_AT_TI_symbol_name("_GPIO3")
    2322                      .dwattr $C$DW$231, DW_AT_bit_offset(0x08)
    2323                      .dwattr $C$DW$231, DW_AT_bit_size(0x02)
    2324                      .dwattr $C$DW$231, DW_AT_data_member_location[DW_OP_plus_uconst 0x0]
    2325                      .dwattr $C$DW$231, DW_AT_accessibility(DW_ACCESS_public)
    2326              
    2327              $C$DW$232       .dwtag  DW_TAG_member
    2328                      .dwattr $C$DW$232, DW_AT_type(*$C$DW$T$19)
    2329                      .dwattr $C$DW$232, DW_AT_name("GPIO4")
    2330                      .dwattr $C$DW$232, DW_AT_TI_symbol_name("_GPIO4")
    2331                      .dwattr $C$DW$232, DW_AT_bit_offset(0x06)
    2332                      .dwattr $C$DW$232, DW_AT_bit_size(0x02)
    2333                      .dwattr $C$DW$232, DW_AT_data_member_location[DW_OP_plus_uconst 0x0]
    2334                      .dwattr $C$DW$232, DW_AT_accessibility(DW_ACCESS_public)
    2335              
    2336              $C$DW$233       .dwtag  DW_TAG_member
    2337                      .dwattr $C$DW$233, DW_AT_type(*$C$DW$T$19)
    2338                      .dwattr $C$DW$233, DW_AT_name("GPIO5")
    2339                      .dwattr $C$DW$233, DW_AT_TI_symbol_name("_GPIO5")
TMS320C2000 Assembler PC v18.1.2 Fri Dec 14 17:55:34 2018

Tools Copyright (c) 1996-2017 Texas Instruments Incorporated
F2837xD_Spi.asm                                                      PAGE   44

    2340                      .dwattr $C$DW$233, DW_AT_bit_offset(0x04)
    2341                      .dwattr $C$DW$233, DW_AT_bit_size(0x02)
    2342                      .dwattr $C$DW$233, DW_AT_data_member_location[DW_OP_plus_uconst 0x0]
    2343                      .dwattr $C$DW$233, DW_AT_accessibility(DW_ACCESS_public)
    2344              
    2345              $C$DW$234       .dwtag  DW_TAG_member
    2346                      .dwattr $C$DW$234, DW_AT_type(*$C$DW$T$19)
    2347                      .dwattr $C$DW$234, DW_AT_name("GPIO6")
    2348                      .dwattr $C$DW$234, DW_AT_TI_symbol_name("_GPIO6")
    2349                      .dwattr $C$DW$234, DW_AT_bit_offset(0x02)
    2350                      .dwattr $C$DW$234, DW_AT_bit_size(0x02)
    2351                      .dwattr $C$DW$234, DW_AT_data_member_location[DW_OP_plus_uconst 0x0]
    2352                      .dwattr $C$DW$234, DW_AT_accessibility(DW_ACCESS_public)
    2353              
    2354              $C$DW$235       .dwtag  DW_TAG_member
    2355                      .dwattr $C$DW$235, DW_AT_type(*$C$DW$T$19)
    2356                      .dwattr $C$DW$235, DW_AT_name("GPIO7")
    2357                      .dwattr $C$DW$235, DW_AT_TI_symbol_name("_GPIO7")
    2358                      .dwattr $C$DW$235, DW_AT_bit_offset(0x00)
    2359                      .dwattr $C$DW$235, DW_AT_bit_size(0x02)
    2360                      .dwattr $C$DW$235, DW_AT_data_member_location[DW_OP_plus_uconst 0x0]
    2361                      .dwattr $C$DW$235, DW_AT_accessibility(DW_ACCESS_public)
    2362              
    2363              $C$DW$236       .dwtag  DW_TAG_member
    2364                      .dwattr $C$DW$236, DW_AT_type(*$C$DW$T$19)
    2365                      .dwattr $C$DW$236, DW_AT_name("GPIO8")
    2366                      .dwattr $C$DW$236, DW_AT_TI_symbol_name("_GPIO8")
    2367                      .dwattr $C$DW$236, DW_AT_bit_offset(0x0e)
    2368                      .dwattr $C$DW$236, DW_AT_bit_size(0x02)
    2369                      .dwattr $C$DW$236, DW_AT_data_member_location[DW_OP_plus_uconst 0x1]
    2370                      .dwattr $C$DW$236, DW_AT_accessibility(DW_ACCESS_public)
    2371              
    2372              $C$DW$237       .dwtag  DW_TAG_member
    2373                      .dwattr $C$DW$237, DW_AT_type(*$C$DW$T$19)
    2374                      .dwattr $C$DW$237, DW_AT_name("GPIO9")
    2375                      .dwattr $C$DW$237, DW_AT_TI_symbol_name("_GPIO9")
    2376                      .dwattr $C$DW$237, DW_AT_bit_offset(0x0c)
    2377                      .dwattr $C$DW$237, DW_AT_bit_size(0x02)
    2378                      .dwattr $C$DW$237, DW_AT_data_member_location[DW_OP_plus_uconst 0x1]
    2379                      .dwattr $C$DW$237, DW_AT_accessibility(DW_ACCESS_public)
    2380              
    2381              $C$DW$238       .dwtag  DW_TAG_member
    2382                      .dwattr $C$DW$238, DW_AT_type(*$C$DW$T$19)
    2383                      .dwattr $C$DW$238, DW_AT_name("GPIO10")
    2384                      .dwattr $C$DW$238, DW_AT_TI_symbol_name("_GPIO10")
    2385                      .dwattr $C$DW$238, DW_AT_bit_offset(0x0a)
    2386                      .dwattr $C$DW$238, DW_AT_bit_size(0x02)
    2387                      .dwattr $C$DW$238, DW_AT_data_member_location[DW_OP_plus_uconst 0x1]
    2388                      .dwattr $C$DW$238, DW_AT_accessibility(DW_ACCESS_public)
    2389              
    2390              $C$DW$239       .dwtag  DW_TAG_member
    2391                      .dwattr $C$DW$239, DW_AT_type(*$C$DW$T$19)
    2392                      .dwattr $C$DW$239, DW_AT_name("GPIO11")
    2393                      .dwattr $C$DW$239, DW_AT_TI_symbol_name("_GPIO11")
    2394                      .dwattr $C$DW$239, DW_AT_bit_offset(0x08)
TMS320C2000 Assembler PC v18.1.2 Fri Dec 14 17:55:34 2018

Tools Copyright (c) 1996-2017 Texas Instruments Incorporated
F2837xD_Spi.asm                                                      PAGE   45

    2395                      .dwattr $C$DW$239, DW_AT_bit_size(0x02)
    2396                      .dwattr $C$DW$239, DW_AT_data_member_location[DW_OP_plus_uconst 0x1]
    2397                      .dwattr $C$DW$239, DW_AT_accessibility(DW_ACCESS_public)
    2398              
    2399              $C$DW$240       .dwtag  DW_TAG_member
    2400                      .dwattr $C$DW$240, DW_AT_type(*$C$DW$T$19)
    2401                      .dwattr $C$DW$240, DW_AT_name("GPIO12")
    2402                      .dwattr $C$DW$240, DW_AT_TI_symbol_name("_GPIO12")
    2403                      .dwattr $C$DW$240, DW_AT_bit_offset(0x06)
    2404                      .dwattr $C$DW$240, DW_AT_bit_size(0x02)
    2405                      .dwattr $C$DW$240, DW_AT_data_member_location[DW_OP_plus_uconst 0x1]
    2406                      .dwattr $C$DW$240, DW_AT_accessibility(DW_ACCESS_public)
    2407              
    2408              $C$DW$241       .dwtag  DW_TAG_member
    2409                      .dwattr $C$DW$241, DW_AT_type(*$C$DW$T$19)
    2410                      .dwattr $C$DW$241, DW_AT_name("GPIO13")
    2411                      .dwattr $C$DW$241, DW_AT_TI_symbol_name("_GPIO13")
    2412                      .dwattr $C$DW$241, DW_AT_bit_offset(0x04)
    2413                      .dwattr $C$DW$241, DW_AT_bit_size(0x02)
    2414                      .dwattr $C$DW$241, DW_AT_data_member_location[DW_OP_plus_uconst 0x1]
    2415                      .dwattr $C$DW$241, DW_AT_accessibility(DW_ACCESS_public)
    2416              
    2417              $C$DW$242       .dwtag  DW_TAG_member
    2418                      .dwattr $C$DW$242, DW_AT_type(*$C$DW$T$19)
    2419                      .dwattr $C$DW$242, DW_AT_name("GPIO14")
    2420                      .dwattr $C$DW$242, DW_AT_TI_symbol_name("_GPIO14")
    2421                      .dwattr $C$DW$242, DW_AT_bit_offset(0x02)
    2422                      .dwattr $C$DW$242, DW_AT_bit_size(0x02)
    2423                      .dwattr $C$DW$242, DW_AT_data_member_location[DW_OP_plus_uconst 0x1]
    2424                      .dwattr $C$DW$242, DW_AT_accessibility(DW_ACCESS_public)
    2425              
    2426              $C$DW$243       .dwtag  DW_TAG_member
    2427                      .dwattr $C$DW$243, DW_AT_type(*$C$DW$T$19)
    2428                      .dwattr $C$DW$243, DW_AT_name("GPIO15")
    2429                      .dwattr $C$DW$243, DW_AT_TI_symbol_name("_GPIO15")
    2430                      .dwattr $C$DW$243, DW_AT_bit_offset(0x00)
    2431                      .dwattr $C$DW$243, DW_AT_bit_size(0x02)
    2432                      .dwattr $C$DW$243, DW_AT_data_member_location[DW_OP_plus_uconst 0x1]
    2433                      .dwattr $C$DW$243, DW_AT_accessibility(DW_ACCESS_public)
    2434              
    2435                      .dwendtag $C$DW$T$43
    2436              
    2437              
    2438              $C$DW$T$44      .dwtag  DW_TAG_union_type
    2439                      .dwattr $C$DW$T$44, DW_AT_name("GPAMUX1_REG")
    2440                      .dwattr $C$DW$T$44, DW_AT_byte_size(0x02)
    2441              $C$DW$244       .dwtag  DW_TAG_member
    2442                      .dwattr $C$DW$244, DW_AT_type(*$C$DW$T$21)
    2443                      .dwattr $C$DW$244, DW_AT_name("all")
    2444                      .dwattr $C$DW$244, DW_AT_TI_symbol_name("_all")
    2445                      .dwattr $C$DW$244, DW_AT_data_member_location[DW_OP_plus_uconst 0x0]
    2446                      .dwattr $C$DW$244, DW_AT_accessibility(DW_ACCESS_public)
    2447              
    2448              $C$DW$245       .dwtag  DW_TAG_member
    2449                      .dwattr $C$DW$245, DW_AT_type(*$C$DW$T$43)
TMS320C2000 Assembler PC v18.1.2 Fri Dec 14 17:55:34 2018

Tools Copyright (c) 1996-2017 Texas Instruments Incorporated
F2837xD_Spi.asm                                                      PAGE   46

    2450                      .dwattr $C$DW$245, DW_AT_name("bit")
    2451                      .dwattr $C$DW$245, DW_AT_TI_symbol_name("_bit")
    2452                      .dwattr $C$DW$245, DW_AT_data_member_location[DW_OP_plus_uconst 0x0]
    2453                      .dwattr $C$DW$245, DW_AT_accessibility(DW_ACCESS_public)
    2454              
    2455                      .dwendtag $C$DW$T$44
    2456              
    2457              
    2458              $C$DW$T$45      .dwtag  DW_TAG_structure_type
    2459                      .dwattr $C$DW$T$45, DW_AT_name("GPAMUX2_BITS")
    2460                      .dwattr $C$DW$T$45, DW_AT_byte_size(0x02)
    2461              $C$DW$246       .dwtag  DW_TAG_member
    2462                      .dwattr $C$DW$246, DW_AT_type(*$C$DW$T$19)
    2463                      .dwattr $C$DW$246, DW_AT_name("GPIO16")
    2464                      .dwattr $C$DW$246, DW_AT_TI_symbol_name("_GPIO16")
    2465                      .dwattr $C$DW$246, DW_AT_bit_offset(0x0e)
    2466                      .dwattr $C$DW$246, DW_AT_bit_size(0x02)
    2467                      .dwattr $C$DW$246, DW_AT_data_member_location[DW_OP_plus_uconst 0x0]
    2468                      .dwattr $C$DW$246, DW_AT_accessibility(DW_ACCESS_public)
    2469              
    2470              $C$DW$247       .dwtag  DW_TAG_member
    2471                      .dwattr $C$DW$247, DW_AT_type(*$C$DW$T$19)
    2472                      .dwattr $C$DW$247, DW_AT_name("GPIO17")
    2473                      .dwattr $C$DW$247, DW_AT_TI_symbol_name("_GPIO17")
    2474                      .dwattr $C$DW$247, DW_AT_bit_offset(0x0c)
    2475                      .dwattr $C$DW$247, DW_AT_bit_size(0x02)
    2476                      .dwattr $C$DW$247, DW_AT_data_member_location[DW_OP_plus_uconst 0x0]
    2477                      .dwattr $C$DW$247, DW_AT_accessibility(DW_ACCESS_public)
    2478              
    2479              $C$DW$248       .dwtag  DW_TAG_member
    2480                      .dwattr $C$DW$248, DW_AT_type(*$C$DW$T$19)
    2481                      .dwattr $C$DW$248, DW_AT_name("GPIO18")
    2482                      .dwattr $C$DW$248, DW_AT_TI_symbol_name("_GPIO18")
    2483                      .dwattr $C$DW$248, DW_AT_bit_offset(0x0a)
    2484                      .dwattr $C$DW$248, DW_AT_bit_size(0x02)
    2485                      .dwattr $C$DW$248, DW_AT_data_member_location[DW_OP_plus_uconst 0x0]
    2486                      .dwattr $C$DW$248, DW_AT_accessibility(DW_ACCESS_public)
    2487              
    2488              $C$DW$249       .dwtag  DW_TAG_member
    2489                      .dwattr $C$DW$249, DW_AT_type(*$C$DW$T$19)
    2490                      .dwattr $C$DW$249, DW_AT_name("GPIO19")
    2491                      .dwattr $C$DW$249, DW_AT_TI_symbol_name("_GPIO19")
    2492                      .dwattr $C$DW$249, DW_AT_bit_offset(0x08)
    2493                      .dwattr $C$DW$249, DW_AT_bit_size(0x02)
    2494                      .dwattr $C$DW$249, DW_AT_data_member_location[DW_OP_plus_uconst 0x0]
    2495                      .dwattr $C$DW$249, DW_AT_accessibility(DW_ACCESS_public)
    2496              
    2497              $C$DW$250       .dwtag  DW_TAG_member
    2498                      .dwattr $C$DW$250, DW_AT_type(*$C$DW$T$19)
    2499                      .dwattr $C$DW$250, DW_AT_name("GPIO20")
    2500                      .dwattr $C$DW$250, DW_AT_TI_symbol_name("_GPIO20")
    2501                      .dwattr $C$DW$250, DW_AT_bit_offset(0x06)
    2502                      .dwattr $C$DW$250, DW_AT_bit_size(0x02)
    2503                      .dwattr $C$DW$250, DW_AT_data_member_location[DW_OP_plus_uconst 0x0]
    2504                      .dwattr $C$DW$250, DW_AT_accessibility(DW_ACCESS_public)
TMS320C2000 Assembler PC v18.1.2 Fri Dec 14 17:55:34 2018

Tools Copyright (c) 1996-2017 Texas Instruments Incorporated
F2837xD_Spi.asm                                                      PAGE   47

    2505              
    2506              $C$DW$251       .dwtag  DW_TAG_member
    2507                      .dwattr $C$DW$251, DW_AT_type(*$C$DW$T$19)
    2508                      .dwattr $C$DW$251, DW_AT_name("GPIO21")
    2509                      .dwattr $C$DW$251, DW_AT_TI_symbol_name("_GPIO21")
    2510                      .dwattr $C$DW$251, DW_AT_bit_offset(0x04)
    2511                      .dwattr $C$DW$251, DW_AT_bit_size(0x02)
    2512                      .dwattr $C$DW$251, DW_AT_data_member_location[DW_OP_plus_uconst 0x0]
    2513                      .dwattr $C$DW$251, DW_AT_accessibility(DW_ACCESS_public)
    2514              
    2515              $C$DW$252       .dwtag  DW_TAG_member
    2516                      .dwattr $C$DW$252, DW_AT_type(*$C$DW$T$19)
    2517                      .dwattr $C$DW$252, DW_AT_name("GPIO22")
    2518                      .dwattr $C$DW$252, DW_AT_TI_symbol_name("_GPIO22")
    2519                      .dwattr $C$DW$252, DW_AT_bit_offset(0x02)
    2520                      .dwattr $C$DW$252, DW_AT_bit_size(0x02)
    2521                      .dwattr $C$DW$252, DW_AT_data_member_location[DW_OP_plus_uconst 0x0]
    2522                      .dwattr $C$DW$252, DW_AT_accessibility(DW_ACCESS_public)
    2523              
    2524              $C$DW$253       .dwtag  DW_TAG_member
    2525                      .dwattr $C$DW$253, DW_AT_type(*$C$DW$T$19)
    2526                      .dwattr $C$DW$253, DW_AT_name("GPIO23")
    2527                      .dwattr $C$DW$253, DW_AT_TI_symbol_name("_GPIO23")
    2528                      .dwattr $C$DW$253, DW_AT_bit_offset(0x00)
    2529                      .dwattr $C$DW$253, DW_AT_bit_size(0x02)
    2530                      .dwattr $C$DW$253, DW_AT_data_member_location[DW_OP_plus_uconst 0x0]
    2531                      .dwattr $C$DW$253, DW_AT_accessibility(DW_ACCESS_public)
    2532              
    2533              $C$DW$254       .dwtag  DW_TAG_member
    2534                      .dwattr $C$DW$254, DW_AT_type(*$C$DW$T$19)
    2535                      .dwattr $C$DW$254, DW_AT_name("GPIO24")
    2536                      .dwattr $C$DW$254, DW_AT_TI_symbol_name("_GPIO24")
    2537                      .dwattr $C$DW$254, DW_AT_bit_offset(0x0e)
    2538                      .dwattr $C$DW$254, DW_AT_bit_size(0x02)
    2539                      .dwattr $C$DW$254, DW_AT_data_member_location[DW_OP_plus_uconst 0x1]
    2540                      .dwattr $C$DW$254, DW_AT_accessibility(DW_ACCESS_public)
    2541              
    2542              $C$DW$255       .dwtag  DW_TAG_member
    2543                      .dwattr $C$DW$255, DW_AT_type(*$C$DW$T$19)
    2544                      .dwattr $C$DW$255, DW_AT_name("GPIO25")
    2545                      .dwattr $C$DW$255, DW_AT_TI_symbol_name("_GPIO25")
    2546                      .dwattr $C$DW$255, DW_AT_bit_offset(0x0c)
    2547                      .dwattr $C$DW$255, DW_AT_bit_size(0x02)
    2548                      .dwattr $C$DW$255, DW_AT_data_member_location[DW_OP_plus_uconst 0x1]
    2549                      .dwattr $C$DW$255, DW_AT_accessibility(DW_ACCESS_public)
    2550              
    2551              $C$DW$256       .dwtag  DW_TAG_member
    2552                      .dwattr $C$DW$256, DW_AT_type(*$C$DW$T$19)
    2553                      .dwattr $C$DW$256, DW_AT_name("GPIO26")
    2554                      .dwattr $C$DW$256, DW_AT_TI_symbol_name("_GPIO26")
    2555                      .dwattr $C$DW$256, DW_AT_bit_offset(0x0a)
    2556                      .dwattr $C$DW$256, DW_AT_bit_size(0x02)
    2557                      .dwattr $C$DW$256, DW_AT_data_member_location[DW_OP_plus_uconst 0x1]
    2558                      .dwattr $C$DW$256, DW_AT_accessibility(DW_ACCESS_public)
    2559              
TMS320C2000 Assembler PC v18.1.2 Fri Dec 14 17:55:34 2018

Tools Copyright (c) 1996-2017 Texas Instruments Incorporated
F2837xD_Spi.asm                                                      PAGE   48

    2560              $C$DW$257       .dwtag  DW_TAG_member
    2561                      .dwattr $C$DW$257, DW_AT_type(*$C$DW$T$19)
    2562                      .dwattr $C$DW$257, DW_AT_name("GPIO27")
    2563                      .dwattr $C$DW$257, DW_AT_TI_symbol_name("_GPIO27")
    2564                      .dwattr $C$DW$257, DW_AT_bit_offset(0x08)
    2565                      .dwattr $C$DW$257, DW_AT_bit_size(0x02)
    2566                      .dwattr $C$DW$257, DW_AT_data_member_location[DW_OP_plus_uconst 0x1]
    2567                      .dwattr $C$DW$257, DW_AT_accessibility(DW_ACCESS_public)
    2568              
    2569              $C$DW$258       .dwtag  DW_TAG_member
    2570                      .dwattr $C$DW$258, DW_AT_type(*$C$DW$T$19)
    2571                      .dwattr $C$DW$258, DW_AT_name("GPIO28")
    2572                      .dwattr $C$DW$258, DW_AT_TI_symbol_name("_GPIO28")
    2573                      .dwattr $C$DW$258, DW_AT_bit_offset(0x06)
    2574                      .dwattr $C$DW$258, DW_AT_bit_size(0x02)
    2575                      .dwattr $C$DW$258, DW_AT_data_member_location[DW_OP_plus_uconst 0x1]
    2576                      .dwattr $C$DW$258, DW_AT_accessibility(DW_ACCESS_public)
    2577              
    2578              $C$DW$259       .dwtag  DW_TAG_member
    2579                      .dwattr $C$DW$259, DW_AT_type(*$C$DW$T$19)
    2580                      .dwattr $C$DW$259, DW_AT_name("GPIO29")
    2581                      .dwattr $C$DW$259, DW_AT_TI_symbol_name("_GPIO29")
    2582                      .dwattr $C$DW$259, DW_AT_bit_offset(0x04)
    2583                      .dwattr $C$DW$259, DW_AT_bit_size(0x02)
    2584                      .dwattr $C$DW$259, DW_AT_data_member_location[DW_OP_plus_uconst 0x1]
    2585                      .dwattr $C$DW$259, DW_AT_accessibility(DW_ACCESS_public)
    2586              
    2587              $C$DW$260       .dwtag  DW_TAG_member
    2588                      .dwattr $C$DW$260, DW_AT_type(*$C$DW$T$19)
    2589                      .dwattr $C$DW$260, DW_AT_name("GPIO30")
    2590                      .dwattr $C$DW$260, DW_AT_TI_symbol_name("_GPIO30")
    2591                      .dwattr $C$DW$260, DW_AT_bit_offset(0x02)
    2592                      .dwattr $C$DW$260, DW_AT_bit_size(0x02)
    2593                      .dwattr $C$DW$260, DW_AT_data_member_location[DW_OP_plus_uconst 0x1]
    2594                      .dwattr $C$DW$260, DW_AT_accessibility(DW_ACCESS_public)
    2595              
    2596              $C$DW$261       .dwtag  DW_TAG_member
    2597                      .dwattr $C$DW$261, DW_AT_type(*$C$DW$T$19)
    2598                      .dwattr $C$DW$261, DW_AT_name("GPIO31")
    2599                      .dwattr $C$DW$261, DW_AT_TI_symbol_name("_GPIO31")
    2600                      .dwattr $C$DW$261, DW_AT_bit_offset(0x00)
    2601                      .dwattr $C$DW$261, DW_AT_bit_size(0x02)
    2602                      .dwattr $C$DW$261, DW_AT_data_member_location[DW_OP_plus_uconst 0x1]
    2603                      .dwattr $C$DW$261, DW_AT_accessibility(DW_ACCESS_public)
    2604              
    2605                      .dwendtag $C$DW$T$45
    2606              
    2607              
    2608              $C$DW$T$46      .dwtag  DW_TAG_union_type
    2609                      .dwattr $C$DW$T$46, DW_AT_name("GPAMUX2_REG")
    2610                      .dwattr $C$DW$T$46, DW_AT_byte_size(0x02)
    2611              $C$DW$262       .dwtag  DW_TAG_member
    2612                      .dwattr $C$DW$262, DW_AT_type(*$C$DW$T$21)
    2613                      .dwattr $C$DW$262, DW_AT_name("all")
    2614                      .dwattr $C$DW$262, DW_AT_TI_symbol_name("_all")
TMS320C2000 Assembler PC v18.1.2 Fri Dec 14 17:55:34 2018

Tools Copyright (c) 1996-2017 Texas Instruments Incorporated
F2837xD_Spi.asm                                                      PAGE   49

    2615                      .dwattr $C$DW$262, DW_AT_data_member_location[DW_OP_plus_uconst 0x0]
    2616                      .dwattr $C$DW$262, DW_AT_accessibility(DW_ACCESS_public)
    2617              
    2618              $C$DW$263       .dwtag  DW_TAG_member
    2619                      .dwattr $C$DW$263, DW_AT_type(*$C$DW$T$45)
    2620                      .dwattr $C$DW$263, DW_AT_name("bit")
    2621                      .dwattr $C$DW$263, DW_AT_TI_symbol_name("_bit")
    2622                      .dwattr $C$DW$263, DW_AT_data_member_location[DW_OP_plus_uconst 0x0]
    2623                      .dwattr $C$DW$263, DW_AT_accessibility(DW_ACCESS_public)
    2624              
    2625                      .dwendtag $C$DW$T$46
    2626              
    2627              
    2628              $C$DW$T$47      .dwtag  DW_TAG_structure_type
    2629                      .dwattr $C$DW$T$47, DW_AT_name("GPAODR_BITS")
    2630                      .dwattr $C$DW$T$47, DW_AT_byte_size(0x02)
    2631              $C$DW$264       .dwtag  DW_TAG_member
    2632                      .dwattr $C$DW$264, DW_AT_type(*$C$DW$T$19)
    2633                      .dwattr $C$DW$264, DW_AT_name("GPIO0")
    2634                      .dwattr $C$DW$264, DW_AT_TI_symbol_name("_GPIO0")
    2635                      .dwattr $C$DW$264, DW_AT_bit_offset(0x0f)
    2636                      .dwattr $C$DW$264, DW_AT_bit_size(0x01)
    2637                      .dwattr $C$DW$264, DW_AT_data_member_location[DW_OP_plus_uconst 0x0]
    2638                      .dwattr $C$DW$264, DW_AT_accessibility(DW_ACCESS_public)
    2639              
    2640              $C$DW$265       .dwtag  DW_TAG_member
    2641                      .dwattr $C$DW$265, DW_AT_type(*$C$DW$T$19)
    2642                      .dwattr $C$DW$265, DW_AT_name("GPIO1")
    2643                      .dwattr $C$DW$265, DW_AT_TI_symbol_name("_GPIO1")
    2644                      .dwattr $C$DW$265, DW_AT_bit_offset(0x0e)
    2645                      .dwattr $C$DW$265, DW_AT_bit_size(0x01)
    2646                      .dwattr $C$DW$265, DW_AT_data_member_location[DW_OP_plus_uconst 0x0]
    2647                      .dwattr $C$DW$265, DW_AT_accessibility(DW_ACCESS_public)
    2648              
    2649              $C$DW$266       .dwtag  DW_TAG_member
    2650                      .dwattr $C$DW$266, DW_AT_type(*$C$DW$T$19)
    2651                      .dwattr $C$DW$266, DW_AT_name("GPIO2")
    2652                      .dwattr $C$DW$266, DW_AT_TI_symbol_name("_GPIO2")
    2653                      .dwattr $C$DW$266, DW_AT_bit_offset(0x0d)
    2654                      .dwattr $C$DW$266, DW_AT_bit_size(0x01)
    2655                      .dwattr $C$DW$266, DW_AT_data_member_location[DW_OP_plus_uconst 0x0]
    2656                      .dwattr $C$DW$266, DW_AT_accessibility(DW_ACCESS_public)
    2657              
    2658              $C$DW$267       .dwtag  DW_TAG_member
    2659                      .dwattr $C$DW$267, DW_AT_type(*$C$DW$T$19)
    2660                      .dwattr $C$DW$267, DW_AT_name("GPIO3")
    2661                      .dwattr $C$DW$267, DW_AT_TI_symbol_name("_GPIO3")
    2662                      .dwattr $C$DW$267, DW_AT_bit_offset(0x0c)
    2663                      .dwattr $C$DW$267, DW_AT_bit_size(0x01)
    2664                      .dwattr $C$DW$267, DW_AT_data_member_location[DW_OP_plus_uconst 0x0]
    2665                      .dwattr $C$DW$267, DW_AT_accessibility(DW_ACCESS_public)
    2666              
    2667              $C$DW$268       .dwtag  DW_TAG_member
    2668                      .dwattr $C$DW$268, DW_AT_type(*$C$DW$T$19)
    2669                      .dwattr $C$DW$268, DW_AT_name("GPIO4")
TMS320C2000 Assembler PC v18.1.2 Fri Dec 14 17:55:34 2018

Tools Copyright (c) 1996-2017 Texas Instruments Incorporated
F2837xD_Spi.asm                                                      PAGE   50

    2670                      .dwattr $C$DW$268, DW_AT_TI_symbol_name("_GPIO4")
    2671                      .dwattr $C$DW$268, DW_AT_bit_offset(0x0b)
    2672                      .dwattr $C$DW$268, DW_AT_bit_size(0x01)
    2673                      .dwattr $C$DW$268, DW_AT_data_member_location[DW_OP_plus_uconst 0x0]
    2674                      .dwattr $C$DW$268, DW_AT_accessibility(DW_ACCESS_public)
    2675              
    2676              $C$DW$269       .dwtag  DW_TAG_member
    2677                      .dwattr $C$DW$269, DW_AT_type(*$C$DW$T$19)
    2678                      .dwattr $C$DW$269, DW_AT_name("GPIO5")
    2679                      .dwattr $C$DW$269, DW_AT_TI_symbol_name("_GPIO5")
    2680                      .dwattr $C$DW$269, DW_AT_bit_offset(0x0a)
    2681                      .dwattr $C$DW$269, DW_AT_bit_size(0x01)
    2682                      .dwattr $C$DW$269, DW_AT_data_member_location[DW_OP_plus_uconst 0x0]
    2683                      .dwattr $C$DW$269, DW_AT_accessibility(DW_ACCESS_public)
    2684              
    2685              $C$DW$270       .dwtag  DW_TAG_member
    2686                      .dwattr $C$DW$270, DW_AT_type(*$C$DW$T$19)
    2687                      .dwattr $C$DW$270, DW_AT_name("GPIO6")
    2688                      .dwattr $C$DW$270, DW_AT_TI_symbol_name("_GPIO6")
    2689                      .dwattr $C$DW$270, DW_AT_bit_offset(0x09)
    2690                      .dwattr $C$DW$270, DW_AT_bit_size(0x01)
    2691                      .dwattr $C$DW$270, DW_AT_data_member_location[DW_OP_plus_uconst 0x0]
    2692                      .dwattr $C$DW$270, DW_AT_accessibility(DW_ACCESS_public)
    2693              
    2694              $C$DW$271       .dwtag  DW_TAG_member
    2695                      .dwattr $C$DW$271, DW_AT_type(*$C$DW$T$19)
    2696                      .dwattr $C$DW$271, DW_AT_name("GPIO7")
    2697                      .dwattr $C$DW$271, DW_AT_TI_symbol_name("_GPIO7")
    2698                      .dwattr $C$DW$271, DW_AT_bit_offset(0x08)
    2699                      .dwattr $C$DW$271, DW_AT_bit_size(0x01)
    2700                      .dwattr $C$DW$271, DW_AT_data_member_location[DW_OP_plus_uconst 0x0]
    2701                      .dwattr $C$DW$271, DW_AT_accessibility(DW_ACCESS_public)
    2702              
    2703              $C$DW$272       .dwtag  DW_TAG_member
    2704                      .dwattr $C$DW$272, DW_AT_type(*$C$DW$T$19)
    2705                      .dwattr $C$DW$272, DW_AT_name("GPIO8")
    2706                      .dwattr $C$DW$272, DW_AT_TI_symbol_name("_GPIO8")
    2707                      .dwattr $C$DW$272, DW_AT_bit_offset(0x07)
    2708                      .dwattr $C$DW$272, DW_AT_bit_size(0x01)
    2709                      .dwattr $C$DW$272, DW_AT_data_member_location[DW_OP_plus_uconst 0x0]
    2710                      .dwattr $C$DW$272, DW_AT_accessibility(DW_ACCESS_public)
    2711              
    2712              $C$DW$273       .dwtag  DW_TAG_member
    2713                      .dwattr $C$DW$273, DW_AT_type(*$C$DW$T$19)
    2714                      .dwattr $C$DW$273, DW_AT_name("GPIO9")
    2715                      .dwattr $C$DW$273, DW_AT_TI_symbol_name("_GPIO9")
    2716                      .dwattr $C$DW$273, DW_AT_bit_offset(0x06)
    2717                      .dwattr $C$DW$273, DW_AT_bit_size(0x01)
    2718                      .dwattr $C$DW$273, DW_AT_data_member_location[DW_OP_plus_uconst 0x0]
    2719                      .dwattr $C$DW$273, DW_AT_accessibility(DW_ACCESS_public)
    2720              
    2721              $C$DW$274       .dwtag  DW_TAG_member
    2722                      .dwattr $C$DW$274, DW_AT_type(*$C$DW$T$19)
    2723                      .dwattr $C$DW$274, DW_AT_name("GPIO10")
    2724                      .dwattr $C$DW$274, DW_AT_TI_symbol_name("_GPIO10")
TMS320C2000 Assembler PC v18.1.2 Fri Dec 14 17:55:34 2018

Tools Copyright (c) 1996-2017 Texas Instruments Incorporated
F2837xD_Spi.asm                                                      PAGE   51

    2725                      .dwattr $C$DW$274, DW_AT_bit_offset(0x05)
    2726                      .dwattr $C$DW$274, DW_AT_bit_size(0x01)
    2727                      .dwattr $C$DW$274, DW_AT_data_member_location[DW_OP_plus_uconst 0x0]
    2728                      .dwattr $C$DW$274, DW_AT_accessibility(DW_ACCESS_public)
    2729              
    2730              $C$DW$275       .dwtag  DW_TAG_member
    2731                      .dwattr $C$DW$275, DW_AT_type(*$C$DW$T$19)
    2732                      .dwattr $C$DW$275, DW_AT_name("GPIO11")
    2733                      .dwattr $C$DW$275, DW_AT_TI_symbol_name("_GPIO11")
    2734                      .dwattr $C$DW$275, DW_AT_bit_offset(0x04)
    2735                      .dwattr $C$DW$275, DW_AT_bit_size(0x01)
    2736                      .dwattr $C$DW$275, DW_AT_data_member_location[DW_OP_plus_uconst 0x0]
    2737                      .dwattr $C$DW$275, DW_AT_accessibility(DW_ACCESS_public)
    2738              
    2739              $C$DW$276       .dwtag  DW_TAG_member
    2740                      .dwattr $C$DW$276, DW_AT_type(*$C$DW$T$19)
    2741                      .dwattr $C$DW$276, DW_AT_name("GPIO12")
    2742                      .dwattr $C$DW$276, DW_AT_TI_symbol_name("_GPIO12")
    2743                      .dwattr $C$DW$276, DW_AT_bit_offset(0x03)
    2744                      .dwattr $C$DW$276, DW_AT_bit_size(0x01)
    2745                      .dwattr $C$DW$276, DW_AT_data_member_location[DW_OP_plus_uconst 0x0]
    2746                      .dwattr $C$DW$276, DW_AT_accessibility(DW_ACCESS_public)
    2747              
    2748              $C$DW$277       .dwtag  DW_TAG_member
    2749                      .dwattr $C$DW$277, DW_AT_type(*$C$DW$T$19)
    2750                      .dwattr $C$DW$277, DW_AT_name("GPIO13")
    2751                      .dwattr $C$DW$277, DW_AT_TI_symbol_name("_GPIO13")
    2752                      .dwattr $C$DW$277, DW_AT_bit_offset(0x02)
    2753                      .dwattr $C$DW$277, DW_AT_bit_size(0x01)
    2754                      .dwattr $C$DW$277, DW_AT_data_member_location[DW_OP_plus_uconst 0x0]
    2755                      .dwattr $C$DW$277, DW_AT_accessibility(DW_ACCESS_public)
    2756              
    2757              $C$DW$278       .dwtag  DW_TAG_member
    2758                      .dwattr $C$DW$278, DW_AT_type(*$C$DW$T$19)
    2759                      .dwattr $C$DW$278, DW_AT_name("GPIO14")
    2760                      .dwattr $C$DW$278, DW_AT_TI_symbol_name("_GPIO14")
    2761                      .dwattr $C$DW$278, DW_AT_bit_offset(0x01)
    2762                      .dwattr $C$DW$278, DW_AT_bit_size(0x01)
    2763                      .dwattr $C$DW$278, DW_AT_data_member_location[DW_OP_plus_uconst 0x0]
    2764                      .dwattr $C$DW$278, DW_AT_accessibility(DW_ACCESS_public)
    2765              
    2766              $C$DW$279       .dwtag  DW_TAG_member
    2767                      .dwattr $C$DW$279, DW_AT_type(*$C$DW$T$19)
    2768                      .dwattr $C$DW$279, DW_AT_name("GPIO15")
    2769                      .dwattr $C$DW$279, DW_AT_TI_symbol_name("_GPIO15")
    2770                      .dwattr $C$DW$279, DW_AT_bit_offset(0x00)
    2771                      .dwattr $C$DW$279, DW_AT_bit_size(0x01)
    2772                      .dwattr $C$DW$279, DW_AT_data_member_location[DW_OP_plus_uconst 0x0]
    2773                      .dwattr $C$DW$279, DW_AT_accessibility(DW_ACCESS_public)
    2774              
    2775              $C$DW$280       .dwtag  DW_TAG_member
    2776                      .dwattr $C$DW$280, DW_AT_type(*$C$DW$T$19)
    2777                      .dwattr $C$DW$280, DW_AT_name("GPIO16")
    2778                      .dwattr $C$DW$280, DW_AT_TI_symbol_name("_GPIO16")
    2779                      .dwattr $C$DW$280, DW_AT_bit_offset(0x0f)
TMS320C2000 Assembler PC v18.1.2 Fri Dec 14 17:55:34 2018

Tools Copyright (c) 1996-2017 Texas Instruments Incorporated
F2837xD_Spi.asm                                                      PAGE   52

    2780                      .dwattr $C$DW$280, DW_AT_bit_size(0x01)
    2781                      .dwattr $C$DW$280, DW_AT_data_member_location[DW_OP_plus_uconst 0x1]
    2782                      .dwattr $C$DW$280, DW_AT_accessibility(DW_ACCESS_public)
    2783              
    2784              $C$DW$281       .dwtag  DW_TAG_member
    2785                      .dwattr $C$DW$281, DW_AT_type(*$C$DW$T$19)
    2786                      .dwattr $C$DW$281, DW_AT_name("GPIO17")
    2787                      .dwattr $C$DW$281, DW_AT_TI_symbol_name("_GPIO17")
    2788                      .dwattr $C$DW$281, DW_AT_bit_offset(0x0e)
    2789                      .dwattr $C$DW$281, DW_AT_bit_size(0x01)
    2790                      .dwattr $C$DW$281, DW_AT_data_member_location[DW_OP_plus_uconst 0x1]
    2791                      .dwattr $C$DW$281, DW_AT_accessibility(DW_ACCESS_public)
    2792              
    2793              $C$DW$282       .dwtag  DW_TAG_member
    2794                      .dwattr $C$DW$282, DW_AT_type(*$C$DW$T$19)
    2795                      .dwattr $C$DW$282, DW_AT_name("GPIO18")
    2796                      .dwattr $C$DW$282, DW_AT_TI_symbol_name("_GPIO18")
    2797                      .dwattr $C$DW$282, DW_AT_bit_offset(0x0d)
    2798                      .dwattr $C$DW$282, DW_AT_bit_size(0x01)
    2799                      .dwattr $C$DW$282, DW_AT_data_member_location[DW_OP_plus_uconst 0x1]
    2800                      .dwattr $C$DW$282, DW_AT_accessibility(DW_ACCESS_public)
    2801              
    2802              $C$DW$283       .dwtag  DW_TAG_member
    2803                      .dwattr $C$DW$283, DW_AT_type(*$C$DW$T$19)
    2804                      .dwattr $C$DW$283, DW_AT_name("GPIO19")
    2805                      .dwattr $C$DW$283, DW_AT_TI_symbol_name("_GPIO19")
    2806                      .dwattr $C$DW$283, DW_AT_bit_offset(0x0c)
    2807                      .dwattr $C$DW$283, DW_AT_bit_size(0x01)
    2808                      .dwattr $C$DW$283, DW_AT_data_member_location[DW_OP_plus_uconst 0x1]
    2809                      .dwattr $C$DW$283, DW_AT_accessibility(DW_ACCESS_public)
    2810              
    2811              $C$DW$284       .dwtag  DW_TAG_member
    2812                      .dwattr $C$DW$284, DW_AT_type(*$C$DW$T$19)
    2813                      .dwattr $C$DW$284, DW_AT_name("GPIO20")
    2814                      .dwattr $C$DW$284, DW_AT_TI_symbol_name("_GPIO20")
    2815                      .dwattr $C$DW$284, DW_AT_bit_offset(0x0b)
    2816                      .dwattr $C$DW$284, DW_AT_bit_size(0x01)
    2817                      .dwattr $C$DW$284, DW_AT_data_member_location[DW_OP_plus_uconst 0x1]
    2818                      .dwattr $C$DW$284, DW_AT_accessibility(DW_ACCESS_public)
    2819              
    2820              $C$DW$285       .dwtag  DW_TAG_member
    2821                      .dwattr $C$DW$285, DW_AT_type(*$C$DW$T$19)
    2822                      .dwattr $C$DW$285, DW_AT_name("GPIO21")
    2823                      .dwattr $C$DW$285, DW_AT_TI_symbol_name("_GPIO21")
    2824                      .dwattr $C$DW$285, DW_AT_bit_offset(0x0a)
    2825                      .dwattr $C$DW$285, DW_AT_bit_size(0x01)
    2826                      .dwattr $C$DW$285, DW_AT_data_member_location[DW_OP_plus_uconst 0x1]
    2827                      .dwattr $C$DW$285, DW_AT_accessibility(DW_ACCESS_public)
    2828              
    2829              $C$DW$286       .dwtag  DW_TAG_member
    2830                      .dwattr $C$DW$286, DW_AT_type(*$C$DW$T$19)
    2831                      .dwattr $C$DW$286, DW_AT_name("GPIO22")
    2832                      .dwattr $C$DW$286, DW_AT_TI_symbol_name("_GPIO22")
    2833                      .dwattr $C$DW$286, DW_AT_bit_offset(0x09)
    2834                      .dwattr $C$DW$286, DW_AT_bit_size(0x01)
TMS320C2000 Assembler PC v18.1.2 Fri Dec 14 17:55:34 2018

Tools Copyright (c) 1996-2017 Texas Instruments Incorporated
F2837xD_Spi.asm                                                      PAGE   53

    2835                      .dwattr $C$DW$286, DW_AT_data_member_location[DW_OP_plus_uconst 0x1]
    2836                      .dwattr $C$DW$286, DW_AT_accessibility(DW_ACCESS_public)
    2837              
    2838              $C$DW$287       .dwtag  DW_TAG_member
    2839                      .dwattr $C$DW$287, DW_AT_type(*$C$DW$T$19)
    2840                      .dwattr $C$DW$287, DW_AT_name("GPIO23")
    2841                      .dwattr $C$DW$287, DW_AT_TI_symbol_name("_GPIO23")
    2842                      .dwattr $C$DW$287, DW_AT_bit_offset(0x08)
    2843                      .dwattr $C$DW$287, DW_AT_bit_size(0x01)
    2844                      .dwattr $C$DW$287, DW_AT_data_member_location[DW_OP_plus_uconst 0x1]
    2845                      .dwattr $C$DW$287, DW_AT_accessibility(DW_ACCESS_public)
    2846              
    2847              $C$DW$288       .dwtag  DW_TAG_member
    2848                      .dwattr $C$DW$288, DW_AT_type(*$C$DW$T$19)
    2849                      .dwattr $C$DW$288, DW_AT_name("GPIO24")
    2850                      .dwattr $C$DW$288, DW_AT_TI_symbol_name("_GPIO24")
    2851                      .dwattr $C$DW$288, DW_AT_bit_offset(0x07)
    2852                      .dwattr $C$DW$288, DW_AT_bit_size(0x01)
    2853                      .dwattr $C$DW$288, DW_AT_data_member_location[DW_OP_plus_uconst 0x1]
    2854                      .dwattr $C$DW$288, DW_AT_accessibility(DW_ACCESS_public)
    2855              
    2856              $C$DW$289       .dwtag  DW_TAG_member
    2857                      .dwattr $C$DW$289, DW_AT_type(*$C$DW$T$19)
    2858                      .dwattr $C$DW$289, DW_AT_name("GPIO25")
    2859                      .dwattr $C$DW$289, DW_AT_TI_symbol_name("_GPIO25")
    2860                      .dwattr $C$DW$289, DW_AT_bit_offset(0x06)
    2861                      .dwattr $C$DW$289, DW_AT_bit_size(0x01)
    2862                      .dwattr $C$DW$289, DW_AT_data_member_location[DW_OP_plus_uconst 0x1]
    2863                      .dwattr $C$DW$289, DW_AT_accessibility(DW_ACCESS_public)
    2864              
    2865              $C$DW$290       .dwtag  DW_TAG_member
    2866                      .dwattr $C$DW$290, DW_AT_type(*$C$DW$T$19)
    2867                      .dwattr $C$DW$290, DW_AT_name("GPIO26")
    2868                      .dwattr $C$DW$290, DW_AT_TI_symbol_name("_GPIO26")
    2869                      .dwattr $C$DW$290, DW_AT_bit_offset(0x05)
    2870                      .dwattr $C$DW$290, DW_AT_bit_size(0x01)
    2871                      .dwattr $C$DW$290, DW_AT_data_member_location[DW_OP_plus_uconst 0x1]
    2872                      .dwattr $C$DW$290, DW_AT_accessibility(DW_ACCESS_public)
    2873              
    2874              $C$DW$291       .dwtag  DW_TAG_member
    2875                      .dwattr $C$DW$291, DW_AT_type(*$C$DW$T$19)
    2876                      .dwattr $C$DW$291, DW_AT_name("GPIO27")
    2877                      .dwattr $C$DW$291, DW_AT_TI_symbol_name("_GPIO27")
    2878                      .dwattr $C$DW$291, DW_AT_bit_offset(0x04)
    2879                      .dwattr $C$DW$291, DW_AT_bit_size(0x01)
    2880                      .dwattr $C$DW$291, DW_AT_data_member_location[DW_OP_plus_uconst 0x1]
    2881                      .dwattr $C$DW$291, DW_AT_accessibility(DW_ACCESS_public)
    2882              
    2883              $C$DW$292       .dwtag  DW_TAG_member
    2884                      .dwattr $C$DW$292, DW_AT_type(*$C$DW$T$19)
    2885                      .dwattr $C$DW$292, DW_AT_name("GPIO28")
    2886                      .dwattr $C$DW$292, DW_AT_TI_symbol_name("_GPIO28")
    2887                      .dwattr $C$DW$292, DW_AT_bit_offset(0x03)
    2888                      .dwattr $C$DW$292, DW_AT_bit_size(0x01)
    2889                      .dwattr $C$DW$292, DW_AT_data_member_location[DW_OP_plus_uconst 0x1]
TMS320C2000 Assembler PC v18.1.2 Fri Dec 14 17:55:34 2018

Tools Copyright (c) 1996-2017 Texas Instruments Incorporated
F2837xD_Spi.asm                                                      PAGE   54

    2890                      .dwattr $C$DW$292, DW_AT_accessibility(DW_ACCESS_public)
    2891              
    2892              $C$DW$293       .dwtag  DW_TAG_member
    2893                      .dwattr $C$DW$293, DW_AT_type(*$C$DW$T$19)
    2894                      .dwattr $C$DW$293, DW_AT_name("GPIO29")
    2895                      .dwattr $C$DW$293, DW_AT_TI_symbol_name("_GPIO29")
    2896                      .dwattr $C$DW$293, DW_AT_bit_offset(0x02)
    2897                      .dwattr $C$DW$293, DW_AT_bit_size(0x01)
    2898                      .dwattr $C$DW$293, DW_AT_data_member_location[DW_OP_plus_uconst 0x1]
    2899                      .dwattr $C$DW$293, DW_AT_accessibility(DW_ACCESS_public)
    2900              
    2901              $C$DW$294       .dwtag  DW_TAG_member
    2902                      .dwattr $C$DW$294, DW_AT_type(*$C$DW$T$19)
    2903                      .dwattr $C$DW$294, DW_AT_name("GPIO30")
    2904                      .dwattr $C$DW$294, DW_AT_TI_symbol_name("_GPIO30")
    2905                      .dwattr $C$DW$294, DW_AT_bit_offset(0x01)
    2906                      .dwattr $C$DW$294, DW_AT_bit_size(0x01)
    2907                      .dwattr $C$DW$294, DW_AT_data_member_location[DW_OP_plus_uconst 0x1]
    2908                      .dwattr $C$DW$294, DW_AT_accessibility(DW_ACCESS_public)
    2909              
    2910              $C$DW$295       .dwtag  DW_TAG_member
    2911                      .dwattr $C$DW$295, DW_AT_type(*$C$DW$T$19)
    2912                      .dwattr $C$DW$295, DW_AT_name("GPIO31")
    2913                      .dwattr $C$DW$295, DW_AT_TI_symbol_name("_GPIO31")
    2914                      .dwattr $C$DW$295, DW_AT_bit_offset(0x00)
    2915                      .dwattr $C$DW$295, DW_AT_bit_size(0x01)
    2916                      .dwattr $C$DW$295, DW_AT_data_member_location[DW_OP_plus_uconst 0x1]
    2917                      .dwattr $C$DW$295, DW_AT_accessibility(DW_ACCESS_public)
    2918              
    2919                      .dwendtag $C$DW$T$47
    2920              
    2921              
    2922              $C$DW$T$48      .dwtag  DW_TAG_union_type
    2923                      .dwattr $C$DW$T$48, DW_AT_name("GPAODR_REG")
    2924                      .dwattr $C$DW$T$48, DW_AT_byte_size(0x02)
    2925              $C$DW$296       .dwtag  DW_TAG_member
    2926                      .dwattr $C$DW$296, DW_AT_type(*$C$DW$T$21)
    2927                      .dwattr $C$DW$296, DW_AT_name("all")
    2928                      .dwattr $C$DW$296, DW_AT_TI_symbol_name("_all")
    2929                      .dwattr $C$DW$296, DW_AT_data_member_location[DW_OP_plus_uconst 0x0]
    2930                      .dwattr $C$DW$296, DW_AT_accessibility(DW_ACCESS_public)
    2931              
    2932              $C$DW$297       .dwtag  DW_TAG_member
    2933                      .dwattr $C$DW$297, DW_AT_type(*$C$DW$T$47)
    2934                      .dwattr $C$DW$297, DW_AT_name("bit")
    2935                      .dwattr $C$DW$297, DW_AT_TI_symbol_name("_bit")
    2936                      .dwattr $C$DW$297, DW_AT_data_member_location[DW_OP_plus_uconst 0x0]
    2937                      .dwattr $C$DW$297, DW_AT_accessibility(DW_ACCESS_public)
    2938              
    2939                      .dwendtag $C$DW$T$48
    2940              
    2941              
    2942              $C$DW$T$49      .dwtag  DW_TAG_structure_type
    2943                      .dwattr $C$DW$T$49, DW_AT_name("GPAPUD_BITS")
    2944                      .dwattr $C$DW$T$49, DW_AT_byte_size(0x02)
TMS320C2000 Assembler PC v18.1.2 Fri Dec 14 17:55:34 2018

Tools Copyright (c) 1996-2017 Texas Instruments Incorporated
F2837xD_Spi.asm                                                      PAGE   55

    2945              $C$DW$298       .dwtag  DW_TAG_member
    2946                      .dwattr $C$DW$298, DW_AT_type(*$C$DW$T$19)
    2947                      .dwattr $C$DW$298, DW_AT_name("GPIO0")
    2948                      .dwattr $C$DW$298, DW_AT_TI_symbol_name("_GPIO0")
    2949                      .dwattr $C$DW$298, DW_AT_bit_offset(0x0f)
    2950                      .dwattr $C$DW$298, DW_AT_bit_size(0x01)
    2951                      .dwattr $C$DW$298, DW_AT_data_member_location[DW_OP_plus_uconst 0x0]
    2952                      .dwattr $C$DW$298, DW_AT_accessibility(DW_ACCESS_public)
    2953              
    2954              $C$DW$299       .dwtag  DW_TAG_member
    2955                      .dwattr $C$DW$299, DW_AT_type(*$C$DW$T$19)
    2956                      .dwattr $C$DW$299, DW_AT_name("GPIO1")
    2957                      .dwattr $C$DW$299, DW_AT_TI_symbol_name("_GPIO1")
    2958                      .dwattr $C$DW$299, DW_AT_bit_offset(0x0e)
    2959                      .dwattr $C$DW$299, DW_AT_bit_size(0x01)
    2960                      .dwattr $C$DW$299, DW_AT_data_member_location[DW_OP_plus_uconst 0x0]
    2961                      .dwattr $C$DW$299, DW_AT_accessibility(DW_ACCESS_public)
    2962              
    2963              $C$DW$300       .dwtag  DW_TAG_member
    2964                      .dwattr $C$DW$300, DW_AT_type(*$C$DW$T$19)
    2965                      .dwattr $C$DW$300, DW_AT_name("GPIO2")
    2966                      .dwattr $C$DW$300, DW_AT_TI_symbol_name("_GPIO2")
    2967                      .dwattr $C$DW$300, DW_AT_bit_offset(0x0d)
    2968                      .dwattr $C$DW$300, DW_AT_bit_size(0x01)
    2969                      .dwattr $C$DW$300, DW_AT_data_member_location[DW_OP_plus_uconst 0x0]
    2970                      .dwattr $C$DW$300, DW_AT_accessibility(DW_ACCESS_public)
    2971              
    2972              $C$DW$301       .dwtag  DW_TAG_member
    2973                      .dwattr $C$DW$301, DW_AT_type(*$C$DW$T$19)
    2974                      .dwattr $C$DW$301, DW_AT_name("GPIO3")
    2975                      .dwattr $C$DW$301, DW_AT_TI_symbol_name("_GPIO3")
    2976                      .dwattr $C$DW$301, DW_AT_bit_offset(0x0c)
    2977                      .dwattr $C$DW$301, DW_AT_bit_size(0x01)
    2978                      .dwattr $C$DW$301, DW_AT_data_member_location[DW_OP_plus_uconst 0x0]
    2979                      .dwattr $C$DW$301, DW_AT_accessibility(DW_ACCESS_public)
    2980              
    2981              $C$DW$302       .dwtag  DW_TAG_member
    2982                      .dwattr $C$DW$302, DW_AT_type(*$C$DW$T$19)
    2983                      .dwattr $C$DW$302, DW_AT_name("GPIO4")
    2984                      .dwattr $C$DW$302, DW_AT_TI_symbol_name("_GPIO4")
    2985                      .dwattr $C$DW$302, DW_AT_bit_offset(0x0b)
    2986                      .dwattr $C$DW$302, DW_AT_bit_size(0x01)
    2987                      .dwattr $C$DW$302, DW_AT_data_member_location[DW_OP_plus_uconst 0x0]
    2988                      .dwattr $C$DW$302, DW_AT_accessibility(DW_ACCESS_public)
    2989              
    2990              $C$DW$303       .dwtag  DW_TAG_member
    2991                      .dwattr $C$DW$303, DW_AT_type(*$C$DW$T$19)
    2992                      .dwattr $C$DW$303, DW_AT_name("GPIO5")
    2993                      .dwattr $C$DW$303, DW_AT_TI_symbol_name("_GPIO5")
    2994                      .dwattr $C$DW$303, DW_AT_bit_offset(0x0a)
    2995                      .dwattr $C$DW$303, DW_AT_bit_size(0x01)
    2996                      .dwattr $C$DW$303, DW_AT_data_member_location[DW_OP_plus_uconst 0x0]
    2997                      .dwattr $C$DW$303, DW_AT_accessibility(DW_ACCESS_public)
    2998              
    2999              $C$DW$304       .dwtag  DW_TAG_member
TMS320C2000 Assembler PC v18.1.2 Fri Dec 14 17:55:34 2018

Tools Copyright (c) 1996-2017 Texas Instruments Incorporated
F2837xD_Spi.asm                                                      PAGE   56

    3000                      .dwattr $C$DW$304, DW_AT_type(*$C$DW$T$19)
    3001                      .dwattr $C$DW$304, DW_AT_name("GPIO6")
    3002                      .dwattr $C$DW$304, DW_AT_TI_symbol_name("_GPIO6")
    3003                      .dwattr $C$DW$304, DW_AT_bit_offset(0x09)
    3004                      .dwattr $C$DW$304, DW_AT_bit_size(0x01)
    3005                      .dwattr $C$DW$304, DW_AT_data_member_location[DW_OP_plus_uconst 0x0]
    3006                      .dwattr $C$DW$304, DW_AT_accessibility(DW_ACCESS_public)
    3007              
    3008              $C$DW$305       .dwtag  DW_TAG_member
    3009                      .dwattr $C$DW$305, DW_AT_type(*$C$DW$T$19)
    3010                      .dwattr $C$DW$305, DW_AT_name("GPIO7")
    3011                      .dwattr $C$DW$305, DW_AT_TI_symbol_name("_GPIO7")
    3012                      .dwattr $C$DW$305, DW_AT_bit_offset(0x08)
    3013                      .dwattr $C$DW$305, DW_AT_bit_size(0x01)
    3014                      .dwattr $C$DW$305, DW_AT_data_member_location[DW_OP_plus_uconst 0x0]
    3015                      .dwattr $C$DW$305, DW_AT_accessibility(DW_ACCESS_public)
    3016              
    3017              $C$DW$306       .dwtag  DW_TAG_member
    3018                      .dwattr $C$DW$306, DW_AT_type(*$C$DW$T$19)
    3019                      .dwattr $C$DW$306, DW_AT_name("GPIO8")
    3020                      .dwattr $C$DW$306, DW_AT_TI_symbol_name("_GPIO8")
    3021                      .dwattr $C$DW$306, DW_AT_bit_offset(0x07)
    3022                      .dwattr $C$DW$306, DW_AT_bit_size(0x01)
    3023                      .dwattr $C$DW$306, DW_AT_data_member_location[DW_OP_plus_uconst 0x0]
    3024                      .dwattr $C$DW$306, DW_AT_accessibility(DW_ACCESS_public)
    3025              
    3026              $C$DW$307       .dwtag  DW_TAG_member
    3027                      .dwattr $C$DW$307, DW_AT_type(*$C$DW$T$19)
    3028                      .dwattr $C$DW$307, DW_AT_name("GPIO9")
    3029                      .dwattr $C$DW$307, DW_AT_TI_symbol_name("_GPIO9")
    3030                      .dwattr $C$DW$307, DW_AT_bit_offset(0x06)
    3031                      .dwattr $C$DW$307, DW_AT_bit_size(0x01)
    3032                      .dwattr $C$DW$307, DW_AT_data_member_location[DW_OP_plus_uconst 0x0]
    3033                      .dwattr $C$DW$307, DW_AT_accessibility(DW_ACCESS_public)
    3034              
    3035              $C$DW$308       .dwtag  DW_TAG_member
    3036                      .dwattr $C$DW$308, DW_AT_type(*$C$DW$T$19)
    3037                      .dwattr $C$DW$308, DW_AT_name("GPIO10")
    3038                      .dwattr $C$DW$308, DW_AT_TI_symbol_name("_GPIO10")
    3039                      .dwattr $C$DW$308, DW_AT_bit_offset(0x05)
    3040                      .dwattr $C$DW$308, DW_AT_bit_size(0x01)
    3041                      .dwattr $C$DW$308, DW_AT_data_member_location[DW_OP_plus_uconst 0x0]
    3042                      .dwattr $C$DW$308, DW_AT_accessibility(DW_ACCESS_public)
    3043              
    3044              $C$DW$309       .dwtag  DW_TAG_member
    3045                      .dwattr $C$DW$309, DW_AT_type(*$C$DW$T$19)
    3046                      .dwattr $C$DW$309, DW_AT_name("GPIO11")
    3047                      .dwattr $C$DW$309, DW_AT_TI_symbol_name("_GPIO11")
    3048                      .dwattr $C$DW$309, DW_AT_bit_offset(0x04)
    3049                      .dwattr $C$DW$309, DW_AT_bit_size(0x01)
    3050                      .dwattr $C$DW$309, DW_AT_data_member_location[DW_OP_plus_uconst 0x0]
    3051                      .dwattr $C$DW$309, DW_AT_accessibility(DW_ACCESS_public)
    3052              
    3053              $C$DW$310       .dwtag  DW_TAG_member
    3054                      .dwattr $C$DW$310, DW_AT_type(*$C$DW$T$19)
TMS320C2000 Assembler PC v18.1.2 Fri Dec 14 17:55:34 2018

Tools Copyright (c) 1996-2017 Texas Instruments Incorporated
F2837xD_Spi.asm                                                      PAGE   57

    3055                      .dwattr $C$DW$310, DW_AT_name("GPIO12")
    3056                      .dwattr $C$DW$310, DW_AT_TI_symbol_name("_GPIO12")
    3057                      .dwattr $C$DW$310, DW_AT_bit_offset(0x03)
    3058                      .dwattr $C$DW$310, DW_AT_bit_size(0x01)
    3059                      .dwattr $C$DW$310, DW_AT_data_member_location[DW_OP_plus_uconst 0x0]
    3060                      .dwattr $C$DW$310, DW_AT_accessibility(DW_ACCESS_public)
    3061              
    3062              $C$DW$311       .dwtag  DW_TAG_member
    3063                      .dwattr $C$DW$311, DW_AT_type(*$C$DW$T$19)
    3064                      .dwattr $C$DW$311, DW_AT_name("GPIO13")
    3065                      .dwattr $C$DW$311, DW_AT_TI_symbol_name("_GPIO13")
    3066                      .dwattr $C$DW$311, DW_AT_bit_offset(0x02)
    3067                      .dwattr $C$DW$311, DW_AT_bit_size(0x01)
    3068                      .dwattr $C$DW$311, DW_AT_data_member_location[DW_OP_plus_uconst 0x0]
    3069                      .dwattr $C$DW$311, DW_AT_accessibility(DW_ACCESS_public)
    3070              
    3071              $C$DW$312       .dwtag  DW_TAG_member
    3072                      .dwattr $C$DW$312, DW_AT_type(*$C$DW$T$19)
    3073                      .dwattr $C$DW$312, DW_AT_name("GPIO14")
    3074                      .dwattr $C$DW$312, DW_AT_TI_symbol_name("_GPIO14")
    3075                      .dwattr $C$DW$312, DW_AT_bit_offset(0x01)
    3076                      .dwattr $C$DW$312, DW_AT_bit_size(0x01)
    3077                      .dwattr $C$DW$312, DW_AT_data_member_location[DW_OP_plus_uconst 0x0]
    3078                      .dwattr $C$DW$312, DW_AT_accessibility(DW_ACCESS_public)
    3079              
    3080              $C$DW$313       .dwtag  DW_TAG_member
    3081                      .dwattr $C$DW$313, DW_AT_type(*$C$DW$T$19)
    3082                      .dwattr $C$DW$313, DW_AT_name("GPIO15")
    3083                      .dwattr $C$DW$313, DW_AT_TI_symbol_name("_GPIO15")
    3084                      .dwattr $C$DW$313, DW_AT_bit_offset(0x00)
    3085                      .dwattr $C$DW$313, DW_AT_bit_size(0x01)
    3086                      .dwattr $C$DW$313, DW_AT_data_member_location[DW_OP_plus_uconst 0x0]
    3087                      .dwattr $C$DW$313, DW_AT_accessibility(DW_ACCESS_public)
    3088              
    3089              $C$DW$314       .dwtag  DW_TAG_member
    3090                      .dwattr $C$DW$314, DW_AT_type(*$C$DW$T$19)
    3091                      .dwattr $C$DW$314, DW_AT_name("GPIO16")
    3092                      .dwattr $C$DW$314, DW_AT_TI_symbol_name("_GPIO16")
    3093                      .dwattr $C$DW$314, DW_AT_bit_offset(0x0f)
    3094                      .dwattr $C$DW$314, DW_AT_bit_size(0x01)
    3095                      .dwattr $C$DW$314, DW_AT_data_member_location[DW_OP_plus_uconst 0x1]
    3096                      .dwattr $C$DW$314, DW_AT_accessibility(DW_ACCESS_public)
    3097              
    3098              $C$DW$315       .dwtag  DW_TAG_member
    3099                      .dwattr $C$DW$315, DW_AT_type(*$C$DW$T$19)
    3100                      .dwattr $C$DW$315, DW_AT_name("GPIO17")
    3101                      .dwattr $C$DW$315, DW_AT_TI_symbol_name("_GPIO17")
    3102                      .dwattr $C$DW$315, DW_AT_bit_offset(0x0e)
    3103                      .dwattr $C$DW$315, DW_AT_bit_size(0x01)
    3104                      .dwattr $C$DW$315, DW_AT_data_member_location[DW_OP_plus_uconst 0x1]
    3105                      .dwattr $C$DW$315, DW_AT_accessibility(DW_ACCESS_public)
    3106              
    3107              $C$DW$316       .dwtag  DW_TAG_member
    3108                      .dwattr $C$DW$316, DW_AT_type(*$C$DW$T$19)
    3109                      .dwattr $C$DW$316, DW_AT_name("GPIO18")
TMS320C2000 Assembler PC v18.1.2 Fri Dec 14 17:55:34 2018

Tools Copyright (c) 1996-2017 Texas Instruments Incorporated
F2837xD_Spi.asm                                                      PAGE   58

    3110                      .dwattr $C$DW$316, DW_AT_TI_symbol_name("_GPIO18")
    3111                      .dwattr $C$DW$316, DW_AT_bit_offset(0x0d)
    3112                      .dwattr $C$DW$316, DW_AT_bit_size(0x01)
    3113                      .dwattr $C$DW$316, DW_AT_data_member_location[DW_OP_plus_uconst 0x1]
    3114                      .dwattr $C$DW$316, DW_AT_accessibility(DW_ACCESS_public)
    3115              
    3116              $C$DW$317       .dwtag  DW_TAG_member
    3117                      .dwattr $C$DW$317, DW_AT_type(*$C$DW$T$19)
    3118                      .dwattr $C$DW$317, DW_AT_name("GPIO19")
    3119                      .dwattr $C$DW$317, DW_AT_TI_symbol_name("_GPIO19")
    3120                      .dwattr $C$DW$317, DW_AT_bit_offset(0x0c)
    3121                      .dwattr $C$DW$317, DW_AT_bit_size(0x01)
    3122                      .dwattr $C$DW$317, DW_AT_data_member_location[DW_OP_plus_uconst 0x1]
    3123                      .dwattr $C$DW$317, DW_AT_accessibility(DW_ACCESS_public)
    3124              
    3125              $C$DW$318       .dwtag  DW_TAG_member
    3126                      .dwattr $C$DW$318, DW_AT_type(*$C$DW$T$19)
    3127                      .dwattr $C$DW$318, DW_AT_name("GPIO20")
    3128                      .dwattr $C$DW$318, DW_AT_TI_symbol_name("_GPIO20")
    3129                      .dwattr $C$DW$318, DW_AT_bit_offset(0x0b)
    3130                      .dwattr $C$DW$318, DW_AT_bit_size(0x01)
    3131                      .dwattr $C$DW$318, DW_AT_data_member_location[DW_OP_plus_uconst 0x1]
    3132                      .dwattr $C$DW$318, DW_AT_accessibility(DW_ACCESS_public)
    3133              
    3134              $C$DW$319       .dwtag  DW_TAG_member
    3135                      .dwattr $C$DW$319, DW_AT_type(*$C$DW$T$19)
    3136                      .dwattr $C$DW$319, DW_AT_name("GPIO21")
    3137                      .dwattr $C$DW$319, DW_AT_TI_symbol_name("_GPIO21")
    3138                      .dwattr $C$DW$319, DW_AT_bit_offset(0x0a)
    3139                      .dwattr $C$DW$319, DW_AT_bit_size(0x01)
    3140                      .dwattr $C$DW$319, DW_AT_data_member_location[DW_OP_plus_uconst 0x1]
    3141                      .dwattr $C$DW$319, DW_AT_accessibility(DW_ACCESS_public)
    3142              
    3143              $C$DW$320       .dwtag  DW_TAG_member
    3144                      .dwattr $C$DW$320, DW_AT_type(*$C$DW$T$19)
    3145                      .dwattr $C$DW$320, DW_AT_name("GPIO22")
    3146                      .dwattr $C$DW$320, DW_AT_TI_symbol_name("_GPIO22")
    3147                      .dwattr $C$DW$320, DW_AT_bit_offset(0x09)
    3148                      .dwattr $C$DW$320, DW_AT_bit_size(0x01)
    3149                      .dwattr $C$DW$320, DW_AT_data_member_location[DW_OP_plus_uconst 0x1]
    3150                      .dwattr $C$DW$320, DW_AT_accessibility(DW_ACCESS_public)
    3151              
    3152              $C$DW$321       .dwtag  DW_TAG_member
    3153                      .dwattr $C$DW$321, DW_AT_type(*$C$DW$T$19)
    3154                      .dwattr $C$DW$321, DW_AT_name("GPIO23")
    3155                      .dwattr $C$DW$321, DW_AT_TI_symbol_name("_GPIO23")
    3156                      .dwattr $C$DW$321, DW_AT_bit_offset(0x08)
    3157                      .dwattr $C$DW$321, DW_AT_bit_size(0x01)
    3158                      .dwattr $C$DW$321, DW_AT_data_member_location[DW_OP_plus_uconst 0x1]
    3159                      .dwattr $C$DW$321, DW_AT_accessibility(DW_ACCESS_public)
    3160              
    3161              $C$DW$322       .dwtag  DW_TAG_member
    3162                      .dwattr $C$DW$322, DW_AT_type(*$C$DW$T$19)
    3163                      .dwattr $C$DW$322, DW_AT_name("GPIO24")
    3164                      .dwattr $C$DW$322, DW_AT_TI_symbol_name("_GPIO24")
TMS320C2000 Assembler PC v18.1.2 Fri Dec 14 17:55:34 2018

Tools Copyright (c) 1996-2017 Texas Instruments Incorporated
F2837xD_Spi.asm                                                      PAGE   59

    3165                      .dwattr $C$DW$322, DW_AT_bit_offset(0x07)
    3166                      .dwattr $C$DW$322, DW_AT_bit_size(0x01)
    3167                      .dwattr $C$DW$322, DW_AT_data_member_location[DW_OP_plus_uconst 0x1]
    3168                      .dwattr $C$DW$322, DW_AT_accessibility(DW_ACCESS_public)
    3169              
    3170              $C$DW$323       .dwtag  DW_TAG_member
    3171                      .dwattr $C$DW$323, DW_AT_type(*$C$DW$T$19)
    3172                      .dwattr $C$DW$323, DW_AT_name("GPIO25")
    3173                      .dwattr $C$DW$323, DW_AT_TI_symbol_name("_GPIO25")
    3174                      .dwattr $C$DW$323, DW_AT_bit_offset(0x06)
    3175                      .dwattr $C$DW$323, DW_AT_bit_size(0x01)
    3176                      .dwattr $C$DW$323, DW_AT_data_member_location[DW_OP_plus_uconst 0x1]
    3177                      .dwattr $C$DW$323, DW_AT_accessibility(DW_ACCESS_public)
    3178              
    3179              $C$DW$324       .dwtag  DW_TAG_member
    3180                      .dwattr $C$DW$324, DW_AT_type(*$C$DW$T$19)
    3181                      .dwattr $C$DW$324, DW_AT_name("GPIO26")
    3182                      .dwattr $C$DW$324, DW_AT_TI_symbol_name("_GPIO26")
    3183                      .dwattr $C$DW$324, DW_AT_bit_offset(0x05)
    3184                      .dwattr $C$DW$324, DW_AT_bit_size(0x01)
    3185                      .dwattr $C$DW$324, DW_AT_data_member_location[DW_OP_plus_uconst 0x1]
    3186                      .dwattr $C$DW$324, DW_AT_accessibility(DW_ACCESS_public)
    3187              
    3188              $C$DW$325       .dwtag  DW_TAG_member
    3189                      .dwattr $C$DW$325, DW_AT_type(*$C$DW$T$19)
    3190                      .dwattr $C$DW$325, DW_AT_name("GPIO27")
    3191                      .dwattr $C$DW$325, DW_AT_TI_symbol_name("_GPIO27")
    3192                      .dwattr $C$DW$325, DW_AT_bit_offset(0x04)
    3193                      .dwattr $C$DW$325, DW_AT_bit_size(0x01)
    3194                      .dwattr $C$DW$325, DW_AT_data_member_location[DW_OP_plus_uconst 0x1]
    3195                      .dwattr $C$DW$325, DW_AT_accessibility(DW_ACCESS_public)
    3196              
    3197              $C$DW$326       .dwtag  DW_TAG_member
    3198                      .dwattr $C$DW$326, DW_AT_type(*$C$DW$T$19)
    3199                      .dwattr $C$DW$326, DW_AT_name("GPIO28")
    3200                      .dwattr $C$DW$326, DW_AT_TI_symbol_name("_GPIO28")
    3201                      .dwattr $C$DW$326, DW_AT_bit_offset(0x03)
    3202                      .dwattr $C$DW$326, DW_AT_bit_size(0x01)
    3203                      .dwattr $C$DW$326, DW_AT_data_member_location[DW_OP_plus_uconst 0x1]
    3204                      .dwattr $C$DW$326, DW_AT_accessibility(DW_ACCESS_public)
    3205              
    3206              $C$DW$327       .dwtag  DW_TAG_member
    3207                      .dwattr $C$DW$327, DW_AT_type(*$C$DW$T$19)
    3208                      .dwattr $C$DW$327, DW_AT_name("GPIO29")
    3209                      .dwattr $C$DW$327, DW_AT_TI_symbol_name("_GPIO29")
    3210                      .dwattr $C$DW$327, DW_AT_bit_offset(0x02)
    3211                      .dwattr $C$DW$327, DW_AT_bit_size(0x01)
    3212                      .dwattr $C$DW$327, DW_AT_data_member_location[DW_OP_plus_uconst 0x1]
    3213                      .dwattr $C$DW$327, DW_AT_accessibility(DW_ACCESS_public)
    3214              
    3215              $C$DW$328       .dwtag  DW_TAG_member
    3216                      .dwattr $C$DW$328, DW_AT_type(*$C$DW$T$19)
    3217                      .dwattr $C$DW$328, DW_AT_name("GPIO30")
    3218                      .dwattr $C$DW$328, DW_AT_TI_symbol_name("_GPIO30")
    3219                      .dwattr $C$DW$328, DW_AT_bit_offset(0x01)
TMS320C2000 Assembler PC v18.1.2 Fri Dec 14 17:55:34 2018

Tools Copyright (c) 1996-2017 Texas Instruments Incorporated
F2837xD_Spi.asm                                                      PAGE   60

    3220                      .dwattr $C$DW$328, DW_AT_bit_size(0x01)
    3221                      .dwattr $C$DW$328, DW_AT_data_member_location[DW_OP_plus_uconst 0x1]
    3222                      .dwattr $C$DW$328, DW_AT_accessibility(DW_ACCESS_public)
    3223              
    3224              $C$DW$329       .dwtag  DW_TAG_member
    3225                      .dwattr $C$DW$329, DW_AT_type(*$C$DW$T$19)
    3226                      .dwattr $C$DW$329, DW_AT_name("GPIO31")
    3227                      .dwattr $C$DW$329, DW_AT_TI_symbol_name("_GPIO31")
    3228                      .dwattr $C$DW$329, DW_AT_bit_offset(0x00)
    3229                      .dwattr $C$DW$329, DW_AT_bit_size(0x01)
    3230                      .dwattr $C$DW$329, DW_AT_data_member_location[DW_OP_plus_uconst 0x1]
    3231                      .dwattr $C$DW$329, DW_AT_accessibility(DW_ACCESS_public)
    3232              
    3233                      .dwendtag $C$DW$T$49
    3234              
    3235              
    3236              $C$DW$T$50      .dwtag  DW_TAG_union_type
    3237                      .dwattr $C$DW$T$50, DW_AT_name("GPAPUD_REG")
    3238                      .dwattr $C$DW$T$50, DW_AT_byte_size(0x02)
    3239              $C$DW$330       .dwtag  DW_TAG_member
    3240                      .dwattr $C$DW$330, DW_AT_type(*$C$DW$T$21)
    3241                      .dwattr $C$DW$330, DW_AT_name("all")
    3242                      .dwattr $C$DW$330, DW_AT_TI_symbol_name("_all")
    3243                      .dwattr $C$DW$330, DW_AT_data_member_location[DW_OP_plus_uconst 0x0]
    3244                      .dwattr $C$DW$330, DW_AT_accessibility(DW_ACCESS_public)
    3245              
    3246              $C$DW$331       .dwtag  DW_TAG_member
    3247                      .dwattr $C$DW$331, DW_AT_type(*$C$DW$T$49)
    3248                      .dwattr $C$DW$331, DW_AT_name("bit")
    3249                      .dwattr $C$DW$331, DW_AT_TI_symbol_name("_bit")
    3250                      .dwattr $C$DW$331, DW_AT_data_member_location[DW_OP_plus_uconst 0x0]
    3251                      .dwattr $C$DW$331, DW_AT_accessibility(DW_ACCESS_public)
    3252              
    3253                      .dwendtag $C$DW$T$50
    3254              
    3255              
    3256              $C$DW$T$51      .dwtag  DW_TAG_structure_type
    3257                      .dwattr $C$DW$T$51, DW_AT_name("GPAQSEL1_BITS")
    3258                      .dwattr $C$DW$T$51, DW_AT_byte_size(0x02)
    3259              $C$DW$332       .dwtag  DW_TAG_member
    3260                      .dwattr $C$DW$332, DW_AT_type(*$C$DW$T$19)
    3261                      .dwattr $C$DW$332, DW_AT_name("GPIO0")
    3262                      .dwattr $C$DW$332, DW_AT_TI_symbol_name("_GPIO0")
    3263                      .dwattr $C$DW$332, DW_AT_bit_offset(0x0e)
    3264                      .dwattr $C$DW$332, DW_AT_bit_size(0x02)
    3265                      .dwattr $C$DW$332, DW_AT_data_member_location[DW_OP_plus_uconst 0x0]
    3266                      .dwattr $C$DW$332, DW_AT_accessibility(DW_ACCESS_public)
    3267              
    3268              $C$DW$333       .dwtag  DW_TAG_member
    3269                      .dwattr $C$DW$333, DW_AT_type(*$C$DW$T$19)
    3270                      .dwattr $C$DW$333, DW_AT_name("GPIO1")
    3271                      .dwattr $C$DW$333, DW_AT_TI_symbol_name("_GPIO1")
    3272                      .dwattr $C$DW$333, DW_AT_bit_offset(0x0c)
    3273                      .dwattr $C$DW$333, DW_AT_bit_size(0x02)
    3274                      .dwattr $C$DW$333, DW_AT_data_member_location[DW_OP_plus_uconst 0x0]
TMS320C2000 Assembler PC v18.1.2 Fri Dec 14 17:55:34 2018

Tools Copyright (c) 1996-2017 Texas Instruments Incorporated
F2837xD_Spi.asm                                                      PAGE   61

    3275                      .dwattr $C$DW$333, DW_AT_accessibility(DW_ACCESS_public)
    3276              
    3277              $C$DW$334       .dwtag  DW_TAG_member
    3278                      .dwattr $C$DW$334, DW_AT_type(*$C$DW$T$19)
    3279                      .dwattr $C$DW$334, DW_AT_name("GPIO2")
    3280                      .dwattr $C$DW$334, DW_AT_TI_symbol_name("_GPIO2")
    3281                      .dwattr $C$DW$334, DW_AT_bit_offset(0x0a)
    3282                      .dwattr $C$DW$334, DW_AT_bit_size(0x02)
    3283                      .dwattr $C$DW$334, DW_AT_data_member_location[DW_OP_plus_uconst 0x0]
    3284                      .dwattr $C$DW$334, DW_AT_accessibility(DW_ACCESS_public)
    3285              
    3286              $C$DW$335       .dwtag  DW_TAG_member
    3287                      .dwattr $C$DW$335, DW_AT_type(*$C$DW$T$19)
    3288                      .dwattr $C$DW$335, DW_AT_name("GPIO3")
    3289                      .dwattr $C$DW$335, DW_AT_TI_symbol_name("_GPIO3")
    3290                      .dwattr $C$DW$335, DW_AT_bit_offset(0x08)
    3291                      .dwattr $C$DW$335, DW_AT_bit_size(0x02)
    3292                      .dwattr $C$DW$335, DW_AT_data_member_location[DW_OP_plus_uconst 0x0]
    3293                      .dwattr $C$DW$335, DW_AT_accessibility(DW_ACCESS_public)
    3294              
    3295              $C$DW$336       .dwtag  DW_TAG_member
    3296                      .dwattr $C$DW$336, DW_AT_type(*$C$DW$T$19)
    3297                      .dwattr $C$DW$336, DW_AT_name("GPIO4")
    3298                      .dwattr $C$DW$336, DW_AT_TI_symbol_name("_GPIO4")
    3299                      .dwattr $C$DW$336, DW_AT_bit_offset(0x06)
    3300                      .dwattr $C$DW$336, DW_AT_bit_size(0x02)
    3301                      .dwattr $C$DW$336, DW_AT_data_member_location[DW_OP_plus_uconst 0x0]
    3302                      .dwattr $C$DW$336, DW_AT_accessibility(DW_ACCESS_public)
    3303              
    3304              $C$DW$337       .dwtag  DW_TAG_member
    3305                      .dwattr $C$DW$337, DW_AT_type(*$C$DW$T$19)
    3306                      .dwattr $C$DW$337, DW_AT_name("GPIO5")
    3307                      .dwattr $C$DW$337, DW_AT_TI_symbol_name("_GPIO5")
    3308                      .dwattr $C$DW$337, DW_AT_bit_offset(0x04)
    3309                      .dwattr $C$DW$337, DW_AT_bit_size(0x02)
    3310                      .dwattr $C$DW$337, DW_AT_data_member_location[DW_OP_plus_uconst 0x0]
    3311                      .dwattr $C$DW$337, DW_AT_accessibility(DW_ACCESS_public)
    3312              
    3313              $C$DW$338       .dwtag  DW_TAG_member
    3314                      .dwattr $C$DW$338, DW_AT_type(*$C$DW$T$19)
    3315                      .dwattr $C$DW$338, DW_AT_name("GPIO6")
    3316                      .dwattr $C$DW$338, DW_AT_TI_symbol_name("_GPIO6")
    3317                      .dwattr $C$DW$338, DW_AT_bit_offset(0x02)
    3318                      .dwattr $C$DW$338, DW_AT_bit_size(0x02)
    3319                      .dwattr $C$DW$338, DW_AT_data_member_location[DW_OP_plus_uconst 0x0]
    3320                      .dwattr $C$DW$338, DW_AT_accessibility(DW_ACCESS_public)
    3321              
    3322              $C$DW$339       .dwtag  DW_TAG_member
    3323                      .dwattr $C$DW$339, DW_AT_type(*$C$DW$T$19)
    3324                      .dwattr $C$DW$339, DW_AT_name("GPIO7")
    3325                      .dwattr $C$DW$339, DW_AT_TI_symbol_name("_GPIO7")
    3326                      .dwattr $C$DW$339, DW_AT_bit_offset(0x00)
    3327                      .dwattr $C$DW$339, DW_AT_bit_size(0x02)
    3328                      .dwattr $C$DW$339, DW_AT_data_member_location[DW_OP_plus_uconst 0x0]
    3329                      .dwattr $C$DW$339, DW_AT_accessibility(DW_ACCESS_public)
TMS320C2000 Assembler PC v18.1.2 Fri Dec 14 17:55:34 2018

Tools Copyright (c) 1996-2017 Texas Instruments Incorporated
F2837xD_Spi.asm                                                      PAGE   62

    3330              
    3331              $C$DW$340       .dwtag  DW_TAG_member
    3332                      .dwattr $C$DW$340, DW_AT_type(*$C$DW$T$19)
    3333                      .dwattr $C$DW$340, DW_AT_name("GPIO8")
    3334                      .dwattr $C$DW$340, DW_AT_TI_symbol_name("_GPIO8")
    3335                      .dwattr $C$DW$340, DW_AT_bit_offset(0x0e)
    3336                      .dwattr $C$DW$340, DW_AT_bit_size(0x02)
    3337                      .dwattr $C$DW$340, DW_AT_data_member_location[DW_OP_plus_uconst 0x1]
    3338                      .dwattr $C$DW$340, DW_AT_accessibility(DW_ACCESS_public)
    3339              
    3340              $C$DW$341       .dwtag  DW_TAG_member
    3341                      .dwattr $C$DW$341, DW_AT_type(*$C$DW$T$19)
    3342                      .dwattr $C$DW$341, DW_AT_name("GPIO9")
    3343                      .dwattr $C$DW$341, DW_AT_TI_symbol_name("_GPIO9")
    3344                      .dwattr $C$DW$341, DW_AT_bit_offset(0x0c)
    3345                      .dwattr $C$DW$341, DW_AT_bit_size(0x02)
    3346                      .dwattr $C$DW$341, DW_AT_data_member_location[DW_OP_plus_uconst 0x1]
    3347                      .dwattr $C$DW$341, DW_AT_accessibility(DW_ACCESS_public)
    3348              
    3349              $C$DW$342       .dwtag  DW_TAG_member
    3350                      .dwattr $C$DW$342, DW_AT_type(*$C$DW$T$19)
    3351                      .dwattr $C$DW$342, DW_AT_name("GPIO10")
    3352                      .dwattr $C$DW$342, DW_AT_TI_symbol_name("_GPIO10")
    3353                      .dwattr $C$DW$342, DW_AT_bit_offset(0x0a)
    3354                      .dwattr $C$DW$342, DW_AT_bit_size(0x02)
    3355                      .dwattr $C$DW$342, DW_AT_data_member_location[DW_OP_plus_uconst 0x1]
    3356                      .dwattr $C$DW$342, DW_AT_accessibility(DW_ACCESS_public)
    3357              
    3358              $C$DW$343       .dwtag  DW_TAG_member
    3359                      .dwattr $C$DW$343, DW_AT_type(*$C$DW$T$19)
    3360                      .dwattr $C$DW$343, DW_AT_name("GPIO11")
    3361                      .dwattr $C$DW$343, DW_AT_TI_symbol_name("_GPIO11")
    3362                      .dwattr $C$DW$343, DW_AT_bit_offset(0x08)
    3363                      .dwattr $C$DW$343, DW_AT_bit_size(0x02)
    3364                      .dwattr $C$DW$343, DW_AT_data_member_location[DW_OP_plus_uconst 0x1]
    3365                      .dwattr $C$DW$343, DW_AT_accessibility(DW_ACCESS_public)
    3366              
    3367              $C$DW$344       .dwtag  DW_TAG_member
    3368                      .dwattr $C$DW$344, DW_AT_type(*$C$DW$T$19)
    3369                      .dwattr $C$DW$344, DW_AT_name("GPIO12")
    3370                      .dwattr $C$DW$344, DW_AT_TI_symbol_name("_GPIO12")
    3371                      .dwattr $C$DW$344, DW_AT_bit_offset(0x06)
    3372                      .dwattr $C$DW$344, DW_AT_bit_size(0x02)
    3373                      .dwattr $C$DW$344, DW_AT_data_member_location[DW_OP_plus_uconst 0x1]
    3374                      .dwattr $C$DW$344, DW_AT_accessibility(DW_ACCESS_public)
    3375              
    3376              $C$DW$345       .dwtag  DW_TAG_member
    3377                      .dwattr $C$DW$345, DW_AT_type(*$C$DW$T$19)
    3378                      .dwattr $C$DW$345, DW_AT_name("GPIO13")
    3379                      .dwattr $C$DW$345, DW_AT_TI_symbol_name("_GPIO13")
    3380                      .dwattr $C$DW$345, DW_AT_bit_offset(0x04)
    3381                      .dwattr $C$DW$345, DW_AT_bit_size(0x02)
    3382                      .dwattr $C$DW$345, DW_AT_data_member_location[DW_OP_plus_uconst 0x1]
    3383                      .dwattr $C$DW$345, DW_AT_accessibility(DW_ACCESS_public)
    3384              
TMS320C2000 Assembler PC v18.1.2 Fri Dec 14 17:55:34 2018

Tools Copyright (c) 1996-2017 Texas Instruments Incorporated
F2837xD_Spi.asm                                                      PAGE   63

    3385              $C$DW$346       .dwtag  DW_TAG_member
    3386                      .dwattr $C$DW$346, DW_AT_type(*$C$DW$T$19)
    3387                      .dwattr $C$DW$346, DW_AT_name("GPIO14")
    3388                      .dwattr $C$DW$346, DW_AT_TI_symbol_name("_GPIO14")
    3389                      .dwattr $C$DW$346, DW_AT_bit_offset(0x02)
    3390                      .dwattr $C$DW$346, DW_AT_bit_size(0x02)
    3391                      .dwattr $C$DW$346, DW_AT_data_member_location[DW_OP_plus_uconst 0x1]
    3392                      .dwattr $C$DW$346, DW_AT_accessibility(DW_ACCESS_public)
    3393              
    3394              $C$DW$347       .dwtag  DW_TAG_member
    3395                      .dwattr $C$DW$347, DW_AT_type(*$C$DW$T$19)
    3396                      .dwattr $C$DW$347, DW_AT_name("GPIO15")
    3397                      .dwattr $C$DW$347, DW_AT_TI_symbol_name("_GPIO15")
    3398                      .dwattr $C$DW$347, DW_AT_bit_offset(0x00)
    3399                      .dwattr $C$DW$347, DW_AT_bit_size(0x02)
    3400                      .dwattr $C$DW$347, DW_AT_data_member_location[DW_OP_plus_uconst 0x1]
    3401                      .dwattr $C$DW$347, DW_AT_accessibility(DW_ACCESS_public)
    3402              
    3403                      .dwendtag $C$DW$T$51
    3404              
    3405              
    3406              $C$DW$T$52      .dwtag  DW_TAG_union_type
    3407                      .dwattr $C$DW$T$52, DW_AT_name("GPAQSEL1_REG")
    3408                      .dwattr $C$DW$T$52, DW_AT_byte_size(0x02)
    3409              $C$DW$348       .dwtag  DW_TAG_member
    3410                      .dwattr $C$DW$348, DW_AT_type(*$C$DW$T$21)
    3411                      .dwattr $C$DW$348, DW_AT_name("all")
    3412                      .dwattr $C$DW$348, DW_AT_TI_symbol_name("_all")
