TMS320C2000 Assembler PC v18.1.2 Fri Dec 14 17:55:18 2018

Tools Copyright (c) 1996-2017 Texas Instruments Incorporated
F2837xD_CpuTimers.asm                                                PAGE    1

       1              ;***************************************************************
       2              ;* TMS320C2000 C/C++ Codegen                    PC v18.1.2.LTS *
       3              ;* Date/Time created: Fri Dec 14 17:55:18 2018                 *
       4              ;***************************************************************
       5                      .compiler_opts --abi=coffabi --cla_support=cla1 --diag_wrap=off --float_support=fpu32 --hll_source=on
       6                      .asg    XAR2, FP
       7              
       8              $C$DW$CU        .dwtag  DW_TAG_compile_unit
       9                      .dwattr $C$DW$CU, DW_AT_name("../F2837xD/F2837xD_CpuTimers.c")
      10                      .dwattr $C$DW$CU, DW_AT_producer("TI TMS320C2000 C/C++ Codegen PC v18.1.2.LTS Copyright (c) 1996-2017
      11                      .dwattr $C$DW$CU, DW_AT_TI_version(0x01)
      12                      .dwattr $C$DW$CU, DW_AT_comp_dir("D:\WorkSpace\CCS_WorkSpace\CanTest\Debug")
      13                      .global _CpuTimer1
      14 00000000       _CpuTimer1:     .usect  ".ebss",8,1,1
      15              $C$DW$1 .dwtag  DW_TAG_variable
      16                      .dwattr $C$DW$1, DW_AT_name("CpuTimer1")
      17                      .dwattr $C$DW$1, DW_AT_TI_symbol_name("_CpuTimer1")
      18                      .dwattr $C$DW$1, DW_AT_location[DW_OP_addr _CpuTimer1]
      19                      .dwattr $C$DW$1, DW_AT_type(*$C$DW$T$24)
      20                      .dwattr $C$DW$1, DW_AT_external
      21              
      22                      .global _CpuTimer2
      23 00000008       _CpuTimer2:     .usect  ".ebss",8,1,1
      24              $C$DW$2 .dwtag  DW_TAG_variable
      25                      .dwattr $C$DW$2, DW_AT_name("CpuTimer2")
      26                      .dwattr $C$DW$2, DW_AT_TI_symbol_name("_CpuTimer2")
      27                      .dwattr $C$DW$2, DW_AT_location[DW_OP_addr _CpuTimer2]
      28                      .dwattr $C$DW$2, DW_AT_type(*$C$DW$T$24)
      29                      .dwattr $C$DW$2, DW_AT_external
      30              
      31                      .global _CpuTimer0
      32 00000010       _CpuTimer0:     .usect  ".ebss",8,1,1
      33              $C$DW$3 .dwtag  DW_TAG_variable
      34                      .dwattr $C$DW$3, DW_AT_name("CpuTimer0")
      35                      .dwattr $C$DW$3, DW_AT_TI_symbol_name("_CpuTimer0")
      36                      .dwattr $C$DW$3, DW_AT_location[DW_OP_addr _CpuTimer0]
      37                      .dwattr $C$DW$3, DW_AT_type(*$C$DW$T$24)
      38                      .dwattr $C$DW$3, DW_AT_external
      39              
      40              $C$DW$4 .dwtag  DW_TAG_variable
      41                      .dwattr $C$DW$4, DW_AT_name("CpuTimer1Regs")
      42                      .dwattr $C$DW$4, DW_AT_TI_symbol_name("_CpuTimer1Regs")
      43                      .dwattr $C$DW$4, DW_AT_type(*$C$DW$T$21)
      44                      .dwattr $C$DW$4, DW_AT_declaration
      45                      .dwattr $C$DW$4, DW_AT_external
      46              
      47              $C$DW$5 .dwtag  DW_TAG_variable
      48                      .dwattr $C$DW$5, DW_AT_name("CpuTimer2Regs")
      49                      .dwattr $C$DW$5, DW_AT_TI_symbol_name("_CpuTimer2Regs")
      50                      .dwattr $C$DW$5, DW_AT_type(*$C$DW$T$21)
      51                      .dwattr $C$DW$5, DW_AT_declaration
      52                      .dwattr $C$DW$5, DW_AT_external
      53              
      54              $C$DW$6 .dwtag  DW_TAG_variable
      55                      .dwattr $C$DW$6, DW_AT_name("CpuTimer0Regs")
TMS320C2000 Assembler PC v18.1.2 Fri Dec 14 17:55:18 2018

Tools Copyright (c) 1996-2017 Texas Instruments Incorporated
F2837xD_CpuTimers.asm                                                PAGE    2

      56                      .dwattr $C$DW$6, DW_AT_TI_symbol_name("_CpuTimer0Regs")
      57                      .dwattr $C$DW$6, DW_AT_type(*$C$DW$T$21)
      58                      .dwattr $C$DW$6, DW_AT_declaration
      59                      .dwattr $C$DW$6, DW_AT_external
      60              
      61              ;       D:\ProgramFiles\ti\ccsv8\tools\compiler\ti-cgt-c2000_18.1.2.LTS\bin\ac2000.exe -@C:\\Users\\qd\\AppDa
      62 00000000               .sect   ".text"
      63                      .clink
      64                      .global _InitCpuTimers
      65              
      66              $C$DW$7 .dwtag  DW_TAG_subprogram
      67                      .dwattr $C$DW$7, DW_AT_name("InitCpuTimers")
      68                      .dwattr $C$DW$7, DW_AT_low_pc(_InitCpuTimers)
      69                      .dwattr $C$DW$7, DW_AT_high_pc(0x00)
      70                      .dwattr $C$DW$7, DW_AT_TI_symbol_name("_InitCpuTimers")
      71                      .dwattr $C$DW$7, DW_AT_external
      72                      .dwattr $C$DW$7, DW_AT_TI_begin_file("../F2837xD/F2837xD_CpuTimers.c")
      73                      .dwattr $C$DW$7, DW_AT_TI_begin_line(0x1f)
      74                      .dwattr $C$DW$7, DW_AT_TI_begin_column(0x06)
      75                      .dwattr $C$DW$7, DW_AT_TI_max_frame_size(-2)
      76                      .dwpsn  file "../F2837xD/F2837xD_CpuTimers.c",line 32,column 1,is_stmt,address _InitCpuTimers,isa 0
      77              
      78                      .dwfde $C$DW$CIE, _InitCpuTimers
      79              
      80              ;***************************************************************
      81              ;* FNAME: _InitCpuTimers                FR SIZE:   0           *
      82              ;*                                                             *
      83              ;* FUNCTION ENVIRONMENT                                        *
      84              ;*                                                             *
      85              ;* FUNCTION PROPERTIES                                         *
      86              ;*                            0 Parameter,  0 Auto,  0 SOE     *
      87              ;***************************************************************
      88              
      89 00000000       _InitCpuTimers:
      90                      .dwcfi  cfa_offset, -2
      91                      .dwcfi  save_reg_to_mem, 26, 0
      92                      .dwpsn  file "../F2837xD/F2837xD_CpuTimers.c",line 37,column 5,is_stmt,isa 0
      93 00000000 8F00!         MOVL      XAR4,#_CpuTimer0Regs  ; [CPU_ARAU] |37| 
         00000001 0000 
      94 00000002 761F-         MOVW      DP,#_CpuTimer0        ; [CPU_ARAU] 
         00000003 0000 
      95 00000004 A810-         MOVL      @_CpuTimer0,XAR4      ; [CPU_ALU] |37| 
      96                      .dwpsn  file "../F2837xD/F2837xD_CpuTimers.c",line 42,column 5,is_stmt,isa 0
      97 00000005 0200          MOVB      ACC,#0                ; [CPU_ALU] |42| 
      98 00000006 761F!         MOVW      DP,#_CpuTimer0Regs+2  ; [CPU_ARAU] 
         00000007 0000 
      99 00000008 1901          SUBB      ACC,#1                ; [CPU_ALU] |42| 
     100 00000009 1E02!         MOVL      @_CpuTimer0Regs+2,ACC ; [CPU_ALU] |42| 
     101                      .dwpsn  file "../F2837xD/F2837xD_CpuTimers.c",line 47,column 5,is_stmt,isa 0
     102 0000000a 2B06!         MOV       @_CpuTimer0Regs+6,#0  ; [CPU_ALU] |47| 
     103                      .dwpsn  file "../F2837xD/F2837xD_CpuTimers.c",line 48,column 5,is_stmt,isa 0
     104 0000000b 2B07!         MOV       @_CpuTimer0Regs+7,#0  ; [CPU_ALU] |48| 
     105                      .dwpsn  file "../F2837xD/F2837xD_CpuTimers.c",line 53,column 5,is_stmt,isa 0
     106 0000000c 1A04!         OR        @_CpuTimer0Regs+4,#0x0010 ; [CPU_ALU] |53| 
         0000000d 0010 
TMS320C2000 Assembler PC v18.1.2 Fri Dec 14 17:55:18 2018

Tools Copyright (c) 1996-2017 Texas Instruments Incorporated
F2837xD_CpuTimers.asm                                                PAGE    3

     107                      .dwpsn  file "../F2837xD/F2837xD_CpuTimers.c",line 58,column 5,is_stmt,isa 0
     108 0000000e 1A04!         OR        @_CpuTimer0Regs+4,#0x0020 ; [CPU_ALU] |58| 
         0000000f 0020 
     109                      .dwpsn  file "../F2837xD/F2837xD_CpuTimers.c",line 63,column 5,is_stmt,isa 0
     110 00000010 0200          MOVB      ACC,#0                ; [CPU_ALU] |63| 
     111 00000011 761F-         MOVW      DP,#_CpuTimer0+2      ; [CPU_ARAU] 
         00000012 0000 
     112 00000013 1E12-         MOVL      @_CpuTimer0+2,ACC     ; [CPU_ALU] |63| 
     113                      .dwpsn  file "../F2837xD/F2837xD_CpuTimers.c",line 68,column 5,is_stmt,isa 0
     114 00000014 8F00!         MOVL      XAR4,#_CpuTimer1Regs  ; [CPU_ARAU] |68| 
         00000015 0000 
     115 00000016 A800-         MOVL      @_CpuTimer1,XAR4      ; [CPU_ALU] |68| 
     116                      .dwpsn  file "../F2837xD/F2837xD_CpuTimers.c",line 69,column 5,is_stmt,isa 0
     117 00000017 8F00!         MOVL      XAR4,#_CpuTimer2Regs  ; [CPU_ARAU] |69| 
         00000018 0000 
     118 00000019 A808-         MOVL      @_CpuTimer2,XAR4      ; [CPU_ALU] |69| 
     119                      .dwpsn  file "../F2837xD/F2837xD_CpuTimers.c",line 74,column 5,is_stmt,isa 0
     120 0000001a 761F!         MOVW      DP,#_CpuTimer1Regs+2  ; [CPU_ARAU] 
         0000001b 0000 
     121 0000001c 1901          SUBB      ACC,#1                ; [CPU_ALU] |74| 
     122 0000001d 1E02!         MOVL      @_CpuTimer1Regs+2,ACC ; [CPU_ALU] |74| 
     123                      .dwpsn  file "../F2837xD/F2837xD_CpuTimers.c",line 75,column 5,is_stmt,isa 0
     124 0000001e 761F!         MOVW      DP,#_CpuTimer2Regs+2  ; [CPU_ARAU] 
         0000001f 0000 
     125 00000020 0200          MOVB      ACC,#0                ; [CPU_ALU] |75| 
     126 00000021 1901          SUBB      ACC,#1                ; [CPU_ALU] |75| 
     127 00000022 1E02!         MOVL      @_CpuTimer2Regs+2,ACC ; [CPU_ALU] |75| 
     128                      .dwpsn  file "../F2837xD/F2837xD_CpuTimers.c",line 80,column 5,is_stmt,isa 0
     129 00000023 761F!         MOVW      DP,#_CpuTimer1Regs+6  ; [CPU_ARAU] 
         00000024 0000 
     130 00000025 2B06!         MOV       @_CpuTimer1Regs+6,#0  ; [CPU_ALU] |80| 
     131                      .dwpsn  file "../F2837xD/F2837xD_CpuTimers.c",line 81,column 5,is_stmt,isa 0
     132 00000026 2B07!         MOV       @_CpuTimer1Regs+7,#0  ; [CPU_ALU] |81| 
     133                      .dwpsn  file "../F2837xD/F2837xD_CpuTimers.c",line 82,column 5,is_stmt,isa 0
     134 00000027 761F!         MOVW      DP,#_CpuTimer2Regs+6  ; [CPU_ARAU] 
         00000028 0000 
     135 00000029 2B06!         MOV       @_CpuTimer2Regs+6,#0  ; [CPU_ALU] |82| 
     136                      .dwpsn  file "../F2837xD/F2837xD_CpuTimers.c",line 83,column 5,is_stmt,isa 0
     137 0000002a 2B07!         MOV       @_CpuTimer2Regs+7,#0  ; [CPU_ALU] |83| 
     138                      .dwpsn  file "../F2837xD/F2837xD_CpuTimers.c",line 88,column 5,is_stmt,isa 0
     139 0000002b 761F!         MOVW      DP,#_CpuTimer1Regs+4  ; [CPU_ARAU] 
         0000002c 0000 
     140 0000002d 1A04!         OR        @_CpuTimer1Regs+4,#0x0010 ; [CPU_ALU] |88| 
         0000002e 0010 
     141                      .dwpsn  file "../F2837xD/F2837xD_CpuTimers.c",line 89,column 5,is_stmt,isa 0
     142 0000002f 761F!         MOVW      DP,#_CpuTimer2Regs+4  ; [CPU_ARAU] 
         00000030 0000 
     143 00000031 1A04!         OR        @_CpuTimer2Regs+4,#0x0010 ; [CPU_ALU] |89| 
         00000032 0010 
     144                      .dwpsn  file "../F2837xD/F2837xD_CpuTimers.c",line 94,column 5,is_stmt,isa 0
     145 00000033 761F!         MOVW      DP,#_CpuTimer1Regs+4  ; [CPU_ARAU] 
         00000034 0000 
     146 00000035 1A04!         OR        @_CpuTimer1Regs+4,#0x0020 ; [CPU_ALU] |94| 
         00000036 0020 
     147                      .dwpsn  file "../F2837xD/F2837xD_CpuTimers.c",line 95,column 5,is_stmt,isa 0
TMS320C2000 Assembler PC v18.1.2 Fri Dec 14 17:55:18 2018

Tools Copyright (c) 1996-2017 Texas Instruments Incorporated
F2837xD_CpuTimers.asm                                                PAGE    4

     148 00000037 761F!         MOVW      DP,#_CpuTimer2Regs+4  ; [CPU_ARAU] 
         00000038 0000 
     149 00000039 1A04!         OR        @_CpuTimer2Regs+4,#0x0020 ; [CPU_ALU] |95| 
         0000003a 0020 
     150                      .dwpsn  file "../F2837xD/F2837xD_CpuTimers.c",line 100,column 5,is_stmt,isa 0
     151 0000003b 761F-         MOVW      DP,#_CpuTimer1+2      ; [CPU_ARAU] 
         0000003c 0000 
     152 0000003d 0200          MOVB      ACC,#0                ; [CPU_ALU] |100| 
     153 0000003e 1E02-         MOVL      @_CpuTimer1+2,ACC     ; [CPU_ALU] |100| 
     154                      .dwpsn  file "../F2837xD/F2837xD_CpuTimers.c",line 101,column 5,is_stmt,isa 0
     155 0000003f 1E0A-         MOVL      @_CpuTimer2+2,ACC     ; [CPU_ALU] |101| 
     156                      .dwpsn  file "../F2837xD/F2837xD_CpuTimers.c",line 102,column 1,is_stmt,isa 0
     157              $C$DW$8 .dwtag  DW_TAG_TI_branch
     158                      .dwattr $C$DW$8, DW_AT_low_pc(0x00)
     159                      .dwattr $C$DW$8, DW_AT_TI_return
     160              
     161 00000040 0006          LRETR     ; [CPU_ALU] 
     162                      ; return occurs ; [] 
     163                      .dwattr $C$DW$7, DW_AT_TI_end_file("../F2837xD/F2837xD_CpuTimers.c")
     164                      .dwattr $C$DW$7, DW_AT_TI_end_line(0x66)
     165                      .dwattr $C$DW$7, DW_AT_TI_end_column(0x01)
     166                      .dwendentry
     167                      .dwendtag $C$DW$7
     168              
     169 00000041               .sect   ".text"
     170                      .clink
     171                      .global _ConfigCpuTimer
     172              
     173              $C$DW$9 .dwtag  DW_TAG_subprogram
     174                      .dwattr $C$DW$9, DW_AT_name("ConfigCpuTimer")
     175                      .dwattr $C$DW$9, DW_AT_low_pc(_ConfigCpuTimer)
     176                      .dwattr $C$DW$9, DW_AT_high_pc(0x00)
     177                      .dwattr $C$DW$9, DW_AT_TI_symbol_name("_ConfigCpuTimer")
     178                      .dwattr $C$DW$9, DW_AT_external
     179                      .dwattr $C$DW$9, DW_AT_TI_begin_file("../F2837xD/F2837xD_CpuTimers.c")
     180                      .dwattr $C$DW$9, DW_AT_TI_begin_line(0x6e)
     181                      .dwattr $C$DW$9, DW_AT_TI_begin_column(0x06)
     182                      .dwattr $C$DW$9, DW_AT_TI_max_frame_size(-10)
     183                      .dwpsn  file "../F2837xD/F2837xD_CpuTimers.c",line 111,column 1,is_stmt,address _ConfigCpuTimer,isa 0
     184              
     185                      .dwfde $C$DW$CIE, _ConfigCpuTimer
     186              $C$DW$10        .dwtag  DW_TAG_formal_parameter
     187                      .dwattr $C$DW$10, DW_AT_name("Timer")
     188                      .dwattr $C$DW$10, DW_AT_TI_symbol_name("_Timer")
     189                      .dwattr $C$DW$10, DW_AT_type(*$C$DW$T$35)
     190                      .dwattr $C$DW$10, DW_AT_location[DW_OP_reg12]
     191              
     192              $C$DW$11        .dwtag  DW_TAG_formal_parameter
     193                      .dwattr $C$DW$11, DW_AT_name("Freq")
     194                      .dwattr $C$DW$11, DW_AT_TI_symbol_name("_Freq")
     195                      .dwattr $C$DW$11, DW_AT_type(*$C$DW$T$16)
     196                      .dwattr $C$DW$11, DW_AT_location[DW_OP_regx 0x2b]
     197              
     198              $C$DW$12        .dwtag  DW_TAG_formal_parameter
     199                      .dwattr $C$DW$12, DW_AT_name("Period")
TMS320C2000 Assembler PC v18.1.2 Fri Dec 14 17:55:18 2018

Tools Copyright (c) 1996-2017 Texas Instruments Incorporated
F2837xD_CpuTimers.asm                                                PAGE    5

     200                      .dwattr $C$DW$12, DW_AT_TI_symbol_name("_Period")
     201                      .dwattr $C$DW$12, DW_AT_type(*$C$DW$T$16)
     202                      .dwattr $C$DW$12, DW_AT_location[DW_OP_regx 0x2f]
     203              
     204              
     205              ;***************************************************************
     206              ;* FNAME: _ConfigCpuTimer               FR SIZE:   8           *
     207              ;*                                                             *
     208              ;* FUNCTION ENVIRONMENT                                        *
     209              ;*                                                             *
     210              ;* FUNCTION PROPERTIES                                         *
     211              ;*                            0 Parameter,  8 Auto,  0 SOE     *
     212              ;***************************************************************
     213              
     214 00000041       _ConfigCpuTimer:
     215                      .dwcfi  cfa_offset, -2
     216                      .dwcfi  save_reg_to_mem, 26, 0
     217 00000041 FE08          ADDB      SP,#8                 ; [CPU_ARAU] 
     218                      .dwcfi  cfa_offset, -10
     219              $C$DW$13        .dwtag  DW_TAG_variable
     220                      .dwattr $C$DW$13, DW_AT_name("Timer")
     221                      .dwattr $C$DW$13, DW_AT_TI_symbol_name("_Timer")
     222                      .dwattr $C$DW$13, DW_AT_type(*$C$DW$T$35)
     223                      .dwattr $C$DW$13, DW_AT_location[DW_OP_breg20 -2]
     224              
     225              $C$DW$14        .dwtag  DW_TAG_variable
     226                      .dwattr $C$DW$14, DW_AT_name("Freq")
     227                      .dwattr $C$DW$14, DW_AT_TI_symbol_name("_Freq")
     228                      .dwattr $C$DW$14, DW_AT_type(*$C$DW$T$16)
     229                      .dwattr $C$DW$14, DW_AT_location[DW_OP_breg20 -4]
     230              
     231              $C$DW$15        .dwtag  DW_TAG_variable
     232                      .dwattr $C$DW$15, DW_AT_name("Period")
     233                      .dwattr $C$DW$15, DW_AT_TI_symbol_name("_Period")
     234                      .dwattr $C$DW$15, DW_AT_type(*$C$DW$T$16)
     235                      .dwattr $C$DW$15, DW_AT_location[DW_OP_breg20 -6]
     236              
     237              $C$DW$16        .dwtag  DW_TAG_variable
     238                      .dwattr $C$DW$16, DW_AT_name("temp")
     239                      .dwattr $C$DW$16, DW_AT_TI_symbol_name("_temp")
     240                      .dwattr $C$DW$16, DW_AT_type(*$C$DW$T$23)
     241                      .dwattr $C$DW$16, DW_AT_location[DW_OP_breg20 -8]
     242              
     243 00000042 E203          MOV32     *-SP[6],R1H           ; [CPU_FPU] |111| 
         00000043 0146 
     244 00000044 E203          MOV32     *-SP[4],R0H           ; [CPU_FPU] |111| 
         00000045 0044 
     245 00000046 A842          MOVL      *-SP[2],XAR4          ; [CPU_ALU] |111| 
     246                      .dwpsn  file "../F2837xD/F2837xD_CpuTimers.c",line 117,column 5,is_stmt,isa 0
     247 00000047 0644          MOVL      ACC,*-SP[4]           ; [CPU_ALU] |117| 
     248 00000048 1EE4          MOVL      *+XAR4[4],ACC         ; [CPU_ALU] |117| 
     249                      .dwpsn  file "../F2837xD/F2837xD_CpuTimers.c",line 118,column 5,is_stmt,isa 0
     250 00000049 8A42          MOVL      XAR4,*-SP[2]          ; [CPU_ALU] |118| 
     251 0000004a 0646          MOVL      ACC,*-SP[6]           ; [CPU_ALU] |118| 
     252 0000004b 1EF4          MOVL      *+XAR4[6],ACC         ; [CPU_ALU] |118| 
TMS320C2000 Assembler PC v18.1.2 Fri Dec 14 17:55:18 2018

Tools Copyright (c) 1996-2017 Texas Instruments Incorporated
F2837xD_CpuTimers.asm                                                PAGE    6

     253                      .dwpsn  file "../F2837xD/F2837xD_CpuTimers.c",line 119,column 5,is_stmt,isa 0
     254 0000004c E2AF          MOV32     R0H,*-SP[4]           ; [CPU_FPU] |119| 
         0000004d 0044 
     255 0000004e E2AF          MOV32     R1H,*-SP[6]           ; [CPU_FPU] |119| 
         0000004f 0146 
     256 00000050 E700          MPYF32    R0H,R1H,R0H           ; [CPU_FPU] |119| 
         00000051 0008 
     257 00000052 7700          NOP       ; [CPU_ALU] 
     258 00000053 E688          F32TOI32  R0H,R0H               ; [CPU_FPU] |119| 
         00000054 0000 
     259 00000055 7700          NOP       ; [CPU_ALU] 
     260 00000056 E203          MOV32     *-SP[8],R0H           ; [CPU_FPU] |119| 
         00000057 0048 
     261                      .dwpsn  file "../F2837xD/F2837xD_CpuTimers.c",line 124,column 5,is_stmt,isa 0
     262 00000058 8A42          MOVL      XAR4,*-SP[2]          ; [CPU_ALU] |124| 
     263 00000059 8AC4          MOVL      XAR4,*+XAR4[0]        ; [CPU_ALU] |124| 
     264 0000005a 0648          MOVL      ACC,*-SP[8]           ; [CPU_ALU] |124| 
     265 0000005b 1901          SUBB      ACC,#1                ; [CPU_ALU] |124| 
     266 0000005c 1ED4          MOVL      *+XAR4[2],ACC         ; [CPU_ALU] |124| 
     267                      .dwpsn  file "../F2837xD/F2837xD_CpuTimers.c",line 129,column 5,is_stmt,isa 0
     268 0000005d 8A42          MOVL      XAR4,*-SP[2]          ; [CPU_ALU] |129| 
     269 0000005e 8AC4          MOVL      XAR4,*+XAR4[0]        ; [CPU_ALU] |129| 
     270 0000005f 2BF4          MOV       *+XAR4[6],#0          ; [CPU_ALU] |129| 
     271                      .dwpsn  file "../F2837xD/F2837xD_CpuTimers.c",line 130,column 5,is_stmt,isa 0
     272 00000060 8A42          MOVL      XAR4,*-SP[2]          ; [CPU_ALU] |130| 
     273 00000061 8AC4          MOVL      XAR4,*+XAR4[0]        ; [CPU_ALU] |130| 
     274 00000062 2BFC          MOV       *+XAR4[7],#0          ; [CPU_ALU] |130| 
     275                      .dwpsn  file "../F2837xD/F2837xD_CpuTimers.c",line 135,column 5,is_stmt,isa 0
     276 00000063 8A42          MOVL      XAR4,*-SP[2]          ; [CPU_ALU] |135| 
     277 00000064 8AC4          MOVL      XAR4,*+XAR4[0]        ; [CPU_ALU] |135| 
     278 00000065 1AE4          OR        *+XAR4[4],#0x0010     ; [CPU_ALU] |135| 
         00000066 0010 
     279                      .dwpsn  file "../F2837xD/F2837xD_CpuTimers.c",line 137,column 5,is_stmt,isa 0
     280 00000067 8A42          MOVL      XAR4,*-SP[2]          ; [CPU_ALU] |137| 
     281 00000068 8AC4          MOVL      XAR4,*+XAR4[0]        ; [CPU_ALU] |137| 
     282 00000069 1AE4          OR        *+XAR4[4],#0x0020     ; [CPU_ALU] |137| 
         0000006a 0020 
     283                      .dwpsn  file "../F2837xD/F2837xD_CpuTimers.c",line 138,column 5,is_stmt,isa 0
     284 0000006b 8A42          MOVL      XAR4,*-SP[2]          ; [CPU_ALU] |138| 
     285 0000006c 8AC4          MOVL      XAR4,*+XAR4[0]        ; [CPU_ALU] |138| 
     286 0000006d 18E4          AND       *+XAR4[4],#0xfbff     ; [CPU_ALU] |138| 
         0000006e FBFF 
     287                      .dwpsn  file "../F2837xD/F2837xD_CpuTimers.c",line 139,column 5,is_stmt,isa 0
     288 0000006f 8A42          MOVL      XAR4,*-SP[2]          ; [CPU_ALU] |139| 
     289 00000070 8AC4          MOVL      XAR4,*+XAR4[0]        ; [CPU_ALU] |139| 
     290 00000071 18E4          AND       *+XAR4[4],#0xf7ff     ; [CPU_ALU] |139| 
         00000072 F7FF 
     291                      .dwpsn  file "../F2837xD/F2837xD_CpuTimers.c",line 140,column 5,is_stmt,isa 0
     292 00000073 8A42          MOVL      XAR4,*-SP[2]          ; [CPU_ALU] |140| 
     293 00000074 8AC4          MOVL      XAR4,*+XAR4[0]        ; [CPU_ALU] |140| 
     294 00000075 1AE4          OR        *+XAR4[4],#0x4000     ; [CPU_ALU] |140| 
         00000076 4000 
     295                      .dwpsn  file "../F2837xD/F2837xD_CpuTimers.c",line 146,column 5,is_stmt,isa 0
     296 00000077 8A42          MOVL      XAR4,*-SP[2]          ; [CPU_ALU] |146| 
     297 00000078 0200          MOVB      ACC,#0                ; [CPU_ALU] |146| 
TMS320C2000 Assembler PC v18.1.2 Fri Dec 14 17:55:18 2018

Tools Copyright (c) 1996-2017 Texas Instruments Incorporated
F2837xD_CpuTimers.asm                                                PAGE    7

     298 00000079 1ED4          MOVL      *+XAR4[2],ACC         ; [CPU_ALU] |146| 
     299                      .dwpsn  file "../F2837xD/F2837xD_CpuTimers.c",line 147,column 1,is_stmt,isa 0
     300 0000007a FE88          SUBB      SP,#8                 ; [CPU_ARAU] 
     301                      .dwcfi  cfa_offset, -2
     302              $C$DW$17        .dwtag  DW_TAG_TI_branch
     303                      .dwattr $C$DW$17, DW_AT_low_pc(0x00)
     304                      .dwattr $C$DW$17, DW_AT_TI_return
     305              
     306 0000007b 0006          LRETR     ; [CPU_ALU] 
     307                      ; return occurs ; [] 
     308                      .dwattr $C$DW$9, DW_AT_TI_end_file("../F2837xD/F2837xD_CpuTimers.c")
     309                      .dwattr $C$DW$9, DW_AT_TI_end_line(0x93)
     310                      .dwattr $C$DW$9, DW_AT_TI_end_column(0x01)
     311                      .dwendentry
     312                      .dwendtag $C$DW$9
     313              
     314              ;**************************************************************
     315              ;* UNDEFINED EXTERNAL REFERENCES                              *
     316              ;**************************************************************
     317                      .global _CpuTimer1Regs
     318                      .global _CpuTimer2Regs
     319                      .global _CpuTimer0Regs
     320              
     321              ;***************************************************************
     322              ;* TYPE INFORMATION                                            *
     323              ;***************************************************************
     324              
     325              $C$DW$T$20      .dwtag  DW_TAG_structure_type
     326                      .dwattr $C$DW$T$20, DW_AT_name("CPUTIMER_REGS")
     327                      .dwattr $C$DW$T$20, DW_AT_byte_size(0x08)
     328              $C$DW$18        .dwtag  DW_TAG_member
     329                      .dwattr $C$DW$18, DW_AT_type(*$C$DW$T$30)
     330                      .dwattr $C$DW$18, DW_AT_name("TIM")
     331                      .dwattr $C$DW$18, DW_AT_TI_symbol_name("_TIM")
     332                      .dwattr $C$DW$18, DW_AT_data_member_location[DW_OP_plus_uconst 0x0]
     333                      .dwattr $C$DW$18, DW_AT_accessibility(DW_ACCESS_public)
     334              
     335              $C$DW$19        .dwtag  DW_TAG_member
     336                      .dwattr $C$DW$19, DW_AT_type(*$C$DW$T$26)
     337                      .dwattr $C$DW$19, DW_AT_name("PRD")
     338                      .dwattr $C$DW$19, DW_AT_TI_symbol_name("_PRD")
     339                      .dwattr $C$DW$19, DW_AT_data_member_location[DW_OP_plus_uconst 0x2]
     340                      .dwattr $C$DW$19, DW_AT_accessibility(DW_ACCESS_public)
     341              
     342              $C$DW$20        .dwtag  DW_TAG_member
     343                      .dwattr $C$DW$20, DW_AT_type(*$C$DW$T$28)
     344                      .dwattr $C$DW$20, DW_AT_name("TCR")
     345                      .dwattr $C$DW$20, DW_AT_TI_symbol_name("_TCR")
     346                      .dwattr $C$DW$20, DW_AT_data_member_location[DW_OP_plus_uconst 0x4]
     347                      .dwattr $C$DW$20, DW_AT_accessibility(DW_ACCESS_public)
     348              
     349              $C$DW$21        .dwtag  DW_TAG_member
     350                      .dwattr $C$DW$21, DW_AT_type(*$C$DW$T$19)
     351                      .dwattr $C$DW$21, DW_AT_name("rsvd1")
     352                      .dwattr $C$DW$21, DW_AT_TI_symbol_name("_rsvd1")
TMS320C2000 Assembler PC v18.1.2 Fri Dec 14 17:55:18 2018

Tools Copyright (c) 1996-2017 Texas Instruments Incorporated
F2837xD_CpuTimers.asm                                                PAGE    8

     353                      .dwattr $C$DW$21, DW_AT_data_member_location[DW_OP_plus_uconst 0x5]
     354                      .dwattr $C$DW$21, DW_AT_accessibility(DW_ACCESS_public)
     355              
     356              $C$DW$22        .dwtag  DW_TAG_member
     357                      .dwattr $C$DW$22, DW_AT_type(*$C$DW$T$34)
     358                      .dwattr $C$DW$22, DW_AT_name("TPR")
     359                      .dwattr $C$DW$22, DW_AT_TI_symbol_name("_TPR")
     360                      .dwattr $C$DW$22, DW_AT_data_member_location[DW_OP_plus_uconst 0x6]
     361                      .dwattr $C$DW$22, DW_AT_accessibility(DW_ACCESS_public)
     362              
     363              $C$DW$23        .dwtag  DW_TAG_member
     364                      .dwattr $C$DW$23, DW_AT_type(*$C$DW$T$32)
     365                      .dwattr $C$DW$23, DW_AT_name("TPRH")
     366                      .dwattr $C$DW$23, DW_AT_TI_symbol_name("_TPRH")
     367                      .dwattr $C$DW$23, DW_AT_data_member_location[DW_OP_plus_uconst 0x7]
     368                      .dwattr $C$DW$23, DW_AT_accessibility(DW_ACCESS_public)
     369              
     370                      .dwendtag $C$DW$T$20
     371              
     372              $C$DW$24        .dwtag  DW_TAG_TI_far_type
     373                      .dwattr $C$DW$24, DW_AT_type(*$C$DW$T$20)
     374              
     375              $C$DW$T$21      .dwtag  DW_TAG_volatile_type
     376                      .dwattr $C$DW$T$21, DW_AT_type(*$C$DW$24)
     377              
     378              $C$DW$T$22      .dwtag  DW_TAG_pointer_type
     379                      .dwattr $C$DW$T$22, DW_AT_type(*$C$DW$T$21)
     380                      .dwattr $C$DW$T$22, DW_AT_address_class(0x20)
     381              
     382              
     383              $C$DW$T$24      .dwtag  DW_TAG_structure_type
     384                      .dwattr $C$DW$T$24, DW_AT_name("CPUTIMER_VARS")
     385                      .dwattr $C$DW$T$24, DW_AT_byte_size(0x08)
     386              $C$DW$25        .dwtag  DW_TAG_member
     387                      .dwattr $C$DW$25, DW_AT_type(*$C$DW$T$22)
     388                      .dwattr $C$DW$25, DW_AT_name("RegsAddr")
     389                      .dwattr $C$DW$25, DW_AT_TI_symbol_name("_RegsAddr")
     390                      .dwattr $C$DW$25, DW_AT_data_member_location[DW_OP_plus_uconst 0x0]
     391                      .dwattr $C$DW$25, DW_AT_accessibility(DW_ACCESS_public)
     392              
     393              $C$DW$26        .dwtag  DW_TAG_member
     394                      .dwattr $C$DW$26, DW_AT_type(*$C$DW$T$23)
     395                      .dwattr $C$DW$26, DW_AT_name("InterruptCount")
     396                      .dwattr $C$DW$26, DW_AT_TI_symbol_name("_InterruptCount")
     397                      .dwattr $C$DW$26, DW_AT_data_member_location[DW_OP_plus_uconst 0x2]
     398                      .dwattr $C$DW$26, DW_AT_accessibility(DW_ACCESS_public)
     399              
     400              $C$DW$27        .dwtag  DW_TAG_member
     401                      .dwattr $C$DW$27, DW_AT_type(*$C$DW$T$16)
     402                      .dwattr $C$DW$27, DW_AT_name("CPUFreqInMHz")
     403                      .dwattr $C$DW$27, DW_AT_TI_symbol_name("_CPUFreqInMHz")
     404                      .dwattr $C$DW$27, DW_AT_data_member_location[DW_OP_plus_uconst 0x4]
     405                      .dwattr $C$DW$27, DW_AT_accessibility(DW_ACCESS_public)
     406              
     407              $C$DW$28        .dwtag  DW_TAG_member
TMS320C2000 Assembler PC v18.1.2 Fri Dec 14 17:55:18 2018

Tools Copyright (c) 1996-2017 Texas Instruments Incorporated
F2837xD_CpuTimers.asm                                                PAGE    9

     408                      .dwattr $C$DW$28, DW_AT_type(*$C$DW$T$16)
     409                      .dwattr $C$DW$28, DW_AT_name("PeriodInUSec")
     410                      .dwattr $C$DW$28, DW_AT_TI_symbol_name("_PeriodInUSec")
     411                      .dwattr $C$DW$28, DW_AT_data_member_location[DW_OP_plus_uconst 0x6]
     412                      .dwattr $C$DW$28, DW_AT_accessibility(DW_ACCESS_public)
     413              
     414                      .dwendtag $C$DW$T$24
     415              
     416              $C$DW$T$35      .dwtag  DW_TAG_pointer_type
     417                      .dwattr $C$DW$T$35, DW_AT_type(*$C$DW$T$24)
     418                      .dwattr $C$DW$T$35, DW_AT_address_class(0x20)
     419              
     420              
     421              $C$DW$T$25      .dwtag  DW_TAG_structure_type
     422                      .dwattr $C$DW$T$25, DW_AT_name("PRD_BITS")
     423                      .dwattr $C$DW$T$25, DW_AT_byte_size(0x02)
     424              $C$DW$29        .dwtag  DW_TAG_member
     425                      .dwattr $C$DW$29, DW_AT_type(*$C$DW$T$19)
     426                      .dwattr $C$DW$29, DW_AT_name("LSW")
     427                      .dwattr $C$DW$29, DW_AT_TI_symbol_name("_LSW")
     428                      .dwattr $C$DW$29, DW_AT_bit_offset(0x00)
     429                      .dwattr $C$DW$29, DW_AT_bit_size(0x10)
     430                      .dwattr $C$DW$29, DW_AT_data_member_location[DW_OP_plus_uconst 0x0]
     431                      .dwattr $C$DW$29, DW_AT_accessibility(DW_ACCESS_public)
     432              
     433              $C$DW$30        .dwtag  DW_TAG_member
     434                      .dwattr $C$DW$30, DW_AT_type(*$C$DW$T$19)
     435                      .dwattr $C$DW$30, DW_AT_name("MSW")
     436                      .dwattr $C$DW$30, DW_AT_TI_symbol_name("_MSW")
     437                      .dwattr $C$DW$30, DW_AT_bit_offset(0x00)
     438                      .dwattr $C$DW$30, DW_AT_bit_size(0x10)
     439                      .dwattr $C$DW$30, DW_AT_data_member_location[DW_OP_plus_uconst 0x1]
     440                      .dwattr $C$DW$30, DW_AT_accessibility(DW_ACCESS_public)
     441              
     442                      .dwendtag $C$DW$T$25
     443              
     444              
     445              $C$DW$T$26      .dwtag  DW_TAG_union_type
     446                      .dwattr $C$DW$T$26, DW_AT_name("PRD_REG")
     447                      .dwattr $C$DW$T$26, DW_AT_byte_size(0x02)
     448              $C$DW$31        .dwtag  DW_TAG_member
     449                      .dwattr $C$DW$31, DW_AT_type(*$C$DW$T$23)
     450                      .dwattr $C$DW$31, DW_AT_name("all")
     451                      .dwattr $C$DW$31, DW_AT_TI_symbol_name("_all")
     452                      .dwattr $C$DW$31, DW_AT_data_member_location[DW_OP_plus_uconst 0x0]
     453                      .dwattr $C$DW$31, DW_AT_accessibility(DW_ACCESS_public)
     454              
     455              $C$DW$32        .dwtag  DW_TAG_member
     456                      .dwattr $C$DW$32, DW_AT_type(*$C$DW$T$25)
     457                      .dwattr $C$DW$32, DW_AT_name("bit")
     458                      .dwattr $C$DW$32, DW_AT_TI_symbol_name("_bit")
     459                      .dwattr $C$DW$32, DW_AT_data_member_location[DW_OP_plus_uconst 0x0]
     460                      .dwattr $C$DW$32, DW_AT_accessibility(DW_ACCESS_public)
     461              
     462                      .dwendtag $C$DW$T$26
TMS320C2000 Assembler PC v18.1.2 Fri Dec 14 17:55:18 2018

Tools Copyright (c) 1996-2017 Texas Instruments Incorporated
F2837xD_CpuTimers.asm                                                PAGE   10

     463              
     464              
     465              $C$DW$T$27      .dwtag  DW_TAG_structure_type
     466                      .dwattr $C$DW$T$27, DW_AT_name("TCR_BITS")
     467                      .dwattr $C$DW$T$27, DW_AT_byte_size(0x01)
     468              $C$DW$33        .dwtag  DW_TAG_member
     469                      .dwattr $C$DW$33, DW_AT_type(*$C$DW$T$19)
     470                      .dwattr $C$DW$33, DW_AT_name("rsvd1")
     471                      .dwattr $C$DW$33, DW_AT_TI_symbol_name("_rsvd1")
     472                      .dwattr $C$DW$33, DW_AT_bit_offset(0x0c)
     473                      .dwattr $C$DW$33, DW_AT_bit_size(0x04)
     474                      .dwattr $C$DW$33, DW_AT_data_member_location[DW_OP_plus_uconst 0x0]
     475                      .dwattr $C$DW$33, DW_AT_accessibility(DW_ACCESS_public)
     476              
     477              $C$DW$34        .dwtag  DW_TAG_member
     478                      .dwattr $C$DW$34, DW_AT_type(*$C$DW$T$19)
     479                      .dwattr $C$DW$34, DW_AT_name("TSS")
     480                      .dwattr $C$DW$34, DW_AT_TI_symbol_name("_TSS")
     481                      .dwattr $C$DW$34, DW_AT_bit_offset(0x0b)
     482                      .dwattr $C$DW$34, DW_AT_bit_size(0x01)
     483                      .dwattr $C$DW$34, DW_AT_data_member_location[DW_OP_plus_uconst 0x0]
     484                      .dwattr $C$DW$34, DW_AT_accessibility(DW_ACCESS_public)
     485              
     486              $C$DW$35        .dwtag  DW_TAG_member
     487                      .dwattr $C$DW$35, DW_AT_type(*$C$DW$T$19)
     488                      .dwattr $C$DW$35, DW_AT_name("TRB")
     489                      .dwattr $C$DW$35, DW_AT_TI_symbol_name("_TRB")
     490                      .dwattr $C$DW$35, DW_AT_bit_offset(0x0a)
     491                      .dwattr $C$DW$35, DW_AT_bit_size(0x01)
     492                      .dwattr $C$DW$35, DW_AT_data_member_location[DW_OP_plus_uconst 0x0]
     493                      .dwattr $C$DW$35, DW_AT_accessibility(DW_ACCESS_public)
     494              
     495              $C$DW$36        .dwtag  DW_TAG_member
     496                      .dwattr $C$DW$36, DW_AT_type(*$C$DW$T$19)
     497                      .dwattr $C$DW$36, DW_AT_name("rsvd2")
     498                      .dwattr $C$DW$36, DW_AT_TI_symbol_name("_rsvd2")
     499                      .dwattr $C$DW$36, DW_AT_bit_offset(0x06)
     500                      .dwattr $C$DW$36, DW_AT_bit_size(0x04)
     501                      .dwattr $C$DW$36, DW_AT_data_member_location[DW_OP_plus_uconst 0x0]
     502                      .dwattr $C$DW$36, DW_AT_accessibility(DW_ACCESS_public)
     503              
     504              $C$DW$37        .dwtag  DW_TAG_member
     505                      .dwattr $C$DW$37, DW_AT_type(*$C$DW$T$19)
     506                      .dwattr $C$DW$37, DW_AT_name("SOFT")
     507                      .dwattr $C$DW$37, DW_AT_TI_symbol_name("_SOFT")
     508                      .dwattr $C$DW$37, DW_AT_bit_offset(0x05)
     509                      .dwattr $C$DW$37, DW_AT_bit_size(0x01)
     510                      .dwattr $C$DW$37, DW_AT_data_member_location[DW_OP_plus_uconst 0x0]
     511                      .dwattr $C$DW$37, DW_AT_accessibility(DW_ACCESS_public)
     512              
     513              $C$DW$38        .dwtag  DW_TAG_member
     514                      .dwattr $C$DW$38, DW_AT_type(*$C$DW$T$19)
     515                      .dwattr $C$DW$38, DW_AT_name("FREE")
     516                      .dwattr $C$DW$38, DW_AT_TI_symbol_name("_FREE")
     517                      .dwattr $C$DW$38, DW_AT_bit_offset(0x04)
TMS320C2000 Assembler PC v18.1.2 Fri Dec 14 17:55:18 2018

Tools Copyright (c) 1996-2017 Texas Instruments Incorporated
F2837xD_CpuTimers.asm                                                PAGE   11

     518                      .dwattr $C$DW$38, DW_AT_bit_size(0x01)
     519                      .dwattr $C$DW$38, DW_AT_data_member_location[DW_OP_plus_uconst 0x0]
     520                      .dwattr $C$DW$38, DW_AT_accessibility(DW_ACCESS_public)
     521              
     522              $C$DW$39        .dwtag  DW_TAG_member
     523                      .dwattr $C$DW$39, DW_AT_type(*$C$DW$T$19)
     524                      .dwattr $C$DW$39, DW_AT_name("rsvd3")
     525                      .dwattr $C$DW$39, DW_AT_TI_symbol_name("_rsvd3")
     526                      .dwattr $C$DW$39, DW_AT_bit_offset(0x02)
     527                      .dwattr $C$DW$39, DW_AT_bit_size(0x02)
     528                      .dwattr $C$DW$39, DW_AT_data_member_location[DW_OP_plus_uconst 0x0]
     529                      .dwattr $C$DW$39, DW_AT_accessibility(DW_ACCESS_public)
     530              
     531              $C$DW$40        .dwtag  DW_TAG_member
     532                      .dwattr $C$DW$40, DW_AT_type(*$C$DW$T$19)
     533                      .dwattr $C$DW$40, DW_AT_name("TIE")
     534                      .dwattr $C$DW$40, DW_AT_TI_symbol_name("_TIE")
     535                      .dwattr $C$DW$40, DW_AT_bit_offset(0x01)
     536                      .dwattr $C$DW$40, DW_AT_bit_size(0x01)
     537                      .dwattr $C$DW$40, DW_AT_data_member_location[DW_OP_plus_uconst 0x0]
     538                      .dwattr $C$DW$40, DW_AT_accessibility(DW_ACCESS_public)
     539              
     540              $C$DW$41        .dwtag  DW_TAG_member
     541                      .dwattr $C$DW$41, DW_AT_type(*$C$DW$T$19)
     542                      .dwattr $C$DW$41, DW_AT_name("TIF")
     543                      .dwattr $C$DW$41, DW_AT_TI_symbol_name("_TIF")
     544                      .dwattr $C$DW$41, DW_AT_bit_offset(0x00)
     545                      .dwattr $C$DW$41, DW_AT_bit_size(0x01)
     546                      .dwattr $C$DW$41, DW_AT_data_member_location[DW_OP_plus_uconst 0x0]
     547                      .dwattr $C$DW$41, DW_AT_accessibility(DW_ACCESS_public)
     548              
     549                      .dwendtag $C$DW$T$27
     550              
     551              
     552              $C$DW$T$28      .dwtag  DW_TAG_union_type
     553                      .dwattr $C$DW$T$28, DW_AT_name("TCR_REG")
     554                      .dwattr $C$DW$T$28, DW_AT_byte_size(0x01)
     555              $C$DW$42        .dwtag  DW_TAG_member
     556                      .dwattr $C$DW$42, DW_AT_type(*$C$DW$T$19)
     557                      .dwattr $C$DW$42, DW_AT_name("all")
     558                      .dwattr $C$DW$42, DW_AT_TI_symbol_name("_all")
     559                      .dwattr $C$DW$42, DW_AT_data_member_location[DW_OP_plus_uconst 0x0]
     560                      .dwattr $C$DW$42, DW_AT_accessibility(DW_ACCESS_public)
     561              
     562              $C$DW$43        .dwtag  DW_TAG_member
     563                      .dwattr $C$DW$43, DW_AT_type(*$C$DW$T$27)
     564                      .dwattr $C$DW$43, DW_AT_name("bit")
     565                      .dwattr $C$DW$43, DW_AT_TI_symbol_name("_bit")
     566                      .dwattr $C$DW$43, DW_AT_data_member_location[DW_OP_plus_uconst 0x0]
     567                      .dwattr $C$DW$43, DW_AT_accessibility(DW_ACCESS_public)
     568              
     569                      .dwendtag $C$DW$T$28
     570              
     571              
     572              $C$DW$T$29      .dwtag  DW_TAG_structure_type
TMS320C2000 Assembler PC v18.1.2 Fri Dec 14 17:55:18 2018

Tools Copyright (c) 1996-2017 Texas Instruments Incorporated
F2837xD_CpuTimers.asm                                                PAGE   12

     573                      .dwattr $C$DW$T$29, DW_AT_name("TIM_BITS")
     574                      .dwattr $C$DW$T$29, DW_AT_byte_size(0x02)
     575              $C$DW$44        .dwtag  DW_TAG_member
     576                      .dwattr $C$DW$44, DW_AT_type(*$C$DW$T$19)
     577                      .dwattr $C$DW$44, DW_AT_name("LSW")
     578                      .dwattr $C$DW$44, DW_AT_TI_symbol_name("_LSW")
     579                      .dwattr $C$DW$44, DW_AT_bit_offset(0x00)
     580                      .dwattr $C$DW$44, DW_AT_bit_size(0x10)
     581                      .dwattr $C$DW$44, DW_AT_data_member_location[DW_OP_plus_uconst 0x0]
     582                      .dwattr $C$DW$44, DW_AT_accessibility(DW_ACCESS_public)
     583              
     584              $C$DW$45        .dwtag  DW_TAG_member
     585                      .dwattr $C$DW$45, DW_AT_type(*$C$DW$T$19)
     586                      .dwattr $C$DW$45, DW_AT_name("MSW")
     587                      .dwattr $C$DW$45, DW_AT_TI_symbol_name("_MSW")
     588                      .dwattr $C$DW$45, DW_AT_bit_offset(0x00)
     589                      .dwattr $C$DW$45, DW_AT_bit_size(0x10)
     590                      .dwattr $C$DW$45, DW_AT_data_member_location[DW_OP_plus_uconst 0x1]
     591                      .dwattr $C$DW$45, DW_AT_accessibility(DW_ACCESS_public)
     592              
     593                      .dwendtag $C$DW$T$29
     594              
     595              
     596              $C$DW$T$30      .dwtag  DW_TAG_union_type
     597                      .dwattr $C$DW$T$30, DW_AT_name("TIM_REG")
     598                      .dwattr $C$DW$T$30, DW_AT_byte_size(0x02)
     599              $C$DW$46        .dwtag  DW_TAG_member
     600                      .dwattr $C$DW$46, DW_AT_type(*$C$DW$T$23)
     601                      .dwattr $C$DW$46, DW_AT_name("all")
     602                      .dwattr $C$DW$46, DW_AT_TI_symbol_name("_all")
     603                      .dwattr $C$DW$46, DW_AT_data_member_location[DW_OP_plus_uconst 0x0]
     604                      .dwattr $C$DW$46, DW_AT_accessibility(DW_ACCESS_public)
     605              
     606              $C$DW$47        .dwtag  DW_TAG_member
     607                      .dwattr $C$DW$47, DW_AT_type(*$C$DW$T$29)
     608                      .dwattr $C$DW$47, DW_AT_name("bit")
     609                      .dwattr $C$DW$47, DW_AT_TI_symbol_name("_bit")
     610                      .dwattr $C$DW$47, DW_AT_data_member_location[DW_OP_plus_uconst 0x0]
     611                      .dwattr $C$DW$47, DW_AT_accessibility(DW_ACCESS_public)
     612              
     613                      .dwendtag $C$DW$T$30
     614              
     615              
     616              $C$DW$T$31      .dwtag  DW_TAG_structure_type
     617                      .dwattr $C$DW$T$31, DW_AT_name("TPRH_BITS")
     618                      .dwattr $C$DW$T$31, DW_AT_byte_size(0x01)
     619              $C$DW$48        .dwtag  DW_TAG_member
     620                      .dwattr $C$DW$48, DW_AT_type(*$C$DW$T$19)
     621                      .dwattr $C$DW$48, DW_AT_name("TDDRH")
     622                      .dwattr $C$DW$48, DW_AT_TI_symbol_name("_TDDRH")
     623                      .dwattr $C$DW$48, DW_AT_bit_offset(0x08)
     624                      .dwattr $C$DW$48, DW_AT_bit_size(0x08)
     625                      .dwattr $C$DW$48, DW_AT_data_member_location[DW_OP_plus_uconst 0x0]
     626                      .dwattr $C$DW$48, DW_AT_accessibility(DW_ACCESS_public)
     627              
TMS320C2000 Assembler PC v18.1.2 Fri Dec 14 17:55:18 2018

Tools Copyright (c) 1996-2017 Texas Instruments Incorporated
F2837xD_CpuTimers.asm                                                PAGE   13

     628              $C$DW$49        .dwtag  DW_TAG_member
     629                      .dwattr $C$DW$49, DW_AT_type(*$C$DW$T$19)
     630                      .dwattr $C$DW$49, DW_AT_name("PSCH")
     631                      .dwattr $C$DW$49, DW_AT_TI_symbol_name("_PSCH")
     632                      .dwattr $C$DW$49, DW_AT_bit_offset(0x00)
     633                      .dwattr $C$DW$49, DW_AT_bit_size(0x08)
     634                      .dwattr $C$DW$49, DW_AT_data_member_location[DW_OP_plus_uconst 0x0]
     635                      .dwattr $C$DW$49, DW_AT_accessibility(DW_ACCESS_public)
     636              
     637                      .dwendtag $C$DW$T$31
     638              
     639              
     640              $C$DW$T$32      .dwtag  DW_TAG_union_type
     641                      .dwattr $C$DW$T$32, DW_AT_name("TPRH_REG")
     642                      .dwattr $C$DW$T$32, DW_AT_byte_size(0x01)
     643              $C$DW$50        .dwtag  DW_TAG_member
     644                      .dwattr $C$DW$50, DW_AT_type(*$C$DW$T$19)
     645                      .dwattr $C$DW$50, DW_AT_name("all")
     646                      .dwattr $C$DW$50, DW_AT_TI_symbol_name("_all")
     647                      .dwattr $C$DW$50, DW_AT_data_member_location[DW_OP_plus_uconst 0x0]
     648                      .dwattr $C$DW$50, DW_AT_accessibility(DW_ACCESS_public)
     649              
     650              $C$DW$51        .dwtag  DW_TAG_member
     651                      .dwattr $C$DW$51, DW_AT_type(*$C$DW$T$31)
     652                      .dwattr $C$DW$51, DW_AT_name("bit")
     653                      .dwattr $C$DW$51, DW_AT_TI_symbol_name("_bit")
     654                      .dwattr $C$DW$51, DW_AT_data_member_location[DW_OP_plus_uconst 0x0]
     655                      .dwattr $C$DW$51, DW_AT_accessibility(DW_ACCESS_public)
     656              
     657                      .dwendtag $C$DW$T$32
     658              
     659              
     660              $C$DW$T$33      .dwtag  DW_TAG_structure_type
     661                      .dwattr $C$DW$T$33, DW_AT_name("TPR_BITS")
     662                      .dwattr $C$DW$T$33, DW_AT_byte_size(0x01)
     663              $C$DW$52        .dwtag  DW_TAG_member
     664                      .dwattr $C$DW$52, DW_AT_type(*$C$DW$T$19)
     665                      .dwattr $C$DW$52, DW_AT_name("TDDR")
     666                      .dwattr $C$DW$52, DW_AT_TI_symbol_name("_TDDR")
     667                      .dwattr $C$DW$52, DW_AT_bit_offset(0x08)
     668                      .dwattr $C$DW$52, DW_AT_bit_size(0x08)
     669                      .dwattr $C$DW$52, DW_AT_data_member_location[DW_OP_plus_uconst 0x0]
     670                      .dwattr $C$DW$52, DW_AT_accessibility(DW_ACCESS_public)
     671              
     672              $C$DW$53        .dwtag  DW_TAG_member
     673                      .dwattr $C$DW$53, DW_AT_type(*$C$DW$T$19)
     674                      .dwattr $C$DW$53, DW_AT_name("PSC")
     675                      .dwattr $C$DW$53, DW_AT_TI_symbol_name("_PSC")
     676                      .dwattr $C$DW$53, DW_AT_bit_offset(0x00)
     677                      .dwattr $C$DW$53, DW_AT_bit_size(0x08)
     678                      .dwattr $C$DW$53, DW_AT_data_member_location[DW_OP_plus_uconst 0x0]
     679                      .dwattr $C$DW$53, DW_AT_accessibility(DW_ACCESS_public)
     680              
     681                      .dwendtag $C$DW$T$33
     682              
TMS320C2000 Assembler PC v18.1.2 Fri Dec 14 17:55:18 2018

Tools Copyright (c) 1996-2017 Texas Instruments Incorporated
F2837xD_CpuTimers.asm                                                PAGE   14

     683              
     684              $C$DW$T$34      .dwtag  DW_TAG_union_type
     685                      .dwattr $C$DW$T$34, DW_AT_name("TPR_REG")
     686                      .dwattr $C$DW$T$34, DW_AT_byte_size(0x01)
     687              $C$DW$54        .dwtag  DW_TAG_member
     688                      .dwattr $C$DW$54, DW_AT_type(*$C$DW$T$19)
     689                      .dwattr $C$DW$54, DW_AT_name("all")
     690                      .dwattr $C$DW$54, DW_AT_TI_symbol_name("_all")
     691                      .dwattr $C$DW$54, DW_AT_data_member_location[DW_OP_plus_uconst 0x0]
     692                      .dwattr $C$DW$54, DW_AT_accessibility(DW_ACCESS_public)
     693              
     694              $C$DW$55        .dwtag  DW_TAG_member
     695                      .dwattr $C$DW$55, DW_AT_type(*$C$DW$T$33)
     696                      .dwattr $C$DW$55, DW_AT_name("bit")
     697                      .dwattr $C$DW$55, DW_AT_TI_symbol_name("_bit")
     698                      .dwattr $C$DW$55, DW_AT_data_member_location[DW_OP_plus_uconst 0x0]
     699                      .dwattr $C$DW$55, DW_AT_accessibility(DW_ACCESS_public)
     700              
     701                      .dwendtag $C$DW$T$34
     702              
     703              $C$DW$T$2       .dwtag  DW_TAG_unspecified_type
     704                      .dwattr $C$DW$T$2, DW_AT_name("void")
     705              
     706              $C$DW$T$4       .dwtag  DW_TAG_base_type
     707                      .dwattr $C$DW$T$4, DW_AT_encoding(DW_ATE_boolean)
     708                      .dwattr $C$DW$T$4, DW_AT_name("bool")
     709                      .dwattr $C$DW$T$4, DW_AT_byte_size(0x01)
     710              
     711              $C$DW$T$5       .dwtag  DW_TAG_base_type
     712                      .dwattr $C$DW$T$5, DW_AT_encoding(DW_ATE_signed_char)
     713                      .dwattr $C$DW$T$5, DW_AT_name("signed char")
     714                      .dwattr $C$DW$T$5, DW_AT_byte_size(0x01)
     715              
     716              $C$DW$T$6       .dwtag  DW_TAG_base_type
     717                      .dwattr $C$DW$T$6, DW_AT_encoding(DW_ATE_unsigned_char)
     718                      .dwattr $C$DW$T$6, DW_AT_name("unsigned char")
     719                      .dwattr $C$DW$T$6, DW_AT_byte_size(0x01)
     720              
     721              $C$DW$T$7       .dwtag  DW_TAG_base_type
     722                      .dwattr $C$DW$T$7, DW_AT_encoding(DW_ATE_signed_char)
     723                      .dwattr $C$DW$T$7, DW_AT_name("wchar_t")
     724                      .dwattr $C$DW$T$7, DW_AT_byte_size(0x01)
     725              
     726              $C$DW$T$8       .dwtag  DW_TAG_base_type
     727                      .dwattr $C$DW$T$8, DW_AT_encoding(DW_ATE_signed)
     728                      .dwattr $C$DW$T$8, DW_AT_name("short")
     729                      .dwattr $C$DW$T$8, DW_AT_byte_size(0x01)
     730              
     731              $C$DW$T$9       .dwtag  DW_TAG_base_type
     732                      .dwattr $C$DW$T$9, DW_AT_encoding(DW_ATE_unsigned)
     733                      .dwattr $C$DW$T$9, DW_AT_name("unsigned short")
     734                      .dwattr $C$DW$T$9, DW_AT_byte_size(0x01)
     735              
     736              $C$DW$T$10      .dwtag  DW_TAG_base_type
     737                      .dwattr $C$DW$T$10, DW_AT_encoding(DW_ATE_signed)
TMS320C2000 Assembler PC v18.1.2 Fri Dec 14 17:55:18 2018

Tools Copyright (c) 1996-2017 Texas Instruments Incorporated
F2837xD_CpuTimers.asm                                                PAGE   15

     738                      .dwattr $C$DW$T$10, DW_AT_name("int")
     739                      .dwattr $C$DW$T$10, DW_AT_byte_size(0x01)
     740              
     741              $C$DW$T$11      .dwtag  DW_TAG_base_type
     742                      .dwattr $C$DW$T$11, DW_AT_encoding(DW_ATE_unsigned)
     743                      .dwattr $C$DW$T$11, DW_AT_name("unsigned int")
     744                      .dwattr $C$DW$T$11, DW_AT_byte_size(0x01)
     745              
     746              $C$DW$T$19      .dwtag  DW_TAG_typedef
     747                      .dwattr $C$DW$T$19, DW_AT_name("Uint16")
     748                      .dwattr $C$DW$T$19, DW_AT_type(*$C$DW$T$11)
     749                      .dwattr $C$DW$T$19, DW_AT_language(DW_LANG_C)
     750              
     751              $C$DW$T$12      .dwtag  DW_TAG_base_type
     752                      .dwattr $C$DW$T$12, DW_AT_encoding(DW_ATE_signed)
     753                      .dwattr $C$DW$T$12, DW_AT_name("long")
     754                      .dwattr $C$DW$T$12, DW_AT_byte_size(0x02)
     755              
     756              $C$DW$T$13      .dwtag  DW_TAG_base_type
     757                      .dwattr $C$DW$T$13, DW_AT_encoding(DW_ATE_unsigned)
     758                      .dwattr $C$DW$T$13, DW_AT_name("unsigned long")
     759                      .dwattr $C$DW$T$13, DW_AT_byte_size(0x02)
     760              
     761              $C$DW$T$23      .dwtag  DW_TAG_typedef
     762                      .dwattr $C$DW$T$23, DW_AT_name("Uint32")
     763                      .dwattr $C$DW$T$23, DW_AT_type(*$C$DW$T$13)
     764                      .dwattr $C$DW$T$23, DW_AT_language(DW_LANG_C)
     765              
     766              $C$DW$T$14      .dwtag  DW_TAG_base_type
     767                      .dwattr $C$DW$T$14, DW_AT_encoding(DW_ATE_signed)
     768                      .dwattr $C$DW$T$14, DW_AT_name("long long")
     769                      .dwattr $C$DW$T$14, DW_AT_byte_size(0x04)
     770              
     771              $C$DW$T$15      .dwtag  DW_TAG_base_type
     772                      .dwattr $C$DW$T$15, DW_AT_encoding(DW_ATE_unsigned)
     773                      .dwattr $C$DW$T$15, DW_AT_name("unsigned long long")
     774                      .dwattr $C$DW$T$15, DW_AT_byte_size(0x04)
     775              
     776              $C$DW$T$16      .dwtag  DW_TAG_base_type
     777                      .dwattr $C$DW$T$16, DW_AT_encoding(DW_ATE_float)
     778                      .dwattr $C$DW$T$16, DW_AT_name("float")
     779                      .dwattr $C$DW$T$16, DW_AT_byte_size(0x02)
     780              
     781              $C$DW$T$17      .dwtag  DW_TAG_base_type
     782                      .dwattr $C$DW$T$17, DW_AT_encoding(DW_ATE_float)
     783                      .dwattr $C$DW$T$17, DW_AT_name("double")
     784                      .dwattr $C$DW$T$17, DW_AT_byte_size(0x02)
     785              
     786              $C$DW$T$18      .dwtag  DW_TAG_base_type
     787                      .dwattr $C$DW$T$18, DW_AT_encoding(DW_ATE_float)
     788                      .dwattr $C$DW$T$18, DW_AT_name("long double")
     789                      .dwattr $C$DW$T$18, DW_AT_byte_size(0x04)
     790              
     791                      .dwattr $C$DW$CU, DW_AT_language(DW_LANG_C)
     792              
TMS320C2000 Assembler PC v18.1.2 Fri Dec 14 17:55:18 2018

Tools Copyright (c) 1996-2017 Texas Instruments Incorporated
F2837xD_CpuTimers.asm                                                PAGE   16

     793              ;***************************************************************
     794              ;* DWARF CIE ENTRIES                                           *
     795              ;***************************************************************
     796              
     797              $C$DW$CIE       .dwcie 26
     798                      .dwcfi  cfa_register, 20
     799                      .dwcfi  cfa_offset, 0
     800                      .dwcfi  same_value, 28
     801                      .dwcfi  same_value, 6
     802                      .dwcfi  same_value, 7
     803                      .dwcfi  same_value, 8
     804                      .dwcfi  same_value, 9
     805                      .dwcfi  same_value, 10
     806                      .dwcfi  same_value, 11
     807                      .dwcfi  same_value, 59
     808                      .dwcfi  same_value, 60
     809                      .dwcfi  same_value, 63
     810                      .dwcfi  same_value, 64
     811                      .dwcfi  same_value, 67
     812                      .dwcfi  same_value, 68
     813                      .dwcfi  same_value, 71
     814                      .dwcfi  same_value, 72
     815                      .dwendentry
     816              
     817              ;***************************************************************
     818              ;* DWARF REGISTER MAP                                          *
     819              ;***************************************************************
     820              
     821              $C$DW$56        .dwtag  DW_TAG_TI_assign_register
     822                      .dwattr $C$DW$56, DW_AT_name("AL")
     823                      .dwattr $C$DW$56, DW_AT_location[DW_OP_reg0]
     824              
     825              $C$DW$57        .dwtag  DW_TAG_TI_assign_register
     826                      .dwattr $C$DW$57, DW_AT_name("AH")
     827                      .dwattr $C$DW$57, DW_AT_location[DW_OP_reg1]
     828              
     829              $C$DW$58        .dwtag  DW_TAG_TI_assign_register
     830                      .dwattr $C$DW$58, DW_AT_name("PL")
     831                      .dwattr $C$DW$58, DW_AT_location[DW_OP_reg2]
     832              
     833              $C$DW$59        .dwtag  DW_TAG_TI_assign_register
     834                      .dwattr $C$DW$59, DW_AT_name("PH")
     835                      .dwattr $C$DW$59, DW_AT_location[DW_OP_reg3]
     836              
     837              $C$DW$60        .dwtag  DW_TAG_TI_assign_register
     838                      .dwattr $C$DW$60, DW_AT_name("SP")
     839                      .dwattr $C$DW$60, DW_AT_location[DW_OP_reg20]
     840              
     841              $C$DW$61        .dwtag  DW_TAG_TI_assign_register
     842                      .dwattr $C$DW$61, DW_AT_name("XT")
     843                      .dwattr $C$DW$61, DW_AT_location[DW_OP_reg21]
     844              
     845              $C$DW$62        .dwtag  DW_TAG_TI_assign_register
     846                      .dwattr $C$DW$62, DW_AT_name("T")
     847                      .dwattr $C$DW$62, DW_AT_location[DW_OP_reg22]
TMS320C2000 Assembler PC v18.1.2 Fri Dec 14 17:55:18 2018

Tools Copyright (c) 1996-2017 Texas Instruments Incorporated
F2837xD_CpuTimers.asm                                                PAGE   17

     848              
     849              $C$DW$63        .dwtag  DW_TAG_TI_assign_register
     850                      .dwattr $C$DW$63, DW_AT_name("ST0")
     851                      .dwattr $C$DW$63, DW_AT_location[DW_OP_reg23]
     852              
     853              $C$DW$64        .dwtag  DW_TAG_TI_assign_register
     854                      .dwattr $C$DW$64, DW_AT_name("ST1")
     855                      .dwattr $C$DW$64, DW_AT_location[DW_OP_reg24]
     856              
     857              $C$DW$65        .dwtag  DW_TAG_TI_assign_register
     858                      .dwattr $C$DW$65, DW_AT_name("PC")
     859                      .dwattr $C$DW$65, DW_AT_location[DW_OP_reg25]
     860              
     861              $C$DW$66        .dwtag  DW_TAG_TI_assign_register
     862                      .dwattr $C$DW$66, DW_AT_name("RPC")
     863                      .dwattr $C$DW$66, DW_AT_location[DW_OP_reg26]
     864              
     865              $C$DW$67        .dwtag  DW_TAG_TI_assign_register
     866                      .dwattr $C$DW$67, DW_AT_name("FP")
     867                      .dwattr $C$DW$67, DW_AT_location[DW_OP_reg28]
     868              
     869              $C$DW$68        .dwtag  DW_TAG_TI_assign_register
     870                      .dwattr $C$DW$68, DW_AT_name("DP")
     871                      .dwattr $C$DW$68, DW_AT_location[DW_OP_reg29]
     872              
     873              $C$DW$69        .dwtag  DW_TAG_TI_assign_register
     874                      .dwattr $C$DW$69, DW_AT_name("SXM")
     875                      .dwattr $C$DW$69, DW_AT_location[DW_OP_reg30]
     876              
     877              $C$DW$70        .dwtag  DW_TAG_TI_assign_register
     878                      .dwattr $C$DW$70, DW_AT_name("PM")
     879                      .dwattr $C$DW$70, DW_AT_location[DW_OP_reg31]
     880              
     881              $C$DW$71        .dwtag  DW_TAG_TI_assign_register
     882                      .dwattr $C$DW$71, DW_AT_name("OVM")
     883                      .dwattr $C$DW$71, DW_AT_location[DW_OP_regx 0x20]
     884              
     885              $C$DW$72        .dwtag  DW_TAG_TI_assign_register
     886                      .dwattr $C$DW$72, DW_AT_name("PAGE0")
     887                      .dwattr $C$DW$72, DW_AT_location[DW_OP_regx 0x21]
     888              
     889              $C$DW$73        .dwtag  DW_TAG_TI_assign_register
     890                      .dwattr $C$DW$73, DW_AT_name("AMODE")
     891                      .dwattr $C$DW$73, DW_AT_location[DW_OP_regx 0x22]
     892              
     893              $C$DW$74        .dwtag  DW_TAG_TI_assign_register
     894                      .dwattr $C$DW$74, DW_AT_name("EALLOW")
     895                      .dwattr $C$DW$74, DW_AT_location[DW_OP_regx 0x4e]
     896              
     897              $C$DW$75        .dwtag  DW_TAG_TI_assign_register
     898                      .dwattr $C$DW$75, DW_AT_name("INTM")
     899                      .dwattr $C$DW$75, DW_AT_location[DW_OP_regx 0x23]
     900              
     901              $C$DW$76        .dwtag  DW_TAG_TI_assign_register
     902                      .dwattr $C$DW$76, DW_AT_name("IFR")
TMS320C2000 Assembler PC v18.1.2 Fri Dec 14 17:55:18 2018

Tools Copyright (c) 1996-2017 Texas Instruments Incorporated
F2837xD_CpuTimers.asm                                                PAGE   18

     903                      .dwattr $C$DW$76, DW_AT_location[DW_OP_regx 0x24]
     904              
     905              $C$DW$77        .dwtag  DW_TAG_TI_assign_register
     906                      .dwattr $C$DW$77, DW_AT_name("IER")
     907                      .dwattr $C$DW$77, DW_AT_location[DW_OP_regx 0x25]
     908              
     909              $C$DW$78        .dwtag  DW_TAG_TI_assign_register
     910                      .dwattr $C$DW$78, DW_AT_name("V")
     911                      .dwattr $C$DW$78, DW_AT_location[DW_OP_regx 0x26]
     912              
     913              $C$DW$79        .dwtag  DW_TAG_TI_assign_register
     914                      .dwattr $C$DW$79, DW_AT_name("PSEUDOH")
     915                      .dwattr $C$DW$79, DW_AT_location[DW_OP_regx 0x4c]
     916              
     917              $C$DW$80        .dwtag  DW_TAG_TI_assign_register
     918                      .dwattr $C$DW$80, DW_AT_name("VOL")
     919                      .dwattr $C$DW$80, DW_AT_location[DW_OP_regx 0x4d]
     920              
     921              $C$DW$81        .dwtag  DW_TAG_TI_assign_register
     922                      .dwattr $C$DW$81, DW_AT_name("AR0")
     923                      .dwattr $C$DW$81, DW_AT_location[DW_OP_reg4]
     924              
     925              $C$DW$82        .dwtag  DW_TAG_TI_assign_register
     926                      .dwattr $C$DW$82, DW_AT_name("XAR0")
     927                      .dwattr $C$DW$82, DW_AT_location[DW_OP_reg5]
     928              
     929              $C$DW$83        .dwtag  DW_TAG_TI_assign_register
     930                      .dwattr $C$DW$83, DW_AT_name("AR1")
     931                      .dwattr $C$DW$83, DW_AT_location[DW_OP_reg6]
     932              
     933              $C$DW$84        .dwtag  DW_TAG_TI_assign_register
     934                      .dwattr $C$DW$84, DW_AT_name("XAR1")
     935                      .dwattr $C$DW$84, DW_AT_location[DW_OP_reg7]
     936              
     937              $C$DW$85        .dwtag  DW_TAG_TI_assign_register
     938                      .dwattr $C$DW$85, DW_AT_name("AR2")
     939                      .dwattr $C$DW$85, DW_AT_location[DW_OP_reg8]
     940              
     941              $C$DW$86        .dwtag  DW_TAG_TI_assign_register
     942                      .dwattr $C$DW$86, DW_AT_name("XAR2")
     943                      .dwattr $C$DW$86, DW_AT_location[DW_OP_reg9]
     944              
     945              $C$DW$87        .dwtag  DW_TAG_TI_assign_register
     946                      .dwattr $C$DW$87, DW_AT_name("AR3")
     947                      .dwattr $C$DW$87, DW_AT_location[DW_OP_reg10]
     948              
     949              $C$DW$88        .dwtag  DW_TAG_TI_assign_register
     950                      .dwattr $C$DW$88, DW_AT_name("XAR3")
     951                      .dwattr $C$DW$88, DW_AT_location[DW_OP_reg11]
     952              
     953              $C$DW$89        .dwtag  DW_TAG_TI_assign_register
     954                      .dwattr $C$DW$89, DW_AT_name("AR4")
     955                      .dwattr $C$DW$89, DW_AT_location[DW_OP_reg12]
     956              
     957              $C$DW$90        .dwtag  DW_TAG_TI_assign_register
TMS320C2000 Assembler PC v18.1.2 Fri Dec 14 17:55:18 2018

Tools Copyright (c) 1996-2017 Texas Instruments Incorporated
F2837xD_CpuTimers.asm                                                PAGE   19

     958                      .dwattr $C$DW$90, DW_AT_name("XAR4")
     959                      .dwattr $C$DW$90, DW_AT_location[DW_OP_reg13]
     960              
     961              $C$DW$91        .dwtag  DW_TAG_TI_assign_register
     962                      .dwattr $C$DW$91, DW_AT_name("AR5")
     963                      .dwattr $C$DW$91, DW_AT_location[DW_OP_reg14]
     964              
     965              $C$DW$92        .dwtag  DW_TAG_TI_assign_register
     966                      .dwattr $C$DW$92, DW_AT_name("XAR5")
     967                      .dwattr $C$DW$92, DW_AT_location[DW_OP_reg15]
     968              
     969              $C$DW$93        .dwtag  DW_TAG_TI_assign_register
     970                      .dwattr $C$DW$93, DW_AT_name("AR6")
     971                      .dwattr $C$DW$93, DW_AT_location[DW_OP_reg16]
     972              
     973              $C$DW$94        .dwtag  DW_TAG_TI_assign_register
     974                      .dwattr $C$DW$94, DW_AT_name("XAR6")
     975                      .dwattr $C$DW$94, DW_AT_location[DW_OP_reg17]
     976              
     977              $C$DW$95        .dwtag  DW_TAG_TI_assign_register
     978                      .dwattr $C$DW$95, DW_AT_name("AR7")
     979                      .dwattr $C$DW$95, DW_AT_location[DW_OP_reg18]
     980              
     981              $C$DW$96        .dwtag  DW_TAG_TI_assign_register
     982                      .dwattr $C$DW$96, DW_AT_name("XAR7")
     983                      .dwattr $C$DW$96, DW_AT_location[DW_OP_reg19]
     984              
     985              $C$DW$97        .dwtag  DW_TAG_TI_assign_register
     986                      .dwattr $C$DW$97, DW_AT_name("R0H")
     987                      .dwattr $C$DW$97, DW_AT_location[DW_OP_regx 0x2b]
     988              
     989              $C$DW$98        .dwtag  DW_TAG_TI_assign_register
     990                      .dwattr $C$DW$98, DW_AT_name("R0HH")
     991                      .dwattr $C$DW$98, DW_AT_location[DW_OP_regx 0x2c]
     992              
     993              $C$DW$99        .dwtag  DW_TAG_TI_assign_register
     994                      .dwattr $C$DW$99, DW_AT_name("R1H")
     995                      .dwattr $C$DW$99, DW_AT_location[DW_OP_regx 0x2f]
     996              
     997              $C$DW$100       .dwtag  DW_TAG_TI_assign_register
     998                      .dwattr $C$DW$100, DW_AT_name("R1HH")
     999                      .dwattr $C$DW$100, DW_AT_location[DW_OP_regx 0x30]
    1000              
    1001              $C$DW$101       .dwtag  DW_TAG_TI_assign_register
    1002                      .dwattr $C$DW$101, DW_AT_name("R2H")
    1003                      .dwattr $C$DW$101, DW_AT_location[DW_OP_regx 0x33]
    1004              
    1005              $C$DW$102       .dwtag  DW_TAG_TI_assign_register
    1006                      .dwattr $C$DW$102, DW_AT_name("R2HH")
    1007                      .dwattr $C$DW$102, DW_AT_location[DW_OP_regx 0x34]
    1008              
    1009              $C$DW$103       .dwtag  DW_TAG_TI_assign_register
    1010                      .dwattr $C$DW$103, DW_AT_name("R3H")
    1011                      .dwattr $C$DW$103, DW_AT_location[DW_OP_regx 0x37]
    1012              
TMS320C2000 Assembler PC v18.1.2 Fri Dec 14 17:55:18 2018

Tools Copyright (c) 1996-2017 Texas Instruments Incorporated
F2837xD_CpuTimers.asm                                                PAGE   20

    1013              $C$DW$104       .dwtag  DW_TAG_TI_assign_register
    1014                      .dwattr $C$DW$104, DW_AT_name("R3HH")
    1015                      .dwattr $C$DW$104, DW_AT_location[DW_OP_regx 0x38]
    1016              
    1017              $C$DW$105       .dwtag  DW_TAG_TI_assign_register
    1018                      .dwattr $C$DW$105, DW_AT_name("R4H")
    1019                      .dwattr $C$DW$105, DW_AT_location[DW_OP_regx 0x3b]
    1020              
    1021              $C$DW$106       .dwtag  DW_TAG_TI_assign_register
    1022                      .dwattr $C$DW$106, DW_AT_name("R4HH")
    1023                      .dwattr $C$DW$106, DW_AT_location[DW_OP_regx 0x3c]
    1024              
    1025              $C$DW$107       .dwtag  DW_TAG_TI_assign_register
    1026                      .dwattr $C$DW$107, DW_AT_name("R5H")
    1027                      .dwattr $C$DW$107, DW_AT_location[DW_OP_regx 0x3f]
    1028              
    1029              $C$DW$108       .dwtag  DW_TAG_TI_assign_register
    1030                      .dwattr $C$DW$108, DW_AT_name("R5HH")
    1031                      .dwattr $C$DW$108, DW_AT_location[DW_OP_regx 0x40]
    1032              
    1033              $C$DW$109       .dwtag  DW_TAG_TI_assign_register
    1034                      .dwattr $C$DW$109, DW_AT_name("R6H")
    1035                      .dwattr $C$DW$109, DW_AT_location[DW_OP_regx 0x43]
    1036              
    1037              $C$DW$110       .dwtag  DW_TAG_TI_assign_register
    1038                      .dwattr $C$DW$110, DW_AT_name("R6HH")
    1039                      .dwattr $C$DW$110, DW_AT_location[DW_OP_regx 0x44]
    1040              
    1041              $C$DW$111       .dwtag  DW_TAG_TI_assign_register
    1042                      .dwattr $C$DW$111, DW_AT_name("R7H")
    1043                      .dwattr $C$DW$111, DW_AT_location[DW_OP_regx 0x47]
    1044              
    1045              $C$DW$112       .dwtag  DW_TAG_TI_assign_register
    1046                      .dwattr $C$DW$112, DW_AT_name("R7HH")
    1047                      .dwattr $C$DW$112, DW_AT_location[DW_OP_regx 0x48]
    1048              
    1049              $C$DW$113       .dwtag  DW_TAG_TI_assign_register
    1050                      .dwattr $C$DW$113, DW_AT_name("RBL")
    1051                      .dwattr $C$DW$113, DW_AT_location[DW_OP_regx 0x49]
    1052              
    1053              $C$DW$114       .dwtag  DW_TAG_TI_assign_register
    1054                      .dwattr $C$DW$114, DW_AT_name("RB")
    1055                      .dwattr $C$DW$114, DW_AT_location[DW_OP_regx 0x4a]
    1056              
    1057              $C$DW$115       .dwtag  DW_TAG_TI_assign_register
    1058                      .dwattr $C$DW$115, DW_AT_name("STFL")
    1059                      .dwattr $C$DW$115, DW_AT_location[DW_OP_regx 0x27]
    1060              
    1061              $C$DW$116       .dwtag  DW_TAG_TI_assign_register
    1062                      .dwattr $C$DW$116, DW_AT_name("STF")
    1063                      .dwattr $C$DW$116, DW_AT_location[DW_OP_regx 0x28]
    1064              
    1065              $C$DW$117       .dwtag  DW_TAG_TI_assign_register
    1066                      .dwattr $C$DW$117, DW_AT_name("FPUHAZ")
    1067                      .dwattr $C$DW$117, DW_AT_location[DW_OP_reg27]
TMS320C2000 Assembler PC v18.1.2 Fri Dec 14 17:55:18 2018

Tools Copyright (c) 1996-2017 Texas Instruments Incorporated
F2837xD_CpuTimers.asm                                                PAGE   21

    1068              
    1069                      .dwendtag $C$DW$CU
    1070              

No Assembly Errors, No Assembly Warnings
